
14-ADC.elf:     file format elf32-littlearm

Sections:
Idx Name          Size      VMA       LMA       File off  Algn
  0 .text         000081a4  00400000  00400000  00008000  2**3
                  CONTENTS, ALLOC, LOAD, READONLY, CODE
  1 .ARM.exidx    00000008  004081a4  004081a4  000101a4  2**2
                  CONTENTS, ALLOC, LOAD, READONLY, DATA
  2 .relocate     00000884  20000000  004081ac  00018000  2**3
                  CONTENTS, ALLOC, LOAD, DATA
  3 .bss          000004d8  20000884  00408a30  00018884  2**2
                  ALLOC
  4 .stack        00003004  20000d5c  00408f08  00018884  2**0
                  ALLOC
  5 .ARM.attributes 0000002a  00000000  00000000  00018884  2**0
                  CONTENTS, READONLY
  6 .comment      0000005b  00000000  00000000  000188ae  2**0
                  CONTENTS, READONLY
  7 .debug_info   0000ce1b  00000000  00000000  00018909  2**0
                  CONTENTS, READONLY, DEBUGGING
  8 .debug_abbrev 00001d74  00000000  00000000  00025724  2**0
                  CONTENTS, READONLY, DEBUGGING
  9 .debug_loc    00005a50  00000000  00000000  00027498  2**0
                  CONTENTS, READONLY, DEBUGGING
 10 .debug_aranges 000009a0  00000000  00000000  0002cee8  2**0
                  CONTENTS, READONLY, DEBUGGING
 11 .debug_ranges 00000978  00000000  00000000  0002d888  2**0
                  CONTENTS, READONLY, DEBUGGING
 12 .debug_macro  00013e5d  00000000  00000000  0002e200  2**0
                  CONTENTS, READONLY, DEBUGGING
 13 .debug_line   0000a7d2  00000000  00000000  0004205d  2**0
                  CONTENTS, READONLY, DEBUGGING
 14 .debug_str    0005968e  00000000  00000000  0004c82f  2**0
                  CONTENTS, READONLY, DEBUGGING
 15 .debug_frame  000021dc  00000000  00000000  000a5ec0  2**2
                  CONTENTS, READONLY, DEBUGGING

Disassembly of section .text:

00400000 <_sfixed>:
  400000:	20003d60 	.word	0x20003d60
  400004:	004011e9 	.word	0x004011e9
  400008:	004011e5 	.word	0x004011e5
  40000c:	004011e5 	.word	0x004011e5
  400010:	004011e5 	.word	0x004011e5
  400014:	004011e5 	.word	0x004011e5
  400018:	004011e5 	.word	0x004011e5
	...
  40002c:	004011e5 	.word	0x004011e5
  400030:	004011e5 	.word	0x004011e5
  400034:	00000000 	.word	0x00000000
  400038:	004011e5 	.word	0x004011e5
  40003c:	004011e5 	.word	0x004011e5
  400040:	004011e5 	.word	0x004011e5
  400044:	004011e5 	.word	0x004011e5
  400048:	004011e5 	.word	0x004011e5
  40004c:	004011e5 	.word	0x004011e5
  400050:	004011e5 	.word	0x004011e5
  400054:	004011e5 	.word	0x004011e5
  400058:	004011e5 	.word	0x004011e5
  40005c:	004011e5 	.word	0x004011e5
  400060:	004011e5 	.word	0x004011e5
  400064:	004011e5 	.word	0x004011e5
  400068:	00000000 	.word	0x00000000
  40006c:	00401069 	.word	0x00401069
  400070:	0040107d 	.word	0x0040107d
  400074:	00401091 	.word	0x00401091
  400078:	004011e5 	.word	0x004011e5
  40007c:	004011e5 	.word	0x004011e5
	...
  400088:	004011e5 	.word	0x004011e5
  40008c:	004011e5 	.word	0x004011e5
  400090:	004011e5 	.word	0x004011e5
  400094:	004011e5 	.word	0x004011e5
  400098:	004011e5 	.word	0x004011e5
  40009c:	004014ed 	.word	0x004014ed
  4000a0:	004011e5 	.word	0x004011e5
  4000a4:	004011e5 	.word	0x004011e5
  4000a8:	004011e5 	.word	0x004011e5
  4000ac:	004011e5 	.word	0x004011e5
  4000b0:	004011e5 	.word	0x004011e5
  4000b4:	00401479 	.word	0x00401479
  4000b8:	004011e5 	.word	0x004011e5
  4000bc:	004011e5 	.word	0x004011e5
  4000c0:	004011e5 	.word	0x004011e5
  4000c4:	004011e5 	.word	0x004011e5
  4000c8:	004011e5 	.word	0x004011e5

004000cc <__do_global_dtors_aux>:
  4000cc:	b510      	push	{r4, lr}
  4000ce:	4c05      	ldr	r4, [pc, #20]	; (4000e4 <__do_global_dtors_aux+0x18>)
  4000d0:	7823      	ldrb	r3, [r4, #0]
  4000d2:	b933      	cbnz	r3, 4000e2 <__do_global_dtors_aux+0x16>
  4000d4:	4b04      	ldr	r3, [pc, #16]	; (4000e8 <__do_global_dtors_aux+0x1c>)
  4000d6:	b113      	cbz	r3, 4000de <__do_global_dtors_aux+0x12>
  4000d8:	4804      	ldr	r0, [pc, #16]	; (4000ec <__do_global_dtors_aux+0x20>)
  4000da:	f3af 8000 	nop.w
  4000de:	2301      	movs	r3, #1
  4000e0:	7023      	strb	r3, [r4, #0]
  4000e2:	bd10      	pop	{r4, pc}
  4000e4:	20000884 	.word	0x20000884
  4000e8:	00000000 	.word	0x00000000
  4000ec:	004081ac 	.word	0x004081ac

004000f0 <frame_dummy>:
  4000f0:	4b08      	ldr	r3, [pc, #32]	; (400114 <frame_dummy+0x24>)
  4000f2:	b510      	push	{r4, lr}
  4000f4:	b11b      	cbz	r3, 4000fe <frame_dummy+0xe>
  4000f6:	4808      	ldr	r0, [pc, #32]	; (400118 <frame_dummy+0x28>)
  4000f8:	4908      	ldr	r1, [pc, #32]	; (40011c <frame_dummy+0x2c>)
  4000fa:	f3af 8000 	nop.w
  4000fe:	4808      	ldr	r0, [pc, #32]	; (400120 <frame_dummy+0x30>)
  400100:	6803      	ldr	r3, [r0, #0]
  400102:	b903      	cbnz	r3, 400106 <frame_dummy+0x16>
  400104:	bd10      	pop	{r4, pc}
  400106:	4b07      	ldr	r3, [pc, #28]	; (400124 <frame_dummy+0x34>)
  400108:	2b00      	cmp	r3, #0
  40010a:	d0fb      	beq.n	400104 <frame_dummy+0x14>
  40010c:	e8bd 4010 	ldmia.w	sp!, {r4, lr}
  400110:	4718      	bx	r3
  400112:	bf00      	nop
  400114:	00000000 	.word	0x00000000
  400118:	004081ac 	.word	0x004081ac
  40011c:	20000888 	.word	0x20000888
  400120:	004081ac 	.word	0x004081ac
  400124:	00000000 	.word	0x00000000

00400128 <adc_init>:
  400128:	b430      	push	{r4, r5}
  40012a:	2401      	movs	r4, #1
  40012c:	6004      	str	r4, [r0, #0]
  40012e:	2400      	movs	r4, #0
  400130:	6044      	str	r4, [r0, #4]
  400132:	f240 2502 	movw	r5, #514	; 0x202
  400136:	f8c0 5120 	str.w	r5, [r0, #288]	; 0x120
  40013a:	f8c0 4104 	str.w	r4, [r0, #260]	; 0x104
  40013e:	f8c0 4114 	str.w	r4, [r0, #276]	; 0x114
  400142:	6845      	ldr	r5, [r0, #4]
  400144:	432b      	orrs	r3, r5
  400146:	0052      	lsls	r2, r2, #1
  400148:	fbb1 f1f2 	udiv	r1, r1, r2
  40014c:	1e4a      	subs	r2, r1, #1
  40014e:	0212      	lsls	r2, r2, #8
  400150:	b292      	uxth	r2, r2
  400152:	4313      	orrs	r3, r2
  400154:	6043      	str	r3, [r0, #4]
  400156:	4620      	mov	r0, r4
  400158:	bc30      	pop	{r4, r5}
  40015a:	4770      	bx	lr

0040015c <adc_configure_trigger>:
  40015c:	6843      	ldr	r3, [r0, #4]
  40015e:	4319      	orrs	r1, r3
  400160:	01d2      	lsls	r2, r2, #7
  400162:	b2d2      	uxtb	r2, r2
  400164:	4311      	orrs	r1, r2
  400166:	6041      	str	r1, [r0, #4]
  400168:	4770      	bx	lr
  40016a:	bf00      	nop

0040016c <adc_configure_timing>:
  40016c:	b410      	push	{r4}
  40016e:	6844      	ldr	r4, [r0, #4]
  400170:	4322      	orrs	r2, r4
  400172:	0609      	lsls	r1, r1, #24
  400174:	f001 6170 	and.w	r1, r1, #251658240	; 0xf000000
  400178:	430a      	orrs	r2, r1
  40017a:	071b      	lsls	r3, r3, #28
  40017c:	f003 5340 	and.w	r3, r3, #805306368	; 0x30000000
  400180:	4313      	orrs	r3, r2
  400182:	6043      	str	r3, [r0, #4]
  400184:	f85d 4b04 	ldr.w	r4, [sp], #4
  400188:	4770      	bx	lr
  40018a:	bf00      	nop

0040018c <adc_start>:
  40018c:	2302      	movs	r3, #2
  40018e:	6003      	str	r3, [r0, #0]
  400190:	4770      	bx	lr
  400192:	bf00      	nop

00400194 <adc_enable_channel>:
  400194:	2301      	movs	r3, #1
  400196:	408b      	lsls	r3, r1
  400198:	6103      	str	r3, [r0, #16]
  40019a:	4770      	bx	lr

0040019c <adc_get_channel_value>:
  40019c:	290f      	cmp	r1, #15
  40019e:	bf9a      	itte	ls
  4001a0:	3114      	addls	r1, #20
  4001a2:	f850 0021 	ldrls.w	r0, [r0, r1, lsl #2]
  4001a6:	2000      	movhi	r0, #0
  4001a8:	4770      	bx	lr
  4001aa:	bf00      	nop

004001ac <adc_enable_interrupt>:
  4001ac:	6241      	str	r1, [r0, #36]	; 0x24
  4001ae:	4770      	bx	lr

004001b0 <adc_get_status>:
  4001b0:	6b00      	ldr	r0, [r0, #48]	; 0x30
  4001b2:	4770      	bx	lr

004001b4 <adc_enable_ts>:
  4001b4:	f8d0 3094 	ldr.w	r3, [r0, #148]	; 0x94
  4001b8:	f043 0310 	orr.w	r3, r3, #16
  4001bc:	f8c0 3094 	str.w	r3, [r0, #148]	; 0x94
  4001c0:	4770      	bx	lr
  4001c2:	bf00      	nop

004001c4 <tc_init>:
  4001c4:	b410      	push	{r4}
  4001c6:	0189      	lsls	r1, r1, #6
  4001c8:	1843      	adds	r3, r0, r1
  4001ca:	2402      	movs	r4, #2
  4001cc:	5044      	str	r4, [r0, r1]
  4001ce:	f04f 31ff 	mov.w	r1, #4294967295
  4001d2:	6299      	str	r1, [r3, #40]	; 0x28
  4001d4:	6a19      	ldr	r1, [r3, #32]
  4001d6:	605a      	str	r2, [r3, #4]
  4001d8:	f85d 4b04 	ldr.w	r4, [sp], #4
  4001dc:	4770      	bx	lr
  4001de:	bf00      	nop

004001e0 <tc_start>:
  4001e0:	0189      	lsls	r1, r1, #6
  4001e2:	2305      	movs	r3, #5
  4001e4:	5043      	str	r3, [r0, r1]
  4001e6:	4770      	bx	lr

004001e8 <tc_write_rc>:
  4001e8:	eb00 1181 	add.w	r1, r0, r1, lsl #6
  4001ec:	61ca      	str	r2, [r1, #28]
  4001ee:	4770      	bx	lr

004001f0 <tc_enable_interrupt>:
  4001f0:	eb00 1181 	add.w	r1, r0, r1, lsl #6
  4001f4:	624a      	str	r2, [r1, #36]	; 0x24
  4001f6:	4770      	bx	lr

004001f8 <tc_get_status>:
  4001f8:	eb00 1181 	add.w	r1, r0, r1, lsl #6
  4001fc:	6a08      	ldr	r0, [r1, #32]
  4001fe:	4770      	bx	lr

00400200 <sysclk_init>:
  400200:	b510      	push	{r4, lr}
  400202:	480e      	ldr	r0, [pc, #56]	; (40023c <sysclk_init+0x3c>)
  400204:	4b0e      	ldr	r3, [pc, #56]	; (400240 <sysclk_init+0x40>)
  400206:	4798      	blx	r3
  400208:	2000      	movs	r0, #0
  40020a:	213e      	movs	r1, #62	; 0x3e
  40020c:	4b0d      	ldr	r3, [pc, #52]	; (400244 <sysclk_init+0x44>)
  40020e:	4798      	blx	r3
  400210:	4c0d      	ldr	r4, [pc, #52]	; (400248 <sysclk_init+0x48>)
  400212:	47a0      	blx	r4
  400214:	2800      	cmp	r0, #0
  400216:	d0fc      	beq.n	400212 <sysclk_init+0x12>
  400218:	4b0c      	ldr	r3, [pc, #48]	; (40024c <sysclk_init+0x4c>)
  40021a:	4798      	blx	r3
  40021c:	4a0c      	ldr	r2, [pc, #48]	; (400250 <sysclk_init+0x50>)
  40021e:	4b0d      	ldr	r3, [pc, #52]	; (400254 <sysclk_init+0x54>)
  400220:	629a      	str	r2, [r3, #40]	; 0x28
  400222:	4c0d      	ldr	r4, [pc, #52]	; (400258 <sysclk_init+0x58>)
  400224:	47a0      	blx	r4
  400226:	2800      	cmp	r0, #0
  400228:	d0fc      	beq.n	400224 <sysclk_init+0x24>
  40022a:	2010      	movs	r0, #16
  40022c:	4b0b      	ldr	r3, [pc, #44]	; (40025c <sysclk_init+0x5c>)
  40022e:	4798      	blx	r3
  400230:	4b0b      	ldr	r3, [pc, #44]	; (400260 <sysclk_init+0x60>)
  400232:	4798      	blx	r3
  400234:	4801      	ldr	r0, [pc, #4]	; (40023c <sysclk_init+0x3c>)
  400236:	4b02      	ldr	r3, [pc, #8]	; (400240 <sysclk_init+0x40>)
  400238:	4798      	blx	r3
  40023a:	bd10      	pop	{r4, pc}
  40023c:	07270e00 	.word	0x07270e00
  400240:	004013ad 	.word	0x004013ad
  400244:	0040110d 	.word	0x0040110d
  400248:	00401161 	.word	0x00401161
  40024c:	00401171 	.word	0x00401171
  400250:	20133f01 	.word	0x20133f01
  400254:	400e0400 	.word	0x400e0400
  400258:	00401181 	.word	0x00401181
  40025c:	004010a5 	.word	0x004010a5
  400260:	00401299 	.word	0x00401299

00400264 <board_init>:
  400264:	b538      	push	{r3, r4, r5, lr}
  400266:	f44f 4200 	mov.w	r2, #32768	; 0x8000
  40026a:	4b24      	ldr	r3, [pc, #144]	; (4002fc <board_init+0x98>)
  40026c:	605a      	str	r2, [r3, #4]
  40026e:	200b      	movs	r0, #11
  400270:	4c23      	ldr	r4, [pc, #140]	; (400300 <board_init+0x9c>)
  400272:	47a0      	blx	r4
  400274:	200c      	movs	r0, #12
  400276:	47a0      	blx	r4
  400278:	200d      	movs	r0, #13
  40027a:	47a0      	blx	r4
  40027c:	2013      	movs	r0, #19
  40027e:	f04f 5160 	mov.w	r1, #939524096	; 0x38000000
  400282:	4c20      	ldr	r4, [pc, #128]	; (400304 <board_init+0xa0>)
  400284:	47a0      	blx	r4
  400286:	2014      	movs	r0, #20
  400288:	f04f 5160 	mov.w	r1, #939524096	; 0x38000000
  40028c:	47a0      	blx	r4
  40028e:	2023      	movs	r0, #35	; 0x23
  400290:	491d      	ldr	r1, [pc, #116]	; (400308 <board_init+0xa4>)
  400292:	47a0      	blx	r4
  400294:	204c      	movs	r0, #76	; 0x4c
  400296:	491d      	ldr	r1, [pc, #116]	; (40030c <board_init+0xa8>)
  400298:	47a0      	blx	r4
  40029a:	481d      	ldr	r0, [pc, #116]	; (400310 <board_init+0xac>)
  40029c:	f44f 61c0 	mov.w	r1, #1536	; 0x600
  4002a0:	f04f 6200 	mov.w	r2, #134217728	; 0x8000000
  4002a4:	4b1b      	ldr	r3, [pc, #108]	; (400314 <board_init+0xb0>)
  4002a6:	4798      	blx	r3
  4002a8:	4d1b      	ldr	r5, [pc, #108]	; (400318 <board_init+0xb4>)
  4002aa:	2040      	movs	r0, #64	; 0x40
  4002ac:	4629      	mov	r1, r5
  4002ae:	47a0      	blx	r4
  4002b0:	2041      	movs	r0, #65	; 0x41
  4002b2:	4629      	mov	r1, r5
  4002b4:	47a0      	blx	r4
  4002b6:	2042      	movs	r0, #66	; 0x42
  4002b8:	4629      	mov	r1, r5
  4002ba:	47a0      	blx	r4
  4002bc:	2043      	movs	r0, #67	; 0x43
  4002be:	4629      	mov	r1, r5
  4002c0:	47a0      	blx	r4
  4002c2:	2044      	movs	r0, #68	; 0x44
  4002c4:	4629      	mov	r1, r5
  4002c6:	47a0      	blx	r4
  4002c8:	2045      	movs	r0, #69	; 0x45
  4002ca:	4629      	mov	r1, r5
  4002cc:	47a0      	blx	r4
  4002ce:	2046      	movs	r0, #70	; 0x46
  4002d0:	4629      	mov	r1, r5
  4002d2:	47a0      	blx	r4
  4002d4:	2047      	movs	r0, #71	; 0x47
  4002d6:	4629      	mov	r1, r5
  4002d8:	47a0      	blx	r4
  4002da:	204b      	movs	r0, #75	; 0x4b
  4002dc:	4629      	mov	r1, r5
  4002de:	47a0      	blx	r4
  4002e0:	2048      	movs	r0, #72	; 0x48
  4002e2:	4629      	mov	r1, r5
  4002e4:	47a0      	blx	r4
  4002e6:	204f      	movs	r0, #79	; 0x4f
  4002e8:	4629      	mov	r1, r5
  4002ea:	47a0      	blx	r4
  4002ec:	2053      	movs	r0, #83	; 0x53
  4002ee:	4629      	mov	r1, r5
  4002f0:	47a0      	blx	r4
  4002f2:	204d      	movs	r0, #77	; 0x4d
  4002f4:	f04f 5140 	mov.w	r1, #805306368	; 0x30000000
  4002f8:	47a0      	blx	r4
  4002fa:	bd38      	pop	{r3, r4, r5, pc}
  4002fc:	400e1450 	.word	0x400e1450
  400300:	00401191 	.word	0x00401191
  400304:	00400e01 	.word	0x00400e01
  400308:	28000079 	.word	0x28000079
  40030c:	28000059 	.word	0x28000059
  400310:	400e0e00 	.word	0x400e0e00
  400314:	00400f25 	.word	0x00400f25
  400318:	08000001 	.word	0x08000001

0040031c <aat31xx_set_backlight>:
  40031c:	b470      	push	{r4, r5, r6}
  40031e:	b083      	sub	sp, #12
  400320:	f1c0 0011 	rsb	r0, r0, #17
  400324:	2810      	cmp	r0, #16
  400326:	bf28      	it	cs
  400328:	2010      	movcs	r0, #16
  40032a:	2800      	cmp	r0, #0
  40032c:	bf08      	it	eq
  40032e:	2001      	moveq	r0, #1
  400330:	2100      	movs	r1, #0
  400332:	4e10      	ldr	r6, [pc, #64]	; (400374 <aat31xx_set_backlight+0x58>)
  400334:	f44f 5500 	mov.w	r5, #8192	; 0x2000
  400338:	2418      	movs	r4, #24
  40033a:	6375      	str	r5, [r6, #52]	; 0x34
  40033c:	9401      	str	r4, [sp, #4]
  40033e:	9b01      	ldr	r3, [sp, #4]
  400340:	1e5a      	subs	r2, r3, #1
  400342:	9201      	str	r2, [sp, #4]
  400344:	2b00      	cmp	r3, #0
  400346:	d1fa      	bne.n	40033e <aat31xx_set_backlight+0x22>
  400348:	6335      	str	r5, [r6, #48]	; 0x30
  40034a:	9401      	str	r4, [sp, #4]
  40034c:	9b01      	ldr	r3, [sp, #4]
  40034e:	1e5a      	subs	r2, r3, #1
  400350:	9201      	str	r2, [sp, #4]
  400352:	2b00      	cmp	r3, #0
  400354:	d1fa      	bne.n	40034c <aat31xx_set_backlight+0x30>
  400356:	3101      	adds	r1, #1
  400358:	4281      	cmp	r1, r0
  40035a:	d3ee      	bcc.n	40033a <aat31xx_set_backlight+0x1e>
  40035c:	f44f 3300 	mov.w	r3, #131072	; 0x20000
  400360:	9301      	str	r3, [sp, #4]
  400362:	9b01      	ldr	r3, [sp, #4]
  400364:	1e5a      	subs	r2, r3, #1
  400366:	9201      	str	r2, [sp, #4]
  400368:	2b00      	cmp	r3, #0
  40036a:	d1fa      	bne.n	400362 <aat31xx_set_backlight+0x46>
  40036c:	b003      	add	sp, #12
  40036e:	bc70      	pop	{r4, r5, r6}
  400370:	4770      	bx	lr
  400372:	bf00      	nop
  400374:	400e1200 	.word	0x400e1200

00400378 <aat31xx_disable_backlight>:
  400378:	b082      	sub	sp, #8
  40037a:	f44f 5200 	mov.w	r2, #8192	; 0x2000
  40037e:	4b06      	ldr	r3, [pc, #24]	; (400398 <aat31xx_disable_backlight+0x20>)
  400380:	635a      	str	r2, [r3, #52]	; 0x34
  400382:	f44f 3300 	mov.w	r3, #131072	; 0x20000
  400386:	9301      	str	r3, [sp, #4]
  400388:	9b01      	ldr	r3, [sp, #4]
  40038a:	1e5a      	subs	r2, r3, #1
  40038c:	9201      	str	r2, [sp, #4]
  40038e:	2b00      	cmp	r3, #0
  400390:	d1fa      	bne.n	400388 <aat31xx_disable_backlight+0x10>
  400392:	b002      	add	sp, #8
  400394:	4770      	bx	lr
  400396:	bf00      	nop
  400398:	400e1200 	.word	0x400e1200

0040039c <ili93xx_write_ram_prepare>:
  40039c:	4b0a      	ldr	r3, [pc, #40]	; (4003c8 <ili93xx_write_ram_prepare+0x2c>)
  40039e:	781b      	ldrb	r3, [r3, #0]
  4003a0:	2b01      	cmp	r3, #1
  4003a2:	d106      	bne.n	4003b2 <ili93xx_write_ram_prepare+0x16>
  4003a4:	f04f 43c2 	mov.w	r3, #1627389952	; 0x61000000
  4003a8:	2200      	movs	r2, #0
  4003aa:	701a      	strb	r2, [r3, #0]
  4003ac:	2222      	movs	r2, #34	; 0x22
  4003ae:	701a      	strb	r2, [r3, #0]
  4003b0:	4770      	bx	lr
  4003b2:	2b02      	cmp	r3, #2
  4003b4:	d107      	bne.n	4003c6 <ili93xx_write_ram_prepare+0x2a>
  4003b6:	f04f 43c2 	mov.w	r3, #1627389952	; 0x61000000
  4003ba:	222c      	movs	r2, #44	; 0x2c
  4003bc:	701a      	strb	r2, [r3, #0]
  4003be:	2200      	movs	r2, #0
  4003c0:	701a      	strb	r2, [r3, #0]
  4003c2:	223c      	movs	r2, #60	; 0x3c
  4003c4:	701a      	strb	r2, [r3, #0]
  4003c6:	4770      	bx	lr
  4003c8:	20000c60 	.word	0x20000c60

004003cc <ili93xx_write_ram>:
  4003cc:	f3c0 4207 	ubfx	r2, r0, #16, #8
  4003d0:	4b03      	ldr	r3, [pc, #12]	; (4003e0 <ili93xx_write_ram+0x14>)
  4003d2:	701a      	strb	r2, [r3, #0]
  4003d4:	f3c0 2207 	ubfx	r2, r0, #8, #8
  4003d8:	701a      	strb	r2, [r3, #0]
  4003da:	b2c0      	uxtb	r0, r0
  4003dc:	7018      	strb	r0, [r3, #0]
  4003de:	4770      	bx	lr
  4003e0:	61000002 	.word	0x61000002

004003e4 <ili93xx_write_ram_buffer>:
  4003e4:	e92d 43f8 	stmdb	sp!, {r3, r4, r5, r6, r7, r8, r9, lr}
  4003e8:	4607      	mov	r7, r0
  4003ea:	4688      	mov	r8, r1
  4003ec:	f031 0907 	bics.w	r9, r1, #7
  4003f0:	d018      	beq.n	400424 <ili93xx_write_ram_buffer+0x40>
  4003f2:	4604      	mov	r4, r0
  4003f4:	2600      	movs	r6, #0
  4003f6:	4d12      	ldr	r5, [pc, #72]	; (400440 <ili93xx_write_ram_buffer+0x5c>)
  4003f8:	f857 0026 	ldr.w	r0, [r7, r6, lsl #2]
  4003fc:	47a8      	blx	r5
  4003fe:	6860      	ldr	r0, [r4, #4]
  400400:	47a8      	blx	r5
  400402:	68a0      	ldr	r0, [r4, #8]
  400404:	47a8      	blx	r5
  400406:	68e0      	ldr	r0, [r4, #12]
  400408:	47a8      	blx	r5
  40040a:	6920      	ldr	r0, [r4, #16]
  40040c:	47a8      	blx	r5
  40040e:	6960      	ldr	r0, [r4, #20]
  400410:	47a8      	blx	r5
  400412:	69a0      	ldr	r0, [r4, #24]
  400414:	47a8      	blx	r5
  400416:	69e0      	ldr	r0, [r4, #28]
  400418:	47a8      	blx	r5
  40041a:	3608      	adds	r6, #8
  40041c:	3420      	adds	r4, #32
  40041e:	454e      	cmp	r6, r9
  400420:	d3ea      	bcc.n	4003f8 <ili93xx_write_ram_buffer+0x14>
  400422:	e000      	b.n	400426 <ili93xx_write_ram_buffer+0x42>
  400424:	2600      	movs	r6, #0
  400426:	45b0      	cmp	r8, r6
  400428:	d908      	bls.n	40043c <ili93xx_write_ram_buffer+0x58>
  40042a:	eb07 0486 	add.w	r4, r7, r6, lsl #2
  40042e:	4d04      	ldr	r5, [pc, #16]	; (400440 <ili93xx_write_ram_buffer+0x5c>)
  400430:	f854 0b04 	ldr.w	r0, [r4], #4
  400434:	47a8      	blx	r5
  400436:	3601      	adds	r6, #1
  400438:	45b0      	cmp	r8, r6
  40043a:	d8f9      	bhi.n	400430 <ili93xx_write_ram_buffer+0x4c>
  40043c:	e8bd 83f8 	ldmia.w	sp!, {r3, r4, r5, r6, r7, r8, r9, pc}
  400440:	004003cd 	.word	0x004003cd

00400444 <ili93xx_write_register_word>:
  400444:	f04f 43c2 	mov.w	r3, #1627389952	; 0x61000000
  400448:	2200      	movs	r2, #0
  40044a:	701a      	strb	r2, [r3, #0]
  40044c:	7018      	strb	r0, [r3, #0]
  40044e:	0a0a      	lsrs	r2, r1, #8
  400450:	3302      	adds	r3, #2
  400452:	701a      	strb	r2, [r3, #0]
  400454:	b2c9      	uxtb	r1, r1
  400456:	7019      	strb	r1, [r3, #0]
  400458:	4770      	bx	lr
  40045a:	bf00      	nop

0040045c <ili93xx_write_register>:
  40045c:	b410      	push	{r4}
  40045e:	f04f 43c2 	mov.w	r3, #1627389952	; 0x61000000
  400462:	2400      	movs	r4, #0
  400464:	701c      	strb	r4, [r3, #0]
  400466:	7018      	strb	r0, [r3, #0]
  400468:	b14a      	cbz	r2, 40047e <ili93xx_write_register+0x22>
  40046a:	1e4b      	subs	r3, r1, #1
  40046c:	1e50      	subs	r0, r2, #1
  40046e:	fa51 f180 	uxtab	r1, r1, r0
  400472:	4804      	ldr	r0, [pc, #16]	; (400484 <ili93xx_write_register+0x28>)
  400474:	f813 2f01 	ldrb.w	r2, [r3, #1]!
  400478:	7002      	strb	r2, [r0, #0]
  40047a:	428b      	cmp	r3, r1
  40047c:	d1fa      	bne.n	400474 <ili93xx_write_register+0x18>
  40047e:	f85d 4b04 	ldr.w	r4, [sp], #4
  400482:	4770      	bx	lr
  400484:	61000002 	.word	0x61000002

00400488 <ili93xx_delay>:
  400488:	b082      	sub	sp, #8
  40048a:	2300      	movs	r3, #0
  40048c:	9301      	str	r3, [sp, #4]
  40048e:	9b01      	ldr	r3, [sp, #4]
  400490:	4298      	cmp	r0, r3
  400492:	d911      	bls.n	4004b8 <ili93xx_delay+0x30>
  400494:	2100      	movs	r1, #0
  400496:	4a09      	ldr	r2, [pc, #36]	; (4004bc <ili93xx_delay+0x34>)
  400498:	9101      	str	r1, [sp, #4]
  40049a:	9b01      	ldr	r3, [sp, #4]
  40049c:	4293      	cmp	r3, r2
  40049e:	d805      	bhi.n	4004ac <ili93xx_delay+0x24>
  4004a0:	9b01      	ldr	r3, [sp, #4]
  4004a2:	3301      	adds	r3, #1
  4004a4:	9301      	str	r3, [sp, #4]
  4004a6:	9b01      	ldr	r3, [sp, #4]
  4004a8:	4293      	cmp	r3, r2
  4004aa:	d9f9      	bls.n	4004a0 <ili93xx_delay+0x18>
  4004ac:	9b01      	ldr	r3, [sp, #4]
  4004ae:	3301      	adds	r3, #1
  4004b0:	9301      	str	r3, [sp, #4]
  4004b2:	9b01      	ldr	r3, [sp, #4]
  4004b4:	4283      	cmp	r3, r0
  4004b6:	d3ef      	bcc.n	400498 <ili93xx_delay+0x10>
  4004b8:	b002      	add	sp, #8
  4004ba:	4770      	bx	lr
  4004bc:	0001869f 	.word	0x0001869f

004004c0 <ili93xx_check_box_coordinates>:
  4004c0:	b430      	push	{r4, r5}
  4004c2:	4c15      	ldr	r4, [pc, #84]	; (400518 <ili93xx_check_box_coordinates+0x58>)
  4004c4:	6824      	ldr	r4, [r4, #0]
  4004c6:	6805      	ldr	r5, [r0, #0]
  4004c8:	42a5      	cmp	r5, r4
  4004ca:	bf24      	itt	cs
  4004cc:	f104 35ff 	addcs.w	r5, r4, #4294967295
  4004d0:	6005      	strcs	r5, [r0, #0]
  4004d2:	6815      	ldr	r5, [r2, #0]
  4004d4:	42ac      	cmp	r4, r5
  4004d6:	bf9c      	itt	ls
  4004d8:	f104 34ff 	addls.w	r4, r4, #4294967295
  4004dc:	6014      	strls	r4, [r2, #0]
  4004de:	4c0f      	ldr	r4, [pc, #60]	; (40051c <ili93xx_check_box_coordinates+0x5c>)
  4004e0:	6824      	ldr	r4, [r4, #0]
  4004e2:	680d      	ldr	r5, [r1, #0]
  4004e4:	42a5      	cmp	r5, r4
  4004e6:	bf24      	itt	cs
  4004e8:	f104 35ff 	addcs.w	r5, r4, #4294967295
  4004ec:	600d      	strcs	r5, [r1, #0]
  4004ee:	681d      	ldr	r5, [r3, #0]
  4004f0:	42ac      	cmp	r4, r5
  4004f2:	bf9c      	itt	ls
  4004f4:	f104 34ff 	addls.w	r4, r4, #4294967295
  4004f8:	601c      	strls	r4, [r3, #0]
  4004fa:	6804      	ldr	r4, [r0, #0]
  4004fc:	6815      	ldr	r5, [r2, #0]
  4004fe:	42ac      	cmp	r4, r5
  400500:	bf84      	itt	hi
  400502:	6005      	strhi	r5, [r0, #0]
  400504:	6014      	strhi	r4, [r2, #0]
  400506:	680a      	ldr	r2, [r1, #0]
  400508:	6818      	ldr	r0, [r3, #0]
  40050a:	4282      	cmp	r2, r0
  40050c:	bf84      	itt	hi
  40050e:	6008      	strhi	r0, [r1, #0]
  400510:	601a      	strhi	r2, [r3, #0]
  400512:	bc30      	pop	{r4, r5}
  400514:	4770      	bx	lr
  400516:	bf00      	nop
  400518:	20000000 	.word	0x20000000
  40051c:	20000004 	.word	0x20000004

00400520 <ili93xx_device_type_identify>:
  400520:	b082      	sub	sp, #8
  400522:	f04f 43c2 	mov.w	r3, #1627389952	; 0x61000000
  400526:	2200      	movs	r2, #0
  400528:	701a      	strb	r2, [r3, #0]
  40052a:	22d3      	movs	r2, #211	; 0xd3
  40052c:	701a      	strb	r2, [r3, #0]
  40052e:	3302      	adds	r3, #2
  400530:	781a      	ldrb	r2, [r3, #0]
  400532:	f88d 2000 	strb.w	r2, [sp]
  400536:	781a      	ldrb	r2, [r3, #0]
  400538:	f88d 2001 	strb.w	r2, [sp, #1]
  40053c:	781a      	ldrb	r2, [r3, #0]
  40053e:	f88d 2002 	strb.w	r2, [sp, #2]
  400542:	781b      	ldrb	r3, [r3, #0]
  400544:	b2db      	uxtb	r3, r3
  400546:	f88d 3003 	strb.w	r3, [sp, #3]
  40054a:	b2d2      	uxtb	r2, r2
  40054c:	eb03 2302 	add.w	r3, r3, r2, lsl #8
  400550:	b29b      	uxth	r3, r3
  400552:	f249 3241 	movw	r2, #37697	; 0x9341
  400556:	4293      	cmp	r3, r2
  400558:	d104      	bne.n	400564 <ili93xx_device_type_identify+0x44>
  40055a:	2202      	movs	r2, #2
  40055c:	4b0e      	ldr	r3, [pc, #56]	; (400598 <ili93xx_device_type_identify+0x78>)
  40055e:	701a      	strb	r2, [r3, #0]
  400560:	2000      	movs	r0, #0
  400562:	e017      	b.n	400594 <ili93xx_device_type_identify+0x74>
  400564:	f04f 43c2 	mov.w	r3, #1627389952	; 0x61000000
  400568:	2200      	movs	r2, #0
  40056a:	701a      	strb	r2, [r3, #0]
  40056c:	701a      	strb	r2, [r3, #0]
  40056e:	3302      	adds	r3, #2
  400570:	781a      	ldrb	r2, [r3, #0]
  400572:	f88d 2000 	strb.w	r2, [sp]
  400576:	781b      	ldrb	r3, [r3, #0]
  400578:	b2d2      	uxtb	r2, r2
  40057a:	eb03 2302 	add.w	r3, r3, r2, lsl #8
  40057e:	b29b      	uxth	r3, r3
  400580:	f249 3225 	movw	r2, #37669	; 0x9325
  400584:	4293      	cmp	r3, r2
  400586:	d104      	bne.n	400592 <ili93xx_device_type_identify+0x72>
  400588:	2201      	movs	r2, #1
  40058a:	4b03      	ldr	r3, [pc, #12]	; (400598 <ili93xx_device_type_identify+0x78>)
  40058c:	701a      	strb	r2, [r3, #0]
  40058e:	2000      	movs	r0, #0
  400590:	e000      	b.n	400594 <ili93xx_device_type_identify+0x74>
  400592:	2001      	movs	r0, #1
  400594:	b002      	add	sp, #8
  400596:	4770      	bx	lr
  400598:	20000c60 	.word	0x20000c60

0040059c <ili93xx_display_on>:
  40059c:	b508      	push	{r3, lr}
  40059e:	4b09      	ldr	r3, [pc, #36]	; (4005c4 <ili93xx_display_on+0x28>)
  4005a0:	781b      	ldrb	r3, [r3, #0]
  4005a2:	2b01      	cmp	r3, #1
  4005a4:	d105      	bne.n	4005b2 <ili93xx_display_on+0x16>
  4005a6:	2007      	movs	r0, #7
  4005a8:	f240 1133 	movw	r1, #307	; 0x133
  4005ac:	4b06      	ldr	r3, [pc, #24]	; (4005c8 <ili93xx_display_on+0x2c>)
  4005ae:	4798      	blx	r3
  4005b0:	bd08      	pop	{r3, pc}
  4005b2:	2b02      	cmp	r3, #2
  4005b4:	d104      	bne.n	4005c0 <ili93xx_display_on+0x24>
  4005b6:	2029      	movs	r0, #41	; 0x29
  4005b8:	2100      	movs	r1, #0
  4005ba:	460a      	mov	r2, r1
  4005bc:	4b03      	ldr	r3, [pc, #12]	; (4005cc <ili93xx_display_on+0x30>)
  4005be:	4798      	blx	r3
  4005c0:	bd08      	pop	{r3, pc}
  4005c2:	bf00      	nop
  4005c4:	20000c60 	.word	0x20000c60
  4005c8:	00400445 	.word	0x00400445
  4005cc:	0040045d 	.word	0x0040045d

004005d0 <ili93xx_set_foreground_color>:
  4005d0:	4a04      	ldr	r2, [pc, #16]	; (4005e4 <ili93xx_set_foreground_color+0x14>)
  4005d2:	1f13      	subs	r3, r2, #4
  4005d4:	f502 726f 	add.w	r2, r2, #956	; 0x3bc
  4005d8:	f843 0f04 	str.w	r0, [r3, #4]!
  4005dc:	4293      	cmp	r3, r2
  4005de:	d1fb      	bne.n	4005d8 <ili93xx_set_foreground_color+0x8>
  4005e0:	4770      	bx	lr
  4005e2:	bf00      	nop
  4005e4:	200008a0 	.word	0x200008a0

004005e8 <ili93xx_set_window>:
  4005e8:	e92d 41f0 	stmdb	sp!, {r4, r5, r6, r7, r8, lr}
  4005ec:	b082      	sub	sp, #8
  4005ee:	460c      	mov	r4, r1
  4005f0:	4617      	mov	r7, r2
  4005f2:	461e      	mov	r6, r3
  4005f4:	4b22      	ldr	r3, [pc, #136]	; (400680 <ili93xx_set_window+0x98>)
  4005f6:	781b      	ldrb	r3, [r3, #0]
  4005f8:	2b01      	cmp	r3, #1
  4005fa:	d114      	bne.n	400626 <ili93xx_set_window+0x3e>
  4005fc:	b285      	uxth	r5, r0
  4005fe:	2050      	movs	r0, #80	; 0x50
  400600:	4629      	mov	r1, r5
  400602:	f8df 8084 	ldr.w	r8, [pc, #132]	; 400688 <ili93xx_set_window+0xa0>
  400606:	47c0      	blx	r8
  400608:	1e79      	subs	r1, r7, #1
  40060a:	4429      	add	r1, r5
  40060c:	2051      	movs	r0, #81	; 0x51
  40060e:	b289      	uxth	r1, r1
  400610:	47c0      	blx	r8
  400612:	b2a4      	uxth	r4, r4
  400614:	2052      	movs	r0, #82	; 0x52
  400616:	4621      	mov	r1, r4
  400618:	47c0      	blx	r8
  40061a:	1e71      	subs	r1, r6, #1
  40061c:	4421      	add	r1, r4
  40061e:	2053      	movs	r0, #83	; 0x53
  400620:	b289      	uxth	r1, r1
  400622:	47c0      	blx	r8
  400624:	e028      	b.n	400678 <ili93xx_set_window+0x90>
  400626:	2b02      	cmp	r3, #2
  400628:	d126      	bne.n	400678 <ili93xx_set_window+0x90>
  40062a:	0a03      	lsrs	r3, r0, #8
  40062c:	f88d 3004 	strb.w	r3, [sp, #4]
  400630:	b2c3      	uxtb	r3, r0
  400632:	f88d 3005 	strb.w	r3, [sp, #5]
  400636:	3a01      	subs	r2, #1
  400638:	4410      	add	r0, r2
  40063a:	0a00      	lsrs	r0, r0, #8
  40063c:	f88d 0006 	strb.w	r0, [sp, #6]
  400640:	4617      	mov	r7, r2
  400642:	441f      	add	r7, r3
  400644:	f88d 7007 	strb.w	r7, [sp, #7]
  400648:	202a      	movs	r0, #42	; 0x2a
  40064a:	a901      	add	r1, sp, #4
  40064c:	2204      	movs	r2, #4
  40064e:	4d0d      	ldr	r5, [pc, #52]	; (400684 <ili93xx_set_window+0x9c>)
  400650:	47a8      	blx	r5
  400652:	0a23      	lsrs	r3, r4, #8
  400654:	f88d 3004 	strb.w	r3, [sp, #4]
  400658:	b2e3      	uxtb	r3, r4
  40065a:	f88d 3005 	strb.w	r3, [sp, #5]
  40065e:	1e72      	subs	r2, r6, #1
  400660:	4414      	add	r4, r2
  400662:	0a24      	lsrs	r4, r4, #8
  400664:	f88d 4006 	strb.w	r4, [sp, #6]
  400668:	4616      	mov	r6, r2
  40066a:	441e      	add	r6, r3
  40066c:	f88d 6007 	strb.w	r6, [sp, #7]
  400670:	202b      	movs	r0, #43	; 0x2b
  400672:	a901      	add	r1, sp, #4
  400674:	2204      	movs	r2, #4
  400676:	47a8      	blx	r5
  400678:	b002      	add	sp, #8
  40067a:	e8bd 81f0 	ldmia.w	sp!, {r4, r5, r6, r7, r8, pc}
  40067e:	bf00      	nop
  400680:	20000c60 	.word	0x20000c60
  400684:	0040045d 	.word	0x0040045d
  400688:	00400445 	.word	0x00400445

0040068c <ili93xx_set_cursor_position>:
  40068c:	b538      	push	{r3, r4, r5, lr}
  40068e:	4b06      	ldr	r3, [pc, #24]	; (4006a8 <ili93xx_set_cursor_position+0x1c>)
  400690:	781b      	ldrb	r3, [r3, #0]
  400692:	2b01      	cmp	r3, #1
  400694:	d107      	bne.n	4006a6 <ili93xx_set_cursor_position+0x1a>
  400696:	460c      	mov	r4, r1
  400698:	4601      	mov	r1, r0
  40069a:	2020      	movs	r0, #32
  40069c:	4d03      	ldr	r5, [pc, #12]	; (4006ac <ili93xx_set_cursor_position+0x20>)
  40069e:	47a8      	blx	r5
  4006a0:	2021      	movs	r0, #33	; 0x21
  4006a2:	4621      	mov	r1, r4
  4006a4:	47a8      	blx	r5
  4006a6:	bd38      	pop	{r3, r4, r5, pc}
  4006a8:	20000c60 	.word	0x20000c60
  4006ac:	00400445 	.word	0x00400445

004006b0 <ili93xx_init>:
  4006b0:	e92d 43f0 	stmdb	sp!, {r4, r5, r6, r7, r8, r9, lr}
  4006b4:	b083      	sub	sp, #12
  4006b6:	4606      	mov	r6, r0
  4006b8:	4bac      	ldr	r3, [pc, #688]	; (40096c <ili93xx_init+0x2bc>)
  4006ba:	4798      	blx	r3
  4006bc:	2800      	cmp	r0, #0
  4006be:	f040 814f 	bne.w	400960 <ili93xx_init+0x2b0>
  4006c2:	22f0      	movs	r2, #240	; 0xf0
  4006c4:	4baa      	ldr	r3, [pc, #680]	; (400970 <ili93xx_init+0x2c0>)
  4006c6:	601a      	str	r2, [r3, #0]
  4006c8:	f44f 72a0 	mov.w	r2, #320	; 0x140
  4006cc:	4ba9      	ldr	r3, [pc, #676]	; (400974 <ili93xx_init+0x2c4>)
  4006ce:	601a      	str	r2, [r3, #0]
  4006d0:	4ba9      	ldr	r3, [pc, #676]	; (400978 <ili93xx_init+0x2c8>)
  4006d2:	781b      	ldrb	r3, [r3, #0]
  4006d4:	2b01      	cmp	r3, #1
  4006d6:	f040 80b1 	bne.w	40083c <ili93xx_init+0x18c>
  4006da:	2007      	movs	r0, #7
  4006dc:	2133      	movs	r1, #51	; 0x33
  4006de:	4ca7      	ldr	r4, [pc, #668]	; (40097c <ili93xx_init+0x2cc>)
  4006e0:	47a0      	blx	r4
  4006e2:	2010      	movs	r0, #16
  4006e4:	2100      	movs	r1, #0
  4006e6:	47a0      	blx	r4
  4006e8:	2000      	movs	r0, #0
  4006ea:	2101      	movs	r1, #1
  4006ec:	47a0      	blx	r4
  4006ee:	2001      	movs	r0, #1
  4006f0:	f44f 7180 	mov.w	r1, #256	; 0x100
  4006f4:	47a0      	blx	r4
  4006f6:	2002      	movs	r0, #2
  4006f8:	f44f 61e0 	mov.w	r1, #1792	; 0x700
  4006fc:	47a0      	blx	r4
  4006fe:	2004      	movs	r0, #4
  400700:	2100      	movs	r1, #0
  400702:	47a0      	blx	r4
  400704:	2008      	movs	r0, #8
  400706:	f240 2107 	movw	r1, #519	; 0x207
  40070a:	47a0      	blx	r4
  40070c:	2009      	movs	r0, #9
  40070e:	2100      	movs	r1, #0
  400710:	47a0      	blx	r4
  400712:	200a      	movs	r0, #10
  400714:	2100      	movs	r1, #0
  400716:	47a0      	blx	r4
  400718:	200c      	movs	r0, #12
  40071a:	2100      	movs	r1, #0
  40071c:	47a0      	blx	r4
  40071e:	200d      	movs	r0, #13
  400720:	2100      	movs	r1, #0
  400722:	47a0      	blx	r4
  400724:	200f      	movs	r0, #15
  400726:	2100      	movs	r1, #0
  400728:	47a0      	blx	r4
  40072a:	2010      	movs	r0, #16
  40072c:	2100      	movs	r1, #0
  40072e:	47a0      	blx	r4
  400730:	2011      	movs	r0, #17
  400732:	2100      	movs	r1, #0
  400734:	47a0      	blx	r4
  400736:	2012      	movs	r0, #18
  400738:	2100      	movs	r1, #0
  40073a:	47a0      	blx	r4
  40073c:	2013      	movs	r0, #19
  40073e:	2100      	movs	r1, #0
  400740:	47a0      	blx	r4
  400742:	20c8      	movs	r0, #200	; 0xc8
  400744:	4d8e      	ldr	r5, [pc, #568]	; (400980 <ili93xx_init+0x2d0>)
  400746:	47a8      	blx	r5
  400748:	2010      	movs	r0, #16
  40074a:	f241 2190 	movw	r1, #4752	; 0x1290
  40074e:	47a0      	blx	r4
  400750:	2011      	movs	r0, #17
  400752:	f240 2127 	movw	r1, #551	; 0x227
  400756:	47a0      	blx	r4
  400758:	2032      	movs	r0, #50	; 0x32
  40075a:	47a8      	blx	r5
  40075c:	2012      	movs	r0, #18
  40075e:	211b      	movs	r1, #27
  400760:	47a0      	blx	r4
  400762:	2032      	movs	r0, #50	; 0x32
  400764:	47a8      	blx	r5
  400766:	2013      	movs	r0, #19
  400768:	f44f 5188 	mov.w	r1, #4352	; 0x1100
  40076c:	47a0      	blx	r4
  40076e:	2029      	movs	r0, #41	; 0x29
  400770:	2119      	movs	r1, #25
  400772:	47a0      	blx	r4
  400774:	202b      	movs	r0, #43	; 0x2b
  400776:	210d      	movs	r1, #13
  400778:	47a0      	blx	r4
  40077a:	2032      	movs	r0, #50	; 0x32
  40077c:	47a8      	blx	r5
  40077e:	2030      	movs	r0, #48	; 0x30
  400780:	2100      	movs	r1, #0
  400782:	47a0      	blx	r4
  400784:	2031      	movs	r0, #49	; 0x31
  400786:	f44f 7101 	mov.w	r1, #516	; 0x204
  40078a:	47a0      	blx	r4
  40078c:	2032      	movs	r0, #50	; 0x32
  40078e:	f44f 7100 	mov.w	r1, #512	; 0x200
  400792:	47a0      	blx	r4
  400794:	2035      	movs	r0, #53	; 0x35
  400796:	2107      	movs	r1, #7
  400798:	47a0      	blx	r4
  40079a:	2036      	movs	r0, #54	; 0x36
  40079c:	f241 4104 	movw	r1, #5124	; 0x1404
  4007a0:	47a0      	blx	r4
  4007a2:	2037      	movs	r0, #55	; 0x37
  4007a4:	f240 7105 	movw	r1, #1797	; 0x705
  4007a8:	47a0      	blx	r4
  4007aa:	2038      	movs	r0, #56	; 0x38
  4007ac:	f240 3105 	movw	r1, #773	; 0x305
  4007b0:	47a0      	blx	r4
  4007b2:	2039      	movs	r0, #57	; 0x39
  4007b4:	f240 7107 	movw	r1, #1799	; 0x707
  4007b8:	47a0      	blx	r4
  4007ba:	203c      	movs	r0, #60	; 0x3c
  4007bc:	f240 7101 	movw	r1, #1793	; 0x701
  4007c0:	47a0      	blx	r4
  4007c2:	203d      	movs	r0, #61	; 0x3d
  4007c4:	210e      	movs	r1, #14
  4007c6:	47a0      	blx	r4
  4007c8:	2003      	movs	r0, #3
  4007ca:	f24d 0110 	movw	r1, #53264	; 0xd010
  4007ce:	47a0      	blx	r4
  4007d0:	2060      	movs	r0, #96	; 0x60
  4007d2:	f44f 4127 	mov.w	r1, #42752	; 0xa700
  4007d6:	47a0      	blx	r4
  4007d8:	2061      	movs	r0, #97	; 0x61
  4007da:	2101      	movs	r1, #1
  4007dc:	47a0      	blx	r4
  4007de:	206a      	movs	r0, #106	; 0x6a
  4007e0:	2100      	movs	r1, #0
  4007e2:	47a0      	blx	r4
  4007e4:	2080      	movs	r0, #128	; 0x80
  4007e6:	2100      	movs	r1, #0
  4007e8:	47a0      	blx	r4
  4007ea:	2081      	movs	r0, #129	; 0x81
  4007ec:	2100      	movs	r1, #0
  4007ee:	47a0      	blx	r4
  4007f0:	2082      	movs	r0, #130	; 0x82
  4007f2:	2100      	movs	r1, #0
  4007f4:	47a0      	blx	r4
  4007f6:	2083      	movs	r0, #131	; 0x83
  4007f8:	2100      	movs	r1, #0
  4007fa:	47a0      	blx	r4
  4007fc:	2084      	movs	r0, #132	; 0x84
  4007fe:	2100      	movs	r1, #0
  400800:	47a0      	blx	r4
  400802:	2085      	movs	r0, #133	; 0x85
  400804:	2100      	movs	r1, #0
  400806:	47a0      	blx	r4
  400808:	2090      	movs	r0, #144	; 0x90
  40080a:	2110      	movs	r1, #16
  40080c:	47a0      	blx	r4
  40080e:	2092      	movs	r0, #146	; 0x92
  400810:	f44f 61c0 	mov.w	r1, #1536	; 0x600
  400814:	47a0      	blx	r4
  400816:	2095      	movs	r0, #149	; 0x95
  400818:	f44f 7188 	mov.w	r1, #272	; 0x110
  40081c:	47a0      	blx	r4
  40081e:	2000      	movs	r0, #0
  400820:	4601      	mov	r1, r0
  400822:	6832      	ldr	r2, [r6, #0]
  400824:	6873      	ldr	r3, [r6, #4]
  400826:	4c57      	ldr	r4, [pc, #348]	; (400984 <ili93xx_init+0x2d4>)
  400828:	47a0      	blx	r4
  40082a:	68b0      	ldr	r0, [r6, #8]
  40082c:	4b56      	ldr	r3, [pc, #344]	; (400988 <ili93xx_init+0x2d8>)
  40082e:	4798      	blx	r3
  400830:	2000      	movs	r0, #0
  400832:	4601      	mov	r1, r0
  400834:	4b55      	ldr	r3, [pc, #340]	; (40098c <ili93xx_init+0x2dc>)
  400836:	4798      	blx	r3
  400838:	2000      	movs	r0, #0
  40083a:	e094      	b.n	400966 <ili93xx_init+0x2b6>
  40083c:	2b02      	cmp	r3, #2
  40083e:	f040 8091 	bne.w	400964 <ili93xx_init+0x2b4>
  400842:	2339      	movs	r3, #57	; 0x39
  400844:	f88d 3000 	strb.w	r3, [sp]
  400848:	232c      	movs	r3, #44	; 0x2c
  40084a:	f88d 3001 	strb.w	r3, [sp, #1]
  40084e:	2400      	movs	r4, #0
  400850:	f88d 4002 	strb.w	r4, [sp, #2]
  400854:	2334      	movs	r3, #52	; 0x34
  400856:	f88d 3003 	strb.w	r3, [sp, #3]
  40085a:	2702      	movs	r7, #2
  40085c:	f88d 7004 	strb.w	r7, [sp, #4]
  400860:	20cb      	movs	r0, #203	; 0xcb
  400862:	4669      	mov	r1, sp
  400864:	2205      	movs	r2, #5
  400866:	4d4a      	ldr	r5, [pc, #296]	; (400990 <ili93xx_init+0x2e0>)
  400868:	47a8      	blx	r5
  40086a:	f88d 4000 	strb.w	r4, [sp]
  40086e:	23aa      	movs	r3, #170	; 0xaa
  400870:	f88d 3001 	strb.w	r3, [sp, #1]
  400874:	23b0      	movs	r3, #176	; 0xb0
  400876:	f88d 3002 	strb.w	r3, [sp, #2]
  40087a:	20cf      	movs	r0, #207	; 0xcf
  40087c:	4669      	mov	r1, sp
  40087e:	2203      	movs	r2, #3
  400880:	47a8      	blx	r5
  400882:	2330      	movs	r3, #48	; 0x30
  400884:	f88d 3000 	strb.w	r3, [sp]
  400888:	20f7      	movs	r0, #247	; 0xf7
  40088a:	4669      	mov	r1, sp
  40088c:	2201      	movs	r2, #1
  40088e:	47a8      	blx	r5
  400890:	2325      	movs	r3, #37	; 0x25
  400892:	f88d 3000 	strb.w	r3, [sp]
  400896:	20c0      	movs	r0, #192	; 0xc0
  400898:	4669      	mov	r1, sp
  40089a:	2201      	movs	r2, #1
  40089c:	47a8      	blx	r5
  40089e:	f04f 0911 	mov.w	r9, #17
  4008a2:	f88d 9000 	strb.w	r9, [sp]
  4008a6:	20c1      	movs	r0, #193	; 0xc1
  4008a8:	4669      	mov	r1, sp
  4008aa:	2201      	movs	r2, #1
  4008ac:	47a8      	blx	r5
  4008ae:	235c      	movs	r3, #92	; 0x5c
  4008b0:	f88d 3000 	strb.w	r3, [sp]
  4008b4:	234c      	movs	r3, #76	; 0x4c
  4008b6:	f88d 3001 	strb.w	r3, [sp, #1]
  4008ba:	20c5      	movs	r0, #197	; 0xc5
  4008bc:	4669      	mov	r1, sp
  4008be:	463a      	mov	r2, r7
  4008c0:	47a8      	blx	r5
  4008c2:	2394      	movs	r3, #148	; 0x94
  4008c4:	f88d 3000 	strb.w	r3, [sp]
  4008c8:	20c7      	movs	r0, #199	; 0xc7
  4008ca:	4669      	mov	r1, sp
  4008cc:	2201      	movs	r2, #1
  4008ce:	47a8      	blx	r5
  4008d0:	2385      	movs	r3, #133	; 0x85
  4008d2:	f88d 3000 	strb.w	r3, [sp]
  4008d6:	f04f 0801 	mov.w	r8, #1
  4008da:	f88d 8001 	strb.w	r8, [sp, #1]
  4008de:	2378      	movs	r3, #120	; 0x78
  4008e0:	f88d 3002 	strb.w	r3, [sp, #2]
  4008e4:	20e8      	movs	r0, #232	; 0xe8
  4008e6:	4669      	mov	r1, sp
  4008e8:	2203      	movs	r2, #3
  4008ea:	47a8      	blx	r5
  4008ec:	f88d 4000 	strb.w	r4, [sp]
  4008f0:	f88d 4001 	strb.w	r4, [sp, #1]
  4008f4:	20ea      	movs	r0, #234	; 0xea
  4008f6:	4669      	mov	r1, sp
  4008f8:	463a      	mov	r2, r7
  4008fa:	47a8      	blx	r5
  4008fc:	2348      	movs	r3, #72	; 0x48
  4008fe:	f88d 3000 	strb.w	r3, [sp]
  400902:	2036      	movs	r0, #54	; 0x36
  400904:	4669      	mov	r1, sp
  400906:	4642      	mov	r2, r8
  400908:	47a8      	blx	r5
  40090a:	2306      	movs	r3, #6
  40090c:	f88d 3000 	strb.w	r3, [sp]
  400910:	203a      	movs	r0, #58	; 0x3a
  400912:	4669      	mov	r1, sp
  400914:	4642      	mov	r2, r8
  400916:	47a8      	blx	r5
  400918:	f88d 7000 	strb.w	r7, [sp]
  40091c:	2382      	movs	r3, #130	; 0x82
  40091e:	f88d 3001 	strb.w	r3, [sp, #1]
  400922:	2327      	movs	r3, #39	; 0x27
  400924:	f88d 3002 	strb.w	r3, [sp, #2]
  400928:	f88d 4003 	strb.w	r4, [sp, #3]
  40092c:	20b6      	movs	r0, #182	; 0xb6
  40092e:	4669      	mov	r1, sp
  400930:	2204      	movs	r2, #4
  400932:	47a8      	blx	r5
  400934:	4620      	mov	r0, r4
  400936:	4621      	mov	r1, r4
  400938:	6832      	ldr	r2, [r6, #0]
  40093a:	6873      	ldr	r3, [r6, #4]
  40093c:	4f11      	ldr	r7, [pc, #68]	; (400984 <ili93xx_init+0x2d4>)
  40093e:	47b8      	blx	r7
  400940:	68b0      	ldr	r0, [r6, #8]
  400942:	4b11      	ldr	r3, [pc, #68]	; (400988 <ili93xx_init+0x2d8>)
  400944:	4798      	blx	r3
  400946:	4648      	mov	r0, r9
  400948:	4669      	mov	r1, sp
  40094a:	4622      	mov	r2, r4
  40094c:	47a8      	blx	r5
  40094e:	200a      	movs	r0, #10
  400950:	4b0b      	ldr	r3, [pc, #44]	; (400980 <ili93xx_init+0x2d0>)
  400952:	4798      	blx	r3
  400954:	2029      	movs	r0, #41	; 0x29
  400956:	4669      	mov	r1, sp
  400958:	4622      	mov	r2, r4
  40095a:	47a8      	blx	r5
  40095c:	4620      	mov	r0, r4
  40095e:	e002      	b.n	400966 <ili93xx_init+0x2b6>
  400960:	2001      	movs	r0, #1
  400962:	e000      	b.n	400966 <ili93xx_init+0x2b6>
  400964:	2001      	movs	r0, #1
  400966:	b003      	add	sp, #12
  400968:	e8bd 83f0 	ldmia.w	sp!, {r4, r5, r6, r7, r8, r9, pc}
  40096c:	00400521 	.word	0x00400521
  400970:	20000000 	.word	0x20000000
  400974:	20000004 	.word	0x20000004
  400978:	20000c60 	.word	0x20000c60
  40097c:	00400445 	.word	0x00400445
  400980:	00400489 	.word	0x00400489
  400984:	004005e9 	.word	0x004005e9
  400988:	004005d1 	.word	0x004005d1
  40098c:	0040068d 	.word	0x0040068d
  400990:	0040045d 	.word	0x0040045d

00400994 <ili93xx_draw_pixel>:
  400994:	b510      	push	{r4, lr}
  400996:	4b16      	ldr	r3, [pc, #88]	; (4009f0 <ili93xx_draw_pixel+0x5c>)
  400998:	681b      	ldr	r3, [r3, #0]
  40099a:	4283      	cmp	r3, r0
  40099c:	d921      	bls.n	4009e2 <ili93xx_draw_pixel+0x4e>
  40099e:	4b15      	ldr	r3, [pc, #84]	; (4009f4 <ili93xx_draw_pixel+0x60>)
  4009a0:	681b      	ldr	r3, [r3, #0]
  4009a2:	428b      	cmp	r3, r1
  4009a4:	d91f      	bls.n	4009e6 <ili93xx_draw_pixel+0x52>
  4009a6:	4b14      	ldr	r3, [pc, #80]	; (4009f8 <ili93xx_draw_pixel+0x64>)
  4009a8:	781b      	ldrb	r3, [r3, #0]
  4009aa:	2b01      	cmp	r3, #1
  4009ac:	d10b      	bne.n	4009c6 <ili93xx_draw_pixel+0x32>
  4009ae:	b280      	uxth	r0, r0
  4009b0:	b289      	uxth	r1, r1
  4009b2:	4b12      	ldr	r3, [pc, #72]	; (4009fc <ili93xx_draw_pixel+0x68>)
  4009b4:	4798      	blx	r3
  4009b6:	4b12      	ldr	r3, [pc, #72]	; (400a00 <ili93xx_draw_pixel+0x6c>)
  4009b8:	4798      	blx	r3
  4009ba:	4b12      	ldr	r3, [pc, #72]	; (400a04 <ili93xx_draw_pixel+0x70>)
  4009bc:	6818      	ldr	r0, [r3, #0]
  4009be:	4b12      	ldr	r3, [pc, #72]	; (400a08 <ili93xx_draw_pixel+0x74>)
  4009c0:	4798      	blx	r3
  4009c2:	2000      	movs	r0, #0
  4009c4:	bd10      	pop	{r4, pc}
  4009c6:	2b02      	cmp	r3, #2
  4009c8:	d10f      	bne.n	4009ea <ili93xx_draw_pixel+0x56>
  4009ca:	2200      	movs	r2, #0
  4009cc:	4613      	mov	r3, r2
  4009ce:	4c0f      	ldr	r4, [pc, #60]	; (400a0c <ili93xx_draw_pixel+0x78>)
  4009d0:	47a0      	blx	r4
  4009d2:	4b0b      	ldr	r3, [pc, #44]	; (400a00 <ili93xx_draw_pixel+0x6c>)
  4009d4:	4798      	blx	r3
  4009d6:	4b0b      	ldr	r3, [pc, #44]	; (400a04 <ili93xx_draw_pixel+0x70>)
  4009d8:	6818      	ldr	r0, [r3, #0]
  4009da:	4b0b      	ldr	r3, [pc, #44]	; (400a08 <ili93xx_draw_pixel+0x74>)
  4009dc:	4798      	blx	r3
  4009de:	2000      	movs	r0, #0
  4009e0:	bd10      	pop	{r4, pc}
  4009e2:	2001      	movs	r0, #1
  4009e4:	bd10      	pop	{r4, pc}
  4009e6:	2001      	movs	r0, #1
  4009e8:	bd10      	pop	{r4, pc}
  4009ea:	2000      	movs	r0, #0
  4009ec:	bd10      	pop	{r4, pc}
  4009ee:	bf00      	nop
  4009f0:	20000000 	.word	0x20000000
  4009f4:	20000004 	.word	0x20000004
  4009f8:	20000c60 	.word	0x20000c60
  4009fc:	0040068d 	.word	0x0040068d
  400a00:	0040039d 	.word	0x0040039d
  400a04:	200008a0 	.word	0x200008a0
  400a08:	004003cd 	.word	0x004003cd
  400a0c:	004005e9 	.word	0x004005e9

00400a10 <ili93xx_draw_filled_rectangle>:
  400a10:	e92d 41f0 	stmdb	sp!, {r4, r5, r6, r7, r8, lr}
  400a14:	b084      	sub	sp, #16
  400a16:	9003      	str	r0, [sp, #12]
  400a18:	9102      	str	r1, [sp, #8]
  400a1a:	9201      	str	r2, [sp, #4]
  400a1c:	9300      	str	r3, [sp, #0]
  400a1e:	a803      	add	r0, sp, #12
  400a20:	a902      	add	r1, sp, #8
  400a22:	aa01      	add	r2, sp, #4
  400a24:	466b      	mov	r3, sp
  400a26:	4c22      	ldr	r4, [pc, #136]	; (400ab0 <ili93xx_draw_filled_rectangle+0xa0>)
  400a28:	47a0      	blx	r4
  400a2a:	9d03      	ldr	r5, [sp, #12]
  400a2c:	9c02      	ldr	r4, [sp, #8]
  400a2e:	9901      	ldr	r1, [sp, #4]
  400a30:	1c4a      	adds	r2, r1, #1
  400a32:	9900      	ldr	r1, [sp, #0]
  400a34:	1c4b      	adds	r3, r1, #1
  400a36:	4628      	mov	r0, r5
  400a38:	4621      	mov	r1, r4
  400a3a:	1b52      	subs	r2, r2, r5
  400a3c:	1b1b      	subs	r3, r3, r4
  400a3e:	4c1d      	ldr	r4, [pc, #116]	; (400ab4 <ili93xx_draw_filled_rectangle+0xa4>)
  400a40:	47a0      	blx	r4
  400a42:	f8bd 000c 	ldrh.w	r0, [sp, #12]
  400a46:	f8bd 1008 	ldrh.w	r1, [sp, #8]
  400a4a:	4b1b      	ldr	r3, [pc, #108]	; (400ab8 <ili93xx_draw_filled_rectangle+0xa8>)
  400a4c:	4798      	blx	r3
  400a4e:	4b1b      	ldr	r3, [pc, #108]	; (400abc <ili93xx_draw_filled_rectangle+0xac>)
  400a50:	4798      	blx	r3
  400a52:	9a02      	ldr	r2, [sp, #8]
  400a54:	9b00      	ldr	r3, [sp, #0]
  400a56:	1a9a      	subs	r2, r3, r2
  400a58:	9b01      	ldr	r3, [sp, #4]
  400a5a:	f103 0801 	add.w	r8, r3, #1
  400a5e:	9b03      	ldr	r3, [sp, #12]
  400a60:	ebc3 0808 	rsb	r8, r3, r8
  400a64:	fb02 8808 	mla	r8, r2, r8, r8
  400a68:	4c15      	ldr	r4, [pc, #84]	; (400ac0 <ili93xx_draw_filled_rectangle+0xb0>)
  400a6a:	fba4 3408 	umull	r3, r4, r4, r8
  400a6e:	09e4      	lsrs	r4, r4, #7
  400a70:	d007      	beq.n	400a82 <ili93xx_draw_filled_rectangle+0x72>
  400a72:	4f14      	ldr	r7, [pc, #80]	; (400ac4 <ili93xx_draw_filled_rectangle+0xb4>)
  400a74:	26f0      	movs	r6, #240	; 0xf0
  400a76:	4d14      	ldr	r5, [pc, #80]	; (400ac8 <ili93xx_draw_filled_rectangle+0xb8>)
  400a78:	4638      	mov	r0, r7
  400a7a:	4631      	mov	r1, r6
  400a7c:	47a8      	blx	r5
  400a7e:	3c01      	subs	r4, #1
  400a80:	d1fa      	bne.n	400a78 <ili93xx_draw_filled_rectangle+0x68>
  400a82:	490f      	ldr	r1, [pc, #60]	; (400ac0 <ili93xx_draw_filled_rectangle+0xb0>)
  400a84:	fba1 3108 	umull	r3, r1, r1, r8
  400a88:	09c9      	lsrs	r1, r1, #7
  400a8a:	ebc1 1101 	rsb	r1, r1, r1, lsl #4
  400a8e:	480d      	ldr	r0, [pc, #52]	; (400ac4 <ili93xx_draw_filled_rectangle+0xb4>)
  400a90:	eba8 1101 	sub.w	r1, r8, r1, lsl #4
  400a94:	4b0c      	ldr	r3, [pc, #48]	; (400ac8 <ili93xx_draw_filled_rectangle+0xb8>)
  400a96:	4798      	blx	r3
  400a98:	2000      	movs	r0, #0
  400a9a:	4601      	mov	r1, r0
  400a9c:	4b0b      	ldr	r3, [pc, #44]	; (400acc <ili93xx_draw_filled_rectangle+0xbc>)
  400a9e:	681a      	ldr	r2, [r3, #0]
  400aa0:	4b0b      	ldr	r3, [pc, #44]	; (400ad0 <ili93xx_draw_filled_rectangle+0xc0>)
  400aa2:	681b      	ldr	r3, [r3, #0]
  400aa4:	4c03      	ldr	r4, [pc, #12]	; (400ab4 <ili93xx_draw_filled_rectangle+0xa4>)
  400aa6:	47a0      	blx	r4
  400aa8:	b004      	add	sp, #16
  400aaa:	e8bd 81f0 	ldmia.w	sp!, {r4, r5, r6, r7, r8, pc}
  400aae:	bf00      	nop
  400ab0:	004004c1 	.word	0x004004c1
  400ab4:	004005e9 	.word	0x004005e9
  400ab8:	0040068d 	.word	0x0040068d
  400abc:	0040039d 	.word	0x0040039d
  400ac0:	88888889 	.word	0x88888889
  400ac4:	200008a0 	.word	0x200008a0
  400ac8:	004003e5 	.word	0x004003e5
  400acc:	20000000 	.word	0x20000000
  400ad0:	20000004 	.word	0x20000004

00400ad4 <ili93xx_draw_line>:
  400ad4:	e92d 4ff0 	stmdb	sp!, {r4, r5, r6, r7, r8, r9, sl, fp, lr}
  400ad8:	b083      	sub	sp, #12
  400ada:	4606      	mov	r6, r0
  400adc:	4688      	mov	r8, r1
  400ade:	4299      	cmp	r1, r3
  400ae0:	d001      	beq.n	400ae6 <ili93xx_draw_line+0x12>
  400ae2:	4290      	cmp	r0, r2
  400ae4:	d104      	bne.n	400af0 <ili93xx_draw_line+0x1c>
  400ae6:	4630      	mov	r0, r6
  400ae8:	4641      	mov	r1, r8
  400aea:	4c2b      	ldr	r4, [pc, #172]	; (400b98 <ili93xx_draw_line+0xc4>)
  400aec:	47a0      	blx	r4
  400aee:	e050      	b.n	400b92 <ili93xx_draw_line+0xbe>
  400af0:	4681      	mov	r9, r0
  400af2:	460f      	mov	r7, r1
  400af4:	1a12      	subs	r2, r2, r0
  400af6:	1a5b      	subs	r3, r3, r1
  400af8:	2a00      	cmp	r2, #0
  400afa:	bfcc      	ite	gt
  400afc:	2101      	movgt	r1, #1
  400afe:	f04f 31ff 	movle.w	r1, #4294967295
  400b02:	9100      	str	r1, [sp, #0]
  400b04:	2b00      	cmp	r3, #0
  400b06:	bfcc      	ite	gt
  400b08:	2101      	movgt	r1, #1
  400b0a:	f04f 31ff 	movle.w	r1, #4294967295
  400b0e:	9101      	str	r1, [sp, #4]
  400b10:	ea82 75e2 	eor.w	r5, r2, r2, asr #31
  400b14:	eba5 75e2 	sub.w	r5, r5, r2, asr #31
  400b18:	ea83 74e3 	eor.w	r4, r3, r3, asr #31
  400b1c:	eba4 74e3 	sub.w	r4, r4, r3, asr #31
  400b20:	4641      	mov	r1, r8
  400b22:	4b1e      	ldr	r3, [pc, #120]	; (400b9c <ili93xx_draw_line+0xc8>)
  400b24:	4798      	blx	r3
  400b26:	42a5      	cmp	r5, r4
  400b28:	dd1a      	ble.n	400b60 <ili93xx_draw_line+0x8c>
  400b2a:	ea4f 0865 	mov.w	r8, r5, asr #1
  400b2e:	2d00      	cmp	r5, #0
  400b30:	dd2f      	ble.n	400b92 <ili93xx_draw_line+0xbe>
  400b32:	9b00      	ldr	r3, [sp, #0]
  400b34:	4699      	mov	r9, r3
  400b36:	441e      	add	r6, r3
  400b38:	f04f 0a01 	mov.w	sl, #1
  400b3c:	f8df b05c 	ldr.w	fp, [pc, #92]	; 400b9c <ili93xx_draw_line+0xc8>
  400b40:	44a0      	add	r8, r4
  400b42:	4545      	cmp	r5, r8
  400b44:	dc03      	bgt.n	400b4e <ili93xx_draw_line+0x7a>
  400b46:	ebc5 0808 	rsb	r8, r5, r8
  400b4a:	9b01      	ldr	r3, [sp, #4]
  400b4c:	441f      	add	r7, r3
  400b4e:	4630      	mov	r0, r6
  400b50:	4639      	mov	r1, r7
  400b52:	47d8      	blx	fp
  400b54:	f10a 0a01 	add.w	sl, sl, #1
  400b58:	444e      	add	r6, r9
  400b5a:	4555      	cmp	r5, sl
  400b5c:	daf0      	bge.n	400b40 <ili93xx_draw_line+0x6c>
  400b5e:	e018      	b.n	400b92 <ili93xx_draw_line+0xbe>
  400b60:	1067      	asrs	r7, r4, #1
  400b62:	2c00      	cmp	r4, #0
  400b64:	dd15      	ble.n	400b92 <ili93xx_draw_line+0xbe>
  400b66:	9b01      	ldr	r3, [sp, #4]
  400b68:	469b      	mov	fp, r3
  400b6a:	4443      	add	r3, r8
  400b6c:	461e      	mov	r6, r3
  400b6e:	f04f 0801 	mov.w	r8, #1
  400b72:	f8df a028 	ldr.w	sl, [pc, #40]	; 400b9c <ili93xx_draw_line+0xc8>
  400b76:	442f      	add	r7, r5
  400b78:	42bc      	cmp	r4, r7
  400b7a:	dc02      	bgt.n	400b82 <ili93xx_draw_line+0xae>
  400b7c:	1b3f      	subs	r7, r7, r4
  400b7e:	9b00      	ldr	r3, [sp, #0]
  400b80:	4499      	add	r9, r3
  400b82:	4648      	mov	r0, r9
  400b84:	4631      	mov	r1, r6
  400b86:	47d0      	blx	sl
  400b88:	f108 0801 	add.w	r8, r8, #1
  400b8c:	445e      	add	r6, fp
  400b8e:	4544      	cmp	r4, r8
  400b90:	daf1      	bge.n	400b76 <ili93xx_draw_line+0xa2>
  400b92:	b003      	add	sp, #12
  400b94:	e8bd 8ff0 	ldmia.w	sp!, {r4, r5, r6, r7, r8, r9, sl, fp, pc}
  400b98:	00400a11 	.word	0x00400a11
  400b9c:	00400995 	.word	0x00400995

00400ba0 <ili93xx_draw_circle>:
  400ba0:	2a00      	cmp	r2, #0
  400ba2:	d044      	beq.n	400c2e <ili93xx_draw_circle+0x8e>
  400ba4:	e92d 4ff0 	stmdb	sp!, {r4, r5, r6, r7, r8, r9, sl, fp, lr}
  400ba8:	b083      	sub	sp, #12
  400baa:	4681      	mov	r9, r0
  400bac:	468a      	mov	sl, r1
  400bae:	4616      	mov	r6, r2
  400bb0:	0057      	lsls	r7, r2, #1
  400bb2:	f1c7 0703 	rsb	r7, r7, #3
  400bb6:	2500      	movs	r5, #0
  400bb8:	4c1f      	ldr	r4, [pc, #124]	; (400c38 <ili93xx_draw_circle+0x98>)
  400bba:	eb05 0b09 	add.w	fp, r5, r9
  400bbe:	eb06 080a 	add.w	r8, r6, sl
  400bc2:	4658      	mov	r0, fp
  400bc4:	4641      	mov	r1, r8
  400bc6:	47a0      	blx	r4
  400bc8:	ebc6 030a 	rsb	r3, r6, sl
  400bcc:	4658      	mov	r0, fp
  400bce:	9301      	str	r3, [sp, #4]
  400bd0:	4619      	mov	r1, r3
  400bd2:	47a0      	blx	r4
  400bd4:	ebc5 0b09 	rsb	fp, r5, r9
  400bd8:	4658      	mov	r0, fp
  400bda:	4641      	mov	r1, r8
  400bdc:	47a0      	blx	r4
  400bde:	4658      	mov	r0, fp
  400be0:	9901      	ldr	r1, [sp, #4]
  400be2:	47a0      	blx	r4
  400be4:	eb06 0b09 	add.w	fp, r6, r9
  400be8:	eb05 080a 	add.w	r8, r5, sl
  400bec:	4658      	mov	r0, fp
  400bee:	4641      	mov	r1, r8
  400bf0:	47a0      	blx	r4
  400bf2:	ebc5 030a 	rsb	r3, r5, sl
  400bf6:	4658      	mov	r0, fp
  400bf8:	9301      	str	r3, [sp, #4]
  400bfa:	4619      	mov	r1, r3
  400bfc:	47a0      	blx	r4
  400bfe:	ebc6 0b09 	rsb	fp, r6, r9
  400c02:	4658      	mov	r0, fp
  400c04:	4641      	mov	r1, r8
  400c06:	47a0      	blx	r4
  400c08:	4658      	mov	r0, fp
  400c0a:	9901      	ldr	r1, [sp, #4]
  400c0c:	47a0      	blx	r4
  400c0e:	2f00      	cmp	r7, #0
  400c10:	da03      	bge.n	400c1a <ili93xx_draw_circle+0x7a>
  400c12:	eb07 0785 	add.w	r7, r7, r5, lsl #2
  400c16:	3706      	adds	r7, #6
  400c18:	e004      	b.n	400c24 <ili93xx_draw_circle+0x84>
  400c1a:	370a      	adds	r7, #10
  400c1c:	1bab      	subs	r3, r5, r6
  400c1e:	eb07 0783 	add.w	r7, r7, r3, lsl #2
  400c22:	3e01      	subs	r6, #1
  400c24:	3501      	adds	r5, #1
  400c26:	42ae      	cmp	r6, r5
  400c28:	d2c7      	bcs.n	400bba <ili93xx_draw_circle+0x1a>
  400c2a:	2000      	movs	r0, #0
  400c2c:	e001      	b.n	400c32 <ili93xx_draw_circle+0x92>
  400c2e:	2001      	movs	r0, #1
  400c30:	4770      	bx	lr
  400c32:	b003      	add	sp, #12
  400c34:	e8bd 8ff0 	ldmia.w	sp!, {r4, r5, r6, r7, r8, r9, sl, fp, pc}
  400c38:	00400995 	.word	0x00400995

00400c3c <ili93xx_draw_string>:
  400c3c:	e92d 4ff0 	stmdb	sp!, {r4, r5, r6, r7, r8, r9, sl, fp, lr}
  400c40:	b085      	sub	sp, #20
  400c42:	9003      	str	r0, [sp, #12]
  400c44:	9202      	str	r2, [sp, #8]
  400c46:	7813      	ldrb	r3, [r2, #0]
  400c48:	2b00      	cmp	r3, #0
  400c4a:	d046      	beq.n	400cda <ili93xx_draw_string+0x9e>
  400c4c:	468b      	mov	fp, r1
  400c4e:	9001      	str	r0, [sp, #4]
  400c50:	f8df 9090 	ldr.w	r9, [pc, #144]	; 400ce4 <ili93xx_draw_string+0xa8>
  400c54:	2b0a      	cmp	r3, #10
  400c56:	d104      	bne.n	400c62 <ili93xx_draw_string+0x26>
  400c58:	f10b 0b10 	add.w	fp, fp, #16
  400c5c:	9b03      	ldr	r3, [sp, #12]
  400c5e:	9301      	str	r3, [sp, #4]
  400c60:	e035      	b.n	400cce <ili93xx_draw_string+0x92>
  400c62:	eb03 0383 	add.w	r3, r3, r3, lsl #2
  400c66:	4e1e      	ldr	r6, [pc, #120]	; (400ce0 <ili93xx_draw_string+0xa4>)
  400c68:	eb06 0383 	add.w	r3, r6, r3, lsl #2
  400c6c:	f2a3 267f 	subw	r6, r3, #639	; 0x27f
  400c70:	9a01      	ldr	r2, [sp, #4]
  400c72:	4613      	mov	r3, r2
  400c74:	330a      	adds	r3, #10
  400c76:	9300      	str	r3, [sp, #0]
  400c78:	4690      	mov	r8, r2
  400c7a:	2407      	movs	r4, #7
  400c7c:	4637      	mov	r7, r6
  400c7e:	eb0b 0a04 	add.w	sl, fp, r4
  400c82:	463d      	mov	r5, r7
  400c84:	f816 3c01 	ldrb.w	r3, [r6, #-1]
  400c88:	4123      	asrs	r3, r4
  400c8a:	f013 0f01 	tst.w	r3, #1
  400c8e:	d003      	beq.n	400c98 <ili93xx_draw_string+0x5c>
  400c90:	4640      	mov	r0, r8
  400c92:	ebc4 010a 	rsb	r1, r4, sl
  400c96:	47c8      	blx	r9
  400c98:	3c01      	subs	r4, #1
  400c9a:	f1b4 3fff 	cmp.w	r4, #4294967295
  400c9e:	d1f0      	bne.n	400c82 <ili93xx_draw_string+0x46>
  400ca0:	2407      	movs	r4, #7
  400ca2:	f10b 070f 	add.w	r7, fp, #15
  400ca6:	782b      	ldrb	r3, [r5, #0]
  400ca8:	4123      	asrs	r3, r4
  400caa:	f013 0f01 	tst.w	r3, #1
  400cae:	d002      	beq.n	400cb6 <ili93xx_draw_string+0x7a>
  400cb0:	4640      	mov	r0, r8
  400cb2:	1b39      	subs	r1, r7, r4
  400cb4:	47c8      	blx	r9
  400cb6:	3c01      	subs	r4, #1
  400cb8:	2c01      	cmp	r4, #1
  400cba:	d1f4      	bne.n	400ca6 <ili93xx_draw_string+0x6a>
  400cbc:	3602      	adds	r6, #2
  400cbe:	f108 0801 	add.w	r8, r8, #1
  400cc2:	9b00      	ldr	r3, [sp, #0]
  400cc4:	4598      	cmp	r8, r3
  400cc6:	d1d8      	bne.n	400c7a <ili93xx_draw_string+0x3e>
  400cc8:	9b01      	ldr	r3, [sp, #4]
  400cca:	330c      	adds	r3, #12
  400ccc:	9301      	str	r3, [sp, #4]
  400cce:	9a02      	ldr	r2, [sp, #8]
  400cd0:	f812 3f01 	ldrb.w	r3, [r2, #1]!
  400cd4:	9202      	str	r2, [sp, #8]
  400cd6:	2b00      	cmp	r3, #0
  400cd8:	d1bc      	bne.n	400c54 <ili93xx_draw_string+0x18>
  400cda:	b005      	add	sp, #20
  400cdc:	e8bd 8ff0 	ldmia.w	sp!, {r4, r5, r6, r7, r8, r9, sl, fp, pc}
  400ce0:	00407684 	.word	0x00407684
  400ce4:	00400995 	.word	0x00400995

00400ce8 <smc_set_setup_timing>:
  400ce8:	0109      	lsls	r1, r1, #4
  400cea:	5042      	str	r2, [r0, r1]
  400cec:	4770      	bx	lr
  400cee:	bf00      	nop

00400cf0 <smc_set_pulse_timing>:
  400cf0:	eb00 1101 	add.w	r1, r0, r1, lsl #4
  400cf4:	604a      	str	r2, [r1, #4]
  400cf6:	4770      	bx	lr

00400cf8 <smc_set_cycle_timing>:
  400cf8:	eb00 1101 	add.w	r1, r0, r1, lsl #4
  400cfc:	608a      	str	r2, [r1, #8]
  400cfe:	4770      	bx	lr

00400d00 <smc_set_mode>:
  400d00:	eb00 1101 	add.w	r1, r0, r1, lsl #4
  400d04:	60ca      	str	r2, [r1, #12]
  400d06:	4770      	bx	lr

00400d08 <pio_set_peripheral>:
  400d08:	6442      	str	r2, [r0, #68]	; 0x44
  400d0a:	f1b1 5fc0 	cmp.w	r1, #402653184	; 0x18000000
  400d0e:	d02f      	beq.n	400d70 <pio_set_peripheral+0x68>
  400d10:	d807      	bhi.n	400d22 <pio_set_peripheral+0x1a>
  400d12:	f1b1 6f00 	cmp.w	r1, #134217728	; 0x8000000
  400d16:	d014      	beq.n	400d42 <pio_set_peripheral+0x3a>
  400d18:	f1b1 5f80 	cmp.w	r1, #268435456	; 0x10000000
  400d1c:	d01e      	beq.n	400d5c <pio_set_peripheral+0x54>
  400d1e:	b939      	cbnz	r1, 400d30 <pio_set_peripheral+0x28>
  400d20:	4770      	bx	lr
  400d22:	f1b1 5f20 	cmp.w	r1, #671088640	; 0x28000000
  400d26:	d037      	beq.n	400d98 <pio_set_peripheral+0x90>
  400d28:	d804      	bhi.n	400d34 <pio_set_peripheral+0x2c>
  400d2a:	f1b1 5f00 	cmp.w	r1, #536870912	; 0x20000000
  400d2e:	d029      	beq.n	400d84 <pio_set_peripheral+0x7c>
  400d30:	6042      	str	r2, [r0, #4]
  400d32:	4770      	bx	lr
  400d34:	f1b1 5f40 	cmp.w	r1, #805306368	; 0x30000000
  400d38:	d02e      	beq.n	400d98 <pio_set_peripheral+0x90>
  400d3a:	f1b1 5f60 	cmp.w	r1, #939524096	; 0x38000000
  400d3e:	d02b      	beq.n	400d98 <pio_set_peripheral+0x90>
  400d40:	e7f6      	b.n	400d30 <pio_set_peripheral+0x28>
  400d42:	b410      	push	{r4}
  400d44:	6f01      	ldr	r1, [r0, #112]	; 0x70
  400d46:	6f04      	ldr	r4, [r0, #112]	; 0x70
  400d48:	43d3      	mvns	r3, r2
  400d4a:	4021      	ands	r1, r4
  400d4c:	4019      	ands	r1, r3
  400d4e:	6701      	str	r1, [r0, #112]	; 0x70
  400d50:	6f41      	ldr	r1, [r0, #116]	; 0x74
  400d52:	6f44      	ldr	r4, [r0, #116]	; 0x74
  400d54:	4021      	ands	r1, r4
  400d56:	400b      	ands	r3, r1
  400d58:	6743      	str	r3, [r0, #116]	; 0x74
  400d5a:	e01a      	b.n	400d92 <pio_set_peripheral+0x8a>
  400d5c:	6f03      	ldr	r3, [r0, #112]	; 0x70
  400d5e:	4313      	orrs	r3, r2
  400d60:	6703      	str	r3, [r0, #112]	; 0x70
  400d62:	6f43      	ldr	r3, [r0, #116]	; 0x74
  400d64:	6f41      	ldr	r1, [r0, #116]	; 0x74
  400d66:	400b      	ands	r3, r1
  400d68:	ea23 0302 	bic.w	r3, r3, r2
  400d6c:	6743      	str	r3, [r0, #116]	; 0x74
  400d6e:	e7df      	b.n	400d30 <pio_set_peripheral+0x28>
  400d70:	6f03      	ldr	r3, [r0, #112]	; 0x70
  400d72:	6f01      	ldr	r1, [r0, #112]	; 0x70
  400d74:	400b      	ands	r3, r1
  400d76:	ea23 0302 	bic.w	r3, r3, r2
  400d7a:	6703      	str	r3, [r0, #112]	; 0x70
  400d7c:	6f43      	ldr	r3, [r0, #116]	; 0x74
  400d7e:	4313      	orrs	r3, r2
  400d80:	6743      	str	r3, [r0, #116]	; 0x74
  400d82:	e7d5      	b.n	400d30 <pio_set_peripheral+0x28>
  400d84:	6f03      	ldr	r3, [r0, #112]	; 0x70
  400d86:	4313      	orrs	r3, r2
  400d88:	6703      	str	r3, [r0, #112]	; 0x70
  400d8a:	6f43      	ldr	r3, [r0, #116]	; 0x74
  400d8c:	4313      	orrs	r3, r2
  400d8e:	6743      	str	r3, [r0, #116]	; 0x74
  400d90:	e7ce      	b.n	400d30 <pio_set_peripheral+0x28>
  400d92:	6042      	str	r2, [r0, #4]
  400d94:	f85d 4b04 	ldr.w	r4, [sp], #4
  400d98:	4770      	bx	lr
  400d9a:	bf00      	nop

00400d9c <pio_set_input>:
  400d9c:	6441      	str	r1, [r0, #68]	; 0x44
  400d9e:	f012 0f01 	tst.w	r2, #1
  400da2:	bf14      	ite	ne
  400da4:	6641      	strne	r1, [r0, #100]	; 0x64
  400da6:	6601      	streq	r1, [r0, #96]	; 0x60
  400da8:	f012 0f0a 	tst.w	r2, #10
  400dac:	bf14      	ite	ne
  400dae:	6201      	strne	r1, [r0, #32]
  400db0:	6241      	streq	r1, [r0, #36]	; 0x24
  400db2:	f012 0f02 	tst.w	r2, #2
  400db6:	d002      	beq.n	400dbe <pio_set_input+0x22>
  400db8:	f8c0 1080 	str.w	r1, [r0, #128]	; 0x80
  400dbc:	e004      	b.n	400dc8 <pio_set_input+0x2c>
  400dbe:	f012 0f08 	tst.w	r2, #8
  400dc2:	bf18      	it	ne
  400dc4:	f8c0 1084 	strne.w	r1, [r0, #132]	; 0x84
  400dc8:	6141      	str	r1, [r0, #20]
  400dca:	6001      	str	r1, [r0, #0]
  400dcc:	4770      	bx	lr
  400dce:	bf00      	nop

00400dd0 <pio_set_output>:
  400dd0:	b410      	push	{r4}
  400dd2:	6441      	str	r1, [r0, #68]	; 0x44
  400dd4:	9c01      	ldr	r4, [sp, #4]
  400dd6:	b10c      	cbz	r4, 400ddc <pio_set_output+0xc>
  400dd8:	6641      	str	r1, [r0, #100]	; 0x64
  400dda:	e000      	b.n	400dde <pio_set_output+0xe>
  400ddc:	6601      	str	r1, [r0, #96]	; 0x60
  400dde:	b10b      	cbz	r3, 400de4 <pio_set_output+0x14>
  400de0:	6501      	str	r1, [r0, #80]	; 0x50
  400de2:	e000      	b.n	400de6 <pio_set_output+0x16>
  400de4:	6541      	str	r1, [r0, #84]	; 0x54
  400de6:	b10a      	cbz	r2, 400dec <pio_set_output+0x1c>
  400de8:	6301      	str	r1, [r0, #48]	; 0x30
  400dea:	e000      	b.n	400dee <pio_set_output+0x1e>
  400dec:	6341      	str	r1, [r0, #52]	; 0x34
  400dee:	6101      	str	r1, [r0, #16]
  400df0:	6001      	str	r1, [r0, #0]
  400df2:	f85d 4b04 	ldr.w	r4, [sp], #4
  400df6:	4770      	bx	lr

00400df8 <pio_get_interrupt_status>:
  400df8:	6cc0      	ldr	r0, [r0, #76]	; 0x4c
  400dfa:	4770      	bx	lr

00400dfc <pio_get_interrupt_mask>:
  400dfc:	6c80      	ldr	r0, [r0, #72]	; 0x48
  400dfe:	4770      	bx	lr

00400e00 <pio_configure_pin>:
  400e00:	b570      	push	{r4, r5, r6, lr}
  400e02:	b082      	sub	sp, #8
  400e04:	460d      	mov	r5, r1
  400e06:	0943      	lsrs	r3, r0, #5
  400e08:	f503 1300 	add.w	r3, r3, #2097152	; 0x200000
  400e0c:	f203 7307 	addw	r3, r3, #1799	; 0x707
  400e10:	025c      	lsls	r4, r3, #9
  400e12:	f001 43f0 	and.w	r3, r1, #2013265920	; 0x78000000
  400e16:	f1b3 5f00 	cmp.w	r3, #536870912	; 0x20000000
  400e1a:	d047      	beq.n	400eac <pio_configure_pin+0xac>
  400e1c:	d809      	bhi.n	400e32 <pio_configure_pin+0x32>
  400e1e:	f1b3 5f80 	cmp.w	r3, #268435456	; 0x10000000
  400e22:	d021      	beq.n	400e68 <pio_configure_pin+0x68>
  400e24:	f1b3 5fc0 	cmp.w	r3, #402653184	; 0x18000000
  400e28:	d02f      	beq.n	400e8a <pio_configure_pin+0x8a>
  400e2a:	f1b3 6f00 	cmp.w	r3, #134217728	; 0x8000000
  400e2e:	d16f      	bne.n	400f10 <pio_configure_pin+0x110>
  400e30:	e009      	b.n	400e46 <pio_configure_pin+0x46>
  400e32:	f1b3 5f40 	cmp.w	r3, #805306368	; 0x30000000
  400e36:	d055      	beq.n	400ee4 <pio_configure_pin+0xe4>
  400e38:	f1b3 5f60 	cmp.w	r3, #939524096	; 0x38000000
  400e3c:	d052      	beq.n	400ee4 <pio_configure_pin+0xe4>
  400e3e:	f1b3 5f20 	cmp.w	r3, #671088640	; 0x28000000
  400e42:	d044      	beq.n	400ece <pio_configure_pin+0xce>
  400e44:	e064      	b.n	400f10 <pio_configure_pin+0x110>
  400e46:	f000 001f 	and.w	r0, r0, #31
  400e4a:	2601      	movs	r6, #1
  400e4c:	4086      	lsls	r6, r0
  400e4e:	4620      	mov	r0, r4
  400e50:	f04f 6100 	mov.w	r1, #134217728	; 0x8000000
  400e54:	4632      	mov	r2, r6
  400e56:	4b30      	ldr	r3, [pc, #192]	; (400f18 <pio_configure_pin+0x118>)
  400e58:	4798      	blx	r3
  400e5a:	f015 0f01 	tst.w	r5, #1
  400e5e:	bf14      	ite	ne
  400e60:	6666      	strne	r6, [r4, #100]	; 0x64
  400e62:	6626      	streq	r6, [r4, #96]	; 0x60
  400e64:	2001      	movs	r0, #1
  400e66:	e054      	b.n	400f12 <pio_configure_pin+0x112>
  400e68:	f000 001f 	and.w	r0, r0, #31
  400e6c:	2601      	movs	r6, #1
  400e6e:	4086      	lsls	r6, r0
  400e70:	4620      	mov	r0, r4
  400e72:	f04f 5180 	mov.w	r1, #268435456	; 0x10000000
  400e76:	4632      	mov	r2, r6
  400e78:	4b27      	ldr	r3, [pc, #156]	; (400f18 <pio_configure_pin+0x118>)
  400e7a:	4798      	blx	r3
  400e7c:	f015 0f01 	tst.w	r5, #1
  400e80:	bf14      	ite	ne
  400e82:	6666      	strne	r6, [r4, #100]	; 0x64
  400e84:	6626      	streq	r6, [r4, #96]	; 0x60
  400e86:	2001      	movs	r0, #1
  400e88:	e043      	b.n	400f12 <pio_configure_pin+0x112>
  400e8a:	f000 001f 	and.w	r0, r0, #31
  400e8e:	2601      	movs	r6, #1
  400e90:	4086      	lsls	r6, r0
  400e92:	4620      	mov	r0, r4
  400e94:	f04f 51c0 	mov.w	r1, #402653184	; 0x18000000
  400e98:	4632      	mov	r2, r6
  400e9a:	4b1f      	ldr	r3, [pc, #124]	; (400f18 <pio_configure_pin+0x118>)
  400e9c:	4798      	blx	r3
  400e9e:	f015 0f01 	tst.w	r5, #1
  400ea2:	bf14      	ite	ne
  400ea4:	6666      	strne	r6, [r4, #100]	; 0x64
  400ea6:	6626      	streq	r6, [r4, #96]	; 0x60
  400ea8:	2001      	movs	r0, #1
  400eaa:	e032      	b.n	400f12 <pio_configure_pin+0x112>
  400eac:	f000 001f 	and.w	r0, r0, #31
  400eb0:	2601      	movs	r6, #1
  400eb2:	4086      	lsls	r6, r0
  400eb4:	4620      	mov	r0, r4
  400eb6:	f04f 5100 	mov.w	r1, #536870912	; 0x20000000
  400eba:	4632      	mov	r2, r6
  400ebc:	4b16      	ldr	r3, [pc, #88]	; (400f18 <pio_configure_pin+0x118>)
  400ebe:	4798      	blx	r3
  400ec0:	f015 0f01 	tst.w	r5, #1
  400ec4:	bf14      	ite	ne
  400ec6:	6666      	strne	r6, [r4, #100]	; 0x64
  400ec8:	6626      	streq	r6, [r4, #96]	; 0x60
  400eca:	2001      	movs	r0, #1
  400ecc:	e021      	b.n	400f12 <pio_configure_pin+0x112>
  400ece:	f000 031f 	and.w	r3, r0, #31
  400ed2:	2601      	movs	r6, #1
  400ed4:	4620      	mov	r0, r4
  400ed6:	fa06 f103 	lsl.w	r1, r6, r3
  400eda:	462a      	mov	r2, r5
  400edc:	4b0f      	ldr	r3, [pc, #60]	; (400f1c <pio_configure_pin+0x11c>)
  400ede:	4798      	blx	r3
  400ee0:	4630      	mov	r0, r6
  400ee2:	e016      	b.n	400f12 <pio_configure_pin+0x112>
  400ee4:	f000 031f 	and.w	r3, r0, #31
  400ee8:	2601      	movs	r6, #1
  400eea:	f005 5260 	and.w	r2, r5, #939524096	; 0x38000000
  400eee:	ea05 0106 	and.w	r1, r5, r6
  400ef2:	9100      	str	r1, [sp, #0]
  400ef4:	4620      	mov	r0, r4
  400ef6:	fa06 f103 	lsl.w	r1, r6, r3
  400efa:	f1b2 5f60 	cmp.w	r2, #939524096	; 0x38000000
  400efe:	bf14      	ite	ne
  400f00:	2200      	movne	r2, #0
  400f02:	2201      	moveq	r2, #1
  400f04:	f3c5 0380 	ubfx	r3, r5, #2, #1
  400f08:	4c05      	ldr	r4, [pc, #20]	; (400f20 <pio_configure_pin+0x120>)
  400f0a:	47a0      	blx	r4
  400f0c:	4630      	mov	r0, r6
  400f0e:	e000      	b.n	400f12 <pio_configure_pin+0x112>
  400f10:	2000      	movs	r0, #0
  400f12:	b002      	add	sp, #8
  400f14:	bd70      	pop	{r4, r5, r6, pc}
  400f16:	bf00      	nop
  400f18:	00400d09 	.word	0x00400d09
  400f1c:	00400d9d 	.word	0x00400d9d
  400f20:	00400dd1 	.word	0x00400dd1

00400f24 <pio_configure_pin_group>:
  400f24:	b570      	push	{r4, r5, r6, lr}
  400f26:	b082      	sub	sp, #8
  400f28:	4606      	mov	r6, r0
  400f2a:	460d      	mov	r5, r1
  400f2c:	4614      	mov	r4, r2
  400f2e:	f002 43f0 	and.w	r3, r2, #2013265920	; 0x78000000
  400f32:	f1b3 5f00 	cmp.w	r3, #536870912	; 0x20000000
  400f36:	d038      	beq.n	400faa <pio_configure_pin_group+0x86>
  400f38:	d809      	bhi.n	400f4e <pio_configure_pin_group+0x2a>
  400f3a:	f1b3 5f80 	cmp.w	r3, #268435456	; 0x10000000
  400f3e:	d01c      	beq.n	400f7a <pio_configure_pin_group+0x56>
  400f40:	f1b3 5fc0 	cmp.w	r3, #402653184	; 0x18000000
  400f44:	d025      	beq.n	400f92 <pio_configure_pin_group+0x6e>
  400f46:	f1b3 6f00 	cmp.w	r3, #134217728	; 0x8000000
  400f4a:	d150      	bne.n	400fee <pio_configure_pin_group+0xca>
  400f4c:	e009      	b.n	400f62 <pio_configure_pin_group+0x3e>
  400f4e:	f1b3 5f40 	cmp.w	r3, #805306368	; 0x30000000
  400f52:	d03a      	beq.n	400fca <pio_configure_pin_group+0xa6>
  400f54:	f1b3 5f60 	cmp.w	r3, #939524096	; 0x38000000
  400f58:	d037      	beq.n	400fca <pio_configure_pin_group+0xa6>
  400f5a:	f1b3 5f20 	cmp.w	r3, #671088640	; 0x28000000
  400f5e:	d030      	beq.n	400fc2 <pio_configure_pin_group+0x9e>
  400f60:	e045      	b.n	400fee <pio_configure_pin_group+0xca>
  400f62:	f04f 6100 	mov.w	r1, #134217728	; 0x8000000
  400f66:	462a      	mov	r2, r5
  400f68:	4b22      	ldr	r3, [pc, #136]	; (400ff4 <pio_configure_pin_group+0xd0>)
  400f6a:	4798      	blx	r3
  400f6c:	f014 0f01 	tst.w	r4, #1
  400f70:	bf14      	ite	ne
  400f72:	6675      	strne	r5, [r6, #100]	; 0x64
  400f74:	6635      	streq	r5, [r6, #96]	; 0x60
  400f76:	2001      	movs	r0, #1
  400f78:	e03a      	b.n	400ff0 <pio_configure_pin_group+0xcc>
  400f7a:	f04f 5180 	mov.w	r1, #268435456	; 0x10000000
  400f7e:	462a      	mov	r2, r5
  400f80:	4b1c      	ldr	r3, [pc, #112]	; (400ff4 <pio_configure_pin_group+0xd0>)
  400f82:	4798      	blx	r3
  400f84:	f014 0f01 	tst.w	r4, #1
  400f88:	bf14      	ite	ne
  400f8a:	6675      	strne	r5, [r6, #100]	; 0x64
  400f8c:	6635      	streq	r5, [r6, #96]	; 0x60
  400f8e:	2001      	movs	r0, #1
  400f90:	e02e      	b.n	400ff0 <pio_configure_pin_group+0xcc>
  400f92:	f04f 51c0 	mov.w	r1, #402653184	; 0x18000000
  400f96:	462a      	mov	r2, r5
  400f98:	4b16      	ldr	r3, [pc, #88]	; (400ff4 <pio_configure_pin_group+0xd0>)
  400f9a:	4798      	blx	r3
  400f9c:	f014 0f01 	tst.w	r4, #1
  400fa0:	bf14      	ite	ne
  400fa2:	6675      	strne	r5, [r6, #100]	; 0x64
  400fa4:	6635      	streq	r5, [r6, #96]	; 0x60
  400fa6:	2001      	movs	r0, #1
  400fa8:	e022      	b.n	400ff0 <pio_configure_pin_group+0xcc>
  400faa:	f04f 5100 	mov.w	r1, #536870912	; 0x20000000
  400fae:	462a      	mov	r2, r5
  400fb0:	4b10      	ldr	r3, [pc, #64]	; (400ff4 <pio_configure_pin_group+0xd0>)
  400fb2:	4798      	blx	r3
  400fb4:	f014 0f01 	tst.w	r4, #1
  400fb8:	bf14      	ite	ne
  400fba:	6675      	strne	r5, [r6, #100]	; 0x64
  400fbc:	6635      	streq	r5, [r6, #96]	; 0x60
  400fbe:	2001      	movs	r0, #1
  400fc0:	e016      	b.n	400ff0 <pio_configure_pin_group+0xcc>
  400fc2:	4b0d      	ldr	r3, [pc, #52]	; (400ff8 <pio_configure_pin_group+0xd4>)
  400fc4:	4798      	blx	r3
  400fc6:	2001      	movs	r0, #1
  400fc8:	e012      	b.n	400ff0 <pio_configure_pin_group+0xcc>
  400fca:	f004 5260 	and.w	r2, r4, #939524096	; 0x38000000
  400fce:	f004 0301 	and.w	r3, r4, #1
  400fd2:	9300      	str	r3, [sp, #0]
  400fd4:	4630      	mov	r0, r6
  400fd6:	4629      	mov	r1, r5
  400fd8:	f1b2 5f60 	cmp.w	r2, #939524096	; 0x38000000
  400fdc:	bf14      	ite	ne
  400fde:	2200      	movne	r2, #0
  400fe0:	2201      	moveq	r2, #1
  400fe2:	f3c4 0380 	ubfx	r3, r4, #2, #1
  400fe6:	4c05      	ldr	r4, [pc, #20]	; (400ffc <pio_configure_pin_group+0xd8>)
  400fe8:	47a0      	blx	r4
  400fea:	2001      	movs	r0, #1
  400fec:	e000      	b.n	400ff0 <pio_configure_pin_group+0xcc>
  400fee:	2000      	movs	r0, #0
  400ff0:	b002      	add	sp, #8
  400ff2:	bd70      	pop	{r4, r5, r6, pc}
  400ff4:	00400d09 	.word	0x00400d09
  400ff8:	00400d9d 	.word	0x00400d9d
  400ffc:	00400dd1 	.word	0x00400dd1

00401000 <pio_handler_process>:
  401000:	e92d 43f8 	stmdb	sp!, {r3, r4, r5, r6, r7, r8, r9, lr}
  401004:	4681      	mov	r9, r0
  401006:	4688      	mov	r8, r1
  401008:	4b12      	ldr	r3, [pc, #72]	; (401054 <pio_handler_process+0x54>)
  40100a:	4798      	blx	r3
  40100c:	4605      	mov	r5, r0
  40100e:	4648      	mov	r0, r9
  401010:	4b11      	ldr	r3, [pc, #68]	; (401058 <pio_handler_process+0x58>)
  401012:	4798      	blx	r3
  401014:	4005      	ands	r5, r0
  401016:	d013      	beq.n	401040 <pio_handler_process+0x40>
  401018:	4c10      	ldr	r4, [pc, #64]	; (40105c <pio_handler_process+0x5c>)
  40101a:	f104 0660 	add.w	r6, r4, #96	; 0x60
  40101e:	6823      	ldr	r3, [r4, #0]
  401020:	4543      	cmp	r3, r8
  401022:	d108      	bne.n	401036 <pio_handler_process+0x36>
  401024:	6861      	ldr	r1, [r4, #4]
  401026:	4229      	tst	r1, r5
  401028:	d005      	beq.n	401036 <pio_handler_process+0x36>
  40102a:	68e3      	ldr	r3, [r4, #12]
  40102c:	4640      	mov	r0, r8
  40102e:	4798      	blx	r3
  401030:	6863      	ldr	r3, [r4, #4]
  401032:	ea25 0503 	bic.w	r5, r5, r3
  401036:	42b4      	cmp	r4, r6
  401038:	d002      	beq.n	401040 <pio_handler_process+0x40>
  40103a:	3410      	adds	r4, #16
  40103c:	2d00      	cmp	r5, #0
  40103e:	d1ee      	bne.n	40101e <pio_handler_process+0x1e>
  401040:	4b07      	ldr	r3, [pc, #28]	; (401060 <pio_handler_process+0x60>)
  401042:	681b      	ldr	r3, [r3, #0]
  401044:	b123      	cbz	r3, 401050 <pio_handler_process+0x50>
  401046:	4b07      	ldr	r3, [pc, #28]	; (401064 <pio_handler_process+0x64>)
  401048:	681b      	ldr	r3, [r3, #0]
  40104a:	b10b      	cbz	r3, 401050 <pio_handler_process+0x50>
  40104c:	4648      	mov	r0, r9
  40104e:	4798      	blx	r3
  401050:	e8bd 83f8 	ldmia.w	sp!, {r3, r4, r5, r6, r7, r8, r9, pc}
  401054:	00400df9 	.word	0x00400df9
  401058:	00400dfd 	.word	0x00400dfd
  40105c:	20000c68 	.word	0x20000c68
  401060:	20000d18 	.word	0x20000d18
  401064:	20000c64 	.word	0x20000c64

00401068 <PIOA_Handler>:
  401068:	b508      	push	{r3, lr}
  40106a:	4802      	ldr	r0, [pc, #8]	; (401074 <PIOA_Handler+0xc>)
  40106c:	210b      	movs	r1, #11
  40106e:	4b02      	ldr	r3, [pc, #8]	; (401078 <PIOA_Handler+0x10>)
  401070:	4798      	blx	r3
  401072:	bd08      	pop	{r3, pc}
  401074:	400e0e00 	.word	0x400e0e00
  401078:	00401001 	.word	0x00401001

0040107c <PIOB_Handler>:
  40107c:	b508      	push	{r3, lr}
  40107e:	4802      	ldr	r0, [pc, #8]	; (401088 <PIOB_Handler+0xc>)
  401080:	210c      	movs	r1, #12
  401082:	4b02      	ldr	r3, [pc, #8]	; (40108c <PIOB_Handler+0x10>)
  401084:	4798      	blx	r3
  401086:	bd08      	pop	{r3, pc}
  401088:	400e1000 	.word	0x400e1000
  40108c:	00401001 	.word	0x00401001

00401090 <PIOC_Handler>:
  401090:	b508      	push	{r3, lr}
  401092:	4802      	ldr	r0, [pc, #8]	; (40109c <PIOC_Handler+0xc>)
  401094:	210d      	movs	r1, #13
  401096:	4b02      	ldr	r3, [pc, #8]	; (4010a0 <PIOC_Handler+0x10>)
  401098:	4798      	blx	r3
  40109a:	bd08      	pop	{r3, pc}
  40109c:	400e1200 	.word	0x400e1200
  4010a0:	00401001 	.word	0x00401001

004010a4 <pmc_switch_mck_to_pllack>:
  4010a4:	4a18      	ldr	r2, [pc, #96]	; (401108 <pmc_switch_mck_to_pllack+0x64>)
  4010a6:	6b13      	ldr	r3, [r2, #48]	; 0x30
  4010a8:	f023 0370 	bic.w	r3, r3, #112	; 0x70
  4010ac:	4318      	orrs	r0, r3
  4010ae:	6310      	str	r0, [r2, #48]	; 0x30
  4010b0:	6e93      	ldr	r3, [r2, #104]	; 0x68
  4010b2:	f013 0f08 	tst.w	r3, #8
  4010b6:	d003      	beq.n	4010c0 <pmc_switch_mck_to_pllack+0x1c>
  4010b8:	e009      	b.n	4010ce <pmc_switch_mck_to_pllack+0x2a>
  4010ba:	3b01      	subs	r3, #1
  4010bc:	d103      	bne.n	4010c6 <pmc_switch_mck_to_pllack+0x22>
  4010be:	e01e      	b.n	4010fe <pmc_switch_mck_to_pllack+0x5a>
  4010c0:	f44f 6300 	mov.w	r3, #2048	; 0x800
  4010c4:	4910      	ldr	r1, [pc, #64]	; (401108 <pmc_switch_mck_to_pllack+0x64>)
  4010c6:	6e8a      	ldr	r2, [r1, #104]	; 0x68
  4010c8:	f012 0f08 	tst.w	r2, #8
  4010cc:	d0f5      	beq.n	4010ba <pmc_switch_mck_to_pllack+0x16>
  4010ce:	4a0e      	ldr	r2, [pc, #56]	; (401108 <pmc_switch_mck_to_pllack+0x64>)
  4010d0:	6b13      	ldr	r3, [r2, #48]	; 0x30
  4010d2:	f023 0303 	bic.w	r3, r3, #3
  4010d6:	f043 0302 	orr.w	r3, r3, #2
  4010da:	6313      	str	r3, [r2, #48]	; 0x30
  4010dc:	6e90      	ldr	r0, [r2, #104]	; 0x68
  4010de:	f010 0008 	ands.w	r0, r0, #8
  4010e2:	d004      	beq.n	4010ee <pmc_switch_mck_to_pllack+0x4a>
  4010e4:	2000      	movs	r0, #0
  4010e6:	4770      	bx	lr
  4010e8:	3b01      	subs	r3, #1
  4010ea:	d103      	bne.n	4010f4 <pmc_switch_mck_to_pllack+0x50>
  4010ec:	e009      	b.n	401102 <pmc_switch_mck_to_pllack+0x5e>
  4010ee:	f44f 6300 	mov.w	r3, #2048	; 0x800
  4010f2:	4905      	ldr	r1, [pc, #20]	; (401108 <pmc_switch_mck_to_pllack+0x64>)
  4010f4:	6e8a      	ldr	r2, [r1, #104]	; 0x68
  4010f6:	f012 0f08 	tst.w	r2, #8
  4010fa:	d0f5      	beq.n	4010e8 <pmc_switch_mck_to_pllack+0x44>
  4010fc:	4770      	bx	lr
  4010fe:	2001      	movs	r0, #1
  401100:	4770      	bx	lr
  401102:	2001      	movs	r0, #1
  401104:	4770      	bx	lr
  401106:	bf00      	nop
  401108:	400e0400 	.word	0x400e0400

0040110c <pmc_switch_mainck_to_xtal>:
  40110c:	b138      	cbz	r0, 40111e <pmc_switch_mainck_to_xtal+0x12>
  40110e:	4911      	ldr	r1, [pc, #68]	; (401154 <pmc_switch_mainck_to_xtal+0x48>)
  401110:	6a0b      	ldr	r3, [r1, #32]
  401112:	4a11      	ldr	r2, [pc, #68]	; (401158 <pmc_switch_mainck_to_xtal+0x4c>)
  401114:	401a      	ands	r2, r3
  401116:	4b11      	ldr	r3, [pc, #68]	; (40115c <pmc_switch_mainck_to_xtal+0x50>)
  401118:	4313      	orrs	r3, r2
  40111a:	620b      	str	r3, [r1, #32]
  40111c:	4770      	bx	lr
  40111e:	4a0d      	ldr	r2, [pc, #52]	; (401154 <pmc_switch_mainck_to_xtal+0x48>)
  401120:	6a13      	ldr	r3, [r2, #32]
  401122:	f423 135c 	bic.w	r3, r3, #3604480	; 0x370000
  401126:	f023 0303 	bic.w	r3, r3, #3
  40112a:	f443 135c 	orr.w	r3, r3, #3604480	; 0x370000
  40112e:	f043 0301 	orr.w	r3, r3, #1
  401132:	0209      	lsls	r1, r1, #8
  401134:	b289      	uxth	r1, r1
  401136:	430b      	orrs	r3, r1
  401138:	6213      	str	r3, [r2, #32]
  40113a:	6e93      	ldr	r3, [r2, #104]	; 0x68
  40113c:	f013 0f01 	tst.w	r3, #1
  401140:	d0fb      	beq.n	40113a <pmc_switch_mainck_to_xtal+0x2e>
  401142:	4a04      	ldr	r2, [pc, #16]	; (401154 <pmc_switch_mainck_to_xtal+0x48>)
  401144:	6a13      	ldr	r3, [r2, #32]
  401146:	f043 739b 	orr.w	r3, r3, #20316160	; 0x1360000
  40114a:	f443 3380 	orr.w	r3, r3, #65536	; 0x10000
  40114e:	6213      	str	r3, [r2, #32]
  401150:	4770      	bx	lr
  401152:	bf00      	nop
  401154:	400e0400 	.word	0x400e0400
  401158:	fec8fffc 	.word	0xfec8fffc
  40115c:	01370002 	.word	0x01370002

00401160 <pmc_osc_is_ready_mainck>:
  401160:	4b02      	ldr	r3, [pc, #8]	; (40116c <pmc_osc_is_ready_mainck+0xc>)
  401162:	6e98      	ldr	r0, [r3, #104]	; 0x68
  401164:	f400 3080 	and.w	r0, r0, #65536	; 0x10000
  401168:	4770      	bx	lr
  40116a:	bf00      	nop
  40116c:	400e0400 	.word	0x400e0400

00401170 <pmc_disable_pllack>:
  401170:	f04f 5200 	mov.w	r2, #536870912	; 0x20000000
  401174:	4b01      	ldr	r3, [pc, #4]	; (40117c <pmc_disable_pllack+0xc>)
  401176:	629a      	str	r2, [r3, #40]	; 0x28
  401178:	4770      	bx	lr
  40117a:	bf00      	nop
  40117c:	400e0400 	.word	0x400e0400

00401180 <pmc_is_locked_pllack>:
  401180:	4b02      	ldr	r3, [pc, #8]	; (40118c <pmc_is_locked_pllack+0xc>)
  401182:	6e98      	ldr	r0, [r3, #104]	; 0x68
  401184:	f000 0002 	and.w	r0, r0, #2
  401188:	4770      	bx	lr
  40118a:	bf00      	nop
  40118c:	400e0400 	.word	0x400e0400

00401190 <pmc_enable_periph_clk>:
  401190:	2822      	cmp	r0, #34	; 0x22
  401192:	d81e      	bhi.n	4011d2 <pmc_enable_periph_clk+0x42>
  401194:	281f      	cmp	r0, #31
  401196:	d80c      	bhi.n	4011b2 <pmc_enable_periph_clk+0x22>
  401198:	4b11      	ldr	r3, [pc, #68]	; (4011e0 <pmc_enable_periph_clk+0x50>)
  40119a:	699a      	ldr	r2, [r3, #24]
  40119c:	2301      	movs	r3, #1
  40119e:	4083      	lsls	r3, r0
  4011a0:	401a      	ands	r2, r3
  4011a2:	4293      	cmp	r3, r2
  4011a4:	d017      	beq.n	4011d6 <pmc_enable_periph_clk+0x46>
  4011a6:	2301      	movs	r3, #1
  4011a8:	4083      	lsls	r3, r0
  4011aa:	4a0d      	ldr	r2, [pc, #52]	; (4011e0 <pmc_enable_periph_clk+0x50>)
  4011ac:	6113      	str	r3, [r2, #16]
  4011ae:	2000      	movs	r0, #0
  4011b0:	4770      	bx	lr
  4011b2:	4b0b      	ldr	r3, [pc, #44]	; (4011e0 <pmc_enable_periph_clk+0x50>)
  4011b4:	f8d3 2108 	ldr.w	r2, [r3, #264]	; 0x108
  4011b8:	3820      	subs	r0, #32
  4011ba:	2301      	movs	r3, #1
  4011bc:	4083      	lsls	r3, r0
  4011be:	401a      	ands	r2, r3
  4011c0:	4293      	cmp	r3, r2
  4011c2:	d00a      	beq.n	4011da <pmc_enable_periph_clk+0x4a>
  4011c4:	2301      	movs	r3, #1
  4011c6:	4083      	lsls	r3, r0
  4011c8:	4a05      	ldr	r2, [pc, #20]	; (4011e0 <pmc_enable_periph_clk+0x50>)
  4011ca:	f8c2 3100 	str.w	r3, [r2, #256]	; 0x100
  4011ce:	2000      	movs	r0, #0
  4011d0:	4770      	bx	lr
  4011d2:	2001      	movs	r0, #1
  4011d4:	4770      	bx	lr
  4011d6:	2000      	movs	r0, #0
  4011d8:	4770      	bx	lr
  4011da:	2000      	movs	r0, #0
  4011dc:	4770      	bx	lr
  4011de:	bf00      	nop
  4011e0:	400e0400 	.word	0x400e0400

004011e4 <Dummy_Handler>:
  4011e4:	e7fe      	b.n	4011e4 <Dummy_Handler>
  4011e6:	bf00      	nop

004011e8 <Reset_Handler>:
  4011e8:	b508      	push	{r3, lr}
  4011ea:	4b20      	ldr	r3, [pc, #128]	; (40126c <Reset_Handler+0x84>)
  4011ec:	4a20      	ldr	r2, [pc, #128]	; (401270 <Reset_Handler+0x88>)
  4011ee:	429a      	cmp	r2, r3
  4011f0:	d913      	bls.n	40121a <Reset_Handler+0x32>
  4011f2:	4b20      	ldr	r3, [pc, #128]	; (401274 <Reset_Handler+0x8c>)
  4011f4:	4a1d      	ldr	r2, [pc, #116]	; (40126c <Reset_Handler+0x84>)
  4011f6:	429a      	cmp	r2, r3
  4011f8:	d21f      	bcs.n	40123a <Reset_Handler+0x52>
  4011fa:	4611      	mov	r1, r2
  4011fc:	3204      	adds	r2, #4
  4011fe:	3303      	adds	r3, #3
  401200:	1a9b      	subs	r3, r3, r2
  401202:	f023 0303 	bic.w	r3, r3, #3
  401206:	3304      	adds	r3, #4
  401208:	4a19      	ldr	r2, [pc, #100]	; (401270 <Reset_Handler+0x88>)
  40120a:	4413      	add	r3, r2
  40120c:	f852 0b04 	ldr.w	r0, [r2], #4
  401210:	f841 0b04 	str.w	r0, [r1], #4
  401214:	429a      	cmp	r2, r3
  401216:	d1f9      	bne.n	40120c <Reset_Handler+0x24>
  401218:	e00f      	b.n	40123a <Reset_Handler+0x52>
  40121a:	4b14      	ldr	r3, [pc, #80]	; (40126c <Reset_Handler+0x84>)
  40121c:	4a14      	ldr	r2, [pc, #80]	; (401270 <Reset_Handler+0x88>)
  40121e:	429a      	cmp	r2, r3
  401220:	d20b      	bcs.n	40123a <Reset_Handler+0x52>
  401222:	4b14      	ldr	r3, [pc, #80]	; (401274 <Reset_Handler+0x8c>)
  401224:	4a11      	ldr	r2, [pc, #68]	; (40126c <Reset_Handler+0x84>)
  401226:	1a9a      	subs	r2, r3, r2
  401228:	4813      	ldr	r0, [pc, #76]	; (401278 <Reset_Handler+0x90>)
  40122a:	1881      	adds	r1, r0, r2
  40122c:	b12a      	cbz	r2, 40123a <Reset_Handler+0x52>
  40122e:	f851 2904 	ldr.w	r2, [r1], #-4
  401232:	f843 2d04 	str.w	r2, [r3, #-4]!
  401236:	4281      	cmp	r1, r0
  401238:	d1f9      	bne.n	40122e <Reset_Handler+0x46>
  40123a:	bf00      	nop
  40123c:	4b0f      	ldr	r3, [pc, #60]	; (40127c <Reset_Handler+0x94>)
  40123e:	4a10      	ldr	r2, [pc, #64]	; (401280 <Reset_Handler+0x98>)
  401240:	429a      	cmp	r2, r3
  401242:	d20b      	bcs.n	40125c <Reset_Handler+0x74>
  401244:	1d13      	adds	r3, r2, #4
  401246:	4a0f      	ldr	r2, [pc, #60]	; (401284 <Reset_Handler+0x9c>)
  401248:	1ad2      	subs	r2, r2, r3
  40124a:	f022 0203 	bic.w	r2, r2, #3
  40124e:	441a      	add	r2, r3
  401250:	3b04      	subs	r3, #4
  401252:	2100      	movs	r1, #0
  401254:	f843 1b04 	str.w	r1, [r3], #4
  401258:	4293      	cmp	r3, r2
  40125a:	d1fb      	bne.n	401254 <Reset_Handler+0x6c>
  40125c:	4b0a      	ldr	r3, [pc, #40]	; (401288 <Reset_Handler+0xa0>)
  40125e:	4a0b      	ldr	r2, [pc, #44]	; (40128c <Reset_Handler+0xa4>)
  401260:	609a      	str	r2, [r3, #8]
  401262:	4b0b      	ldr	r3, [pc, #44]	; (401290 <Reset_Handler+0xa8>)
  401264:	4798      	blx	r3
  401266:	4b0b      	ldr	r3, [pc, #44]	; (401294 <Reset_Handler+0xac>)
  401268:	4798      	blx	r3
  40126a:	e7fe      	b.n	40126a <Reset_Handler+0x82>
  40126c:	20000000 	.word	0x20000000
  401270:	004081ac 	.word	0x004081ac
  401274:	20000884 	.word	0x20000884
  401278:	004081a8 	.word	0x004081a8
  40127c:	20000d5c 	.word	0x20000d5c
  401280:	20000884 	.word	0x20000884
  401284:	20000d5f 	.word	0x20000d5f
  401288:	e000ed00 	.word	0xe000ed00
  40128c:	00400000 	.word	0x00400000
  401290:	00403449 	.word	0x00403449
  401294:	00401661 	.word	0x00401661

00401298 <SystemCoreClockUpdate>:
  401298:	4b3d      	ldr	r3, [pc, #244]	; (401390 <SystemCoreClockUpdate+0xf8>)
  40129a:	6b1b      	ldr	r3, [r3, #48]	; 0x30
  40129c:	f003 0303 	and.w	r3, r3, #3
  4012a0:	2b03      	cmp	r3, #3
  4012a2:	d85d      	bhi.n	401360 <SystemCoreClockUpdate+0xc8>
  4012a4:	e8df f003 	tbb	[pc, r3]
  4012a8:	2b2b0e02 	.word	0x2b2b0e02
  4012ac:	4b39      	ldr	r3, [pc, #228]	; (401394 <SystemCoreClockUpdate+0xfc>)
  4012ae:	695b      	ldr	r3, [r3, #20]
  4012b0:	f013 0f80 	tst.w	r3, #128	; 0x80
  4012b4:	bf14      	ite	ne
  4012b6:	f44f 4200 	movne.w	r2, #32768	; 0x8000
  4012ba:	f44f 42fa 	moveq.w	r2, #32000	; 0x7d00
  4012be:	4b36      	ldr	r3, [pc, #216]	; (401398 <SystemCoreClockUpdate+0x100>)
  4012c0:	601a      	str	r2, [r3, #0]
  4012c2:	e04d      	b.n	401360 <SystemCoreClockUpdate+0xc8>
  4012c4:	4b32      	ldr	r3, [pc, #200]	; (401390 <SystemCoreClockUpdate+0xf8>)
  4012c6:	6a1b      	ldr	r3, [r3, #32]
  4012c8:	f013 7f80 	tst.w	r3, #16777216	; 0x1000000
  4012cc:	d003      	beq.n	4012d6 <SystemCoreClockUpdate+0x3e>
  4012ce:	4a33      	ldr	r2, [pc, #204]	; (40139c <SystemCoreClockUpdate+0x104>)
  4012d0:	4b31      	ldr	r3, [pc, #196]	; (401398 <SystemCoreClockUpdate+0x100>)
  4012d2:	601a      	str	r2, [r3, #0]
  4012d4:	e044      	b.n	401360 <SystemCoreClockUpdate+0xc8>
  4012d6:	4a32      	ldr	r2, [pc, #200]	; (4013a0 <SystemCoreClockUpdate+0x108>)
  4012d8:	4b2f      	ldr	r3, [pc, #188]	; (401398 <SystemCoreClockUpdate+0x100>)
  4012da:	601a      	str	r2, [r3, #0]
  4012dc:	4b2c      	ldr	r3, [pc, #176]	; (401390 <SystemCoreClockUpdate+0xf8>)
  4012de:	6a1b      	ldr	r3, [r3, #32]
  4012e0:	f003 0370 	and.w	r3, r3, #112	; 0x70
  4012e4:	2b10      	cmp	r3, #16
  4012e6:	d002      	beq.n	4012ee <SystemCoreClockUpdate+0x56>
  4012e8:	2b20      	cmp	r3, #32
  4012ea:	d004      	beq.n	4012f6 <SystemCoreClockUpdate+0x5e>
  4012ec:	e038      	b.n	401360 <SystemCoreClockUpdate+0xc8>
  4012ee:	4a2d      	ldr	r2, [pc, #180]	; (4013a4 <SystemCoreClockUpdate+0x10c>)
  4012f0:	4b29      	ldr	r3, [pc, #164]	; (401398 <SystemCoreClockUpdate+0x100>)
  4012f2:	601a      	str	r2, [r3, #0]
  4012f4:	e034      	b.n	401360 <SystemCoreClockUpdate+0xc8>
  4012f6:	4a29      	ldr	r2, [pc, #164]	; (40139c <SystemCoreClockUpdate+0x104>)
  4012f8:	4b27      	ldr	r3, [pc, #156]	; (401398 <SystemCoreClockUpdate+0x100>)
  4012fa:	601a      	str	r2, [r3, #0]
  4012fc:	e030      	b.n	401360 <SystemCoreClockUpdate+0xc8>
  4012fe:	4b24      	ldr	r3, [pc, #144]	; (401390 <SystemCoreClockUpdate+0xf8>)
  401300:	6a1b      	ldr	r3, [r3, #32]
  401302:	f013 7f80 	tst.w	r3, #16777216	; 0x1000000
  401306:	d003      	beq.n	401310 <SystemCoreClockUpdate+0x78>
  401308:	4a24      	ldr	r2, [pc, #144]	; (40139c <SystemCoreClockUpdate+0x104>)
  40130a:	4b23      	ldr	r3, [pc, #140]	; (401398 <SystemCoreClockUpdate+0x100>)
  40130c:	601a      	str	r2, [r3, #0]
  40130e:	e012      	b.n	401336 <SystemCoreClockUpdate+0x9e>
  401310:	4a23      	ldr	r2, [pc, #140]	; (4013a0 <SystemCoreClockUpdate+0x108>)
  401312:	4b21      	ldr	r3, [pc, #132]	; (401398 <SystemCoreClockUpdate+0x100>)
  401314:	601a      	str	r2, [r3, #0]
  401316:	4b1e      	ldr	r3, [pc, #120]	; (401390 <SystemCoreClockUpdate+0xf8>)
  401318:	6a1b      	ldr	r3, [r3, #32]
  40131a:	f003 0370 	and.w	r3, r3, #112	; 0x70
  40131e:	2b10      	cmp	r3, #16
  401320:	d002      	beq.n	401328 <SystemCoreClockUpdate+0x90>
  401322:	2b20      	cmp	r3, #32
  401324:	d004      	beq.n	401330 <SystemCoreClockUpdate+0x98>
  401326:	e006      	b.n	401336 <SystemCoreClockUpdate+0x9e>
  401328:	4a1e      	ldr	r2, [pc, #120]	; (4013a4 <SystemCoreClockUpdate+0x10c>)
  40132a:	4b1b      	ldr	r3, [pc, #108]	; (401398 <SystemCoreClockUpdate+0x100>)
  40132c:	601a      	str	r2, [r3, #0]
  40132e:	e002      	b.n	401336 <SystemCoreClockUpdate+0x9e>
  401330:	4a1a      	ldr	r2, [pc, #104]	; (40139c <SystemCoreClockUpdate+0x104>)
  401332:	4b19      	ldr	r3, [pc, #100]	; (401398 <SystemCoreClockUpdate+0x100>)
  401334:	601a      	str	r2, [r3, #0]
  401336:	4b16      	ldr	r3, [pc, #88]	; (401390 <SystemCoreClockUpdate+0xf8>)
  401338:	6b1b      	ldr	r3, [r3, #48]	; 0x30
  40133a:	f003 0303 	and.w	r3, r3, #3
  40133e:	2b02      	cmp	r3, #2
  401340:	4a13      	ldr	r2, [pc, #76]	; (401390 <SystemCoreClockUpdate+0xf8>)
  401342:	bf07      	ittee	eq
  401344:	6a93      	ldreq	r3, [r2, #40]	; 0x28
  401346:	6a92      	ldreq	r2, [r2, #40]	; 0x28
  401348:	6ad3      	ldrne	r3, [r2, #44]	; 0x2c
  40134a:	6ad2      	ldrne	r2, [r2, #44]	; 0x2c
  40134c:	4812      	ldr	r0, [pc, #72]	; (401398 <SystemCoreClockUpdate+0x100>)
  40134e:	f3c3 410a 	ubfx	r1, r3, #16, #11
  401352:	6803      	ldr	r3, [r0, #0]
  401354:	fb01 3303 	mla	r3, r1, r3, r3
  401358:	b2d2      	uxtb	r2, r2
  40135a:	fbb3 f3f2 	udiv	r3, r3, r2
  40135e:	6003      	str	r3, [r0, #0]
  401360:	4b0b      	ldr	r3, [pc, #44]	; (401390 <SystemCoreClockUpdate+0xf8>)
  401362:	6b1b      	ldr	r3, [r3, #48]	; 0x30
  401364:	f003 0370 	and.w	r3, r3, #112	; 0x70
  401368:	2b70      	cmp	r3, #112	; 0x70
  40136a:	d107      	bne.n	40137c <SystemCoreClockUpdate+0xe4>
  40136c:	4a0a      	ldr	r2, [pc, #40]	; (401398 <SystemCoreClockUpdate+0x100>)
  40136e:	6813      	ldr	r3, [r2, #0]
  401370:	490d      	ldr	r1, [pc, #52]	; (4013a8 <SystemCoreClockUpdate+0x110>)
  401372:	fba1 1303 	umull	r1, r3, r1, r3
  401376:	085b      	lsrs	r3, r3, #1
  401378:	6013      	str	r3, [r2, #0]
  40137a:	4770      	bx	lr
  40137c:	4b04      	ldr	r3, [pc, #16]	; (401390 <SystemCoreClockUpdate+0xf8>)
  40137e:	6b1a      	ldr	r2, [r3, #48]	; 0x30
  401380:	4905      	ldr	r1, [pc, #20]	; (401398 <SystemCoreClockUpdate+0x100>)
  401382:	f3c2 1202 	ubfx	r2, r2, #4, #3
  401386:	680b      	ldr	r3, [r1, #0]
  401388:	40d3      	lsrs	r3, r2
  40138a:	600b      	str	r3, [r1, #0]
  40138c:	4770      	bx	lr
  40138e:	bf00      	nop
  401390:	400e0400 	.word	0x400e0400
  401394:	400e1410 	.word	0x400e1410
  401398:	20000008 	.word	0x20000008
  40139c:	00b71b00 	.word	0x00b71b00
  4013a0:	003d0900 	.word	0x003d0900
  4013a4:	007a1200 	.word	0x007a1200
  4013a8:	aaaaaaab 	.word	0xaaaaaaab

004013ac <system_init_flash>:
  4013ac:	4b1a      	ldr	r3, [pc, #104]	; (401418 <system_init_flash+0x6c>)
  4013ae:	4298      	cmp	r0, r3
  4013b0:	d807      	bhi.n	4013c2 <system_init_flash+0x16>
  4013b2:	f04f 6380 	mov.w	r3, #67108864	; 0x4000000
  4013b6:	4a19      	ldr	r2, [pc, #100]	; (40141c <system_init_flash+0x70>)
  4013b8:	6013      	str	r3, [r2, #0]
  4013ba:	f502 7200 	add.w	r2, r2, #512	; 0x200
  4013be:	6013      	str	r3, [r2, #0]
  4013c0:	4770      	bx	lr
  4013c2:	4b17      	ldr	r3, [pc, #92]	; (401420 <system_init_flash+0x74>)
  4013c4:	4298      	cmp	r0, r3
  4013c6:	d806      	bhi.n	4013d6 <system_init_flash+0x2a>
  4013c8:	4b16      	ldr	r3, [pc, #88]	; (401424 <system_init_flash+0x78>)
  4013ca:	4a14      	ldr	r2, [pc, #80]	; (40141c <system_init_flash+0x70>)
  4013cc:	6013      	str	r3, [r2, #0]
  4013ce:	f502 7200 	add.w	r2, r2, #512	; 0x200
  4013d2:	6013      	str	r3, [r2, #0]
  4013d4:	4770      	bx	lr
  4013d6:	4b14      	ldr	r3, [pc, #80]	; (401428 <system_init_flash+0x7c>)
  4013d8:	4298      	cmp	r0, r3
  4013da:	d806      	bhi.n	4013ea <system_init_flash+0x3e>
  4013dc:	4b13      	ldr	r3, [pc, #76]	; (40142c <system_init_flash+0x80>)
  4013de:	4a0f      	ldr	r2, [pc, #60]	; (40141c <system_init_flash+0x70>)
  4013e0:	6013      	str	r3, [r2, #0]
  4013e2:	f502 7200 	add.w	r2, r2, #512	; 0x200
  4013e6:	6013      	str	r3, [r2, #0]
  4013e8:	4770      	bx	lr
  4013ea:	4b11      	ldr	r3, [pc, #68]	; (401430 <system_init_flash+0x84>)
  4013ec:	4298      	cmp	r0, r3
  4013ee:	d806      	bhi.n	4013fe <system_init_flash+0x52>
  4013f0:	4b10      	ldr	r3, [pc, #64]	; (401434 <system_init_flash+0x88>)
  4013f2:	4a0a      	ldr	r2, [pc, #40]	; (40141c <system_init_flash+0x70>)
  4013f4:	6013      	str	r3, [r2, #0]
  4013f6:	f502 7200 	add.w	r2, r2, #512	; 0x200
  4013fa:	6013      	str	r3, [r2, #0]
  4013fc:	4770      	bx	lr
  4013fe:	4b0e      	ldr	r3, [pc, #56]	; (401438 <system_init_flash+0x8c>)
  401400:	4298      	cmp	r0, r3
  401402:	bf94      	ite	ls
  401404:	f04f 2304 	movls.w	r3, #67109888	; 0x4000400
  401408:	4b0c      	ldrhi	r3, [pc, #48]	; (40143c <system_init_flash+0x90>)
  40140a:	4a04      	ldr	r2, [pc, #16]	; (40141c <system_init_flash+0x70>)
  40140c:	6013      	str	r3, [r2, #0]
  40140e:	f502 7200 	add.w	r2, r2, #512	; 0x200
  401412:	6013      	str	r3, [r2, #0]
  401414:	4770      	bx	lr
  401416:	bf00      	nop
  401418:	01312cff 	.word	0x01312cff
  40141c:	400e0a00 	.word	0x400e0a00
  401420:	026259ff 	.word	0x026259ff
  401424:	04000100 	.word	0x04000100
  401428:	039386ff 	.word	0x039386ff
  40142c:	04000200 	.word	0x04000200
  401430:	04c4b3ff 	.word	0x04c4b3ff
  401434:	04000300 	.word	0x04000300
  401438:	05f5e0ff 	.word	0x05f5e0ff
  40143c:	04000500 	.word	0x04000500

00401440 <_sbrk>:
  401440:	4b09      	ldr	r3, [pc, #36]	; (401468 <_sbrk+0x28>)
  401442:	681b      	ldr	r3, [r3, #0]
  401444:	b913      	cbnz	r3, 40144c <_sbrk+0xc>
  401446:	4a09      	ldr	r2, [pc, #36]	; (40146c <_sbrk+0x2c>)
  401448:	4b07      	ldr	r3, [pc, #28]	; (401468 <_sbrk+0x28>)
  40144a:	601a      	str	r2, [r3, #0]
  40144c:	4b06      	ldr	r3, [pc, #24]	; (401468 <_sbrk+0x28>)
  40144e:	681b      	ldr	r3, [r3, #0]
  401450:	181a      	adds	r2, r3, r0
  401452:	4907      	ldr	r1, [pc, #28]	; (401470 <_sbrk+0x30>)
  401454:	4291      	cmp	r1, r2
  401456:	db04      	blt.n	401462 <_sbrk+0x22>
  401458:	4610      	mov	r0, r2
  40145a:	4a03      	ldr	r2, [pc, #12]	; (401468 <_sbrk+0x28>)
  40145c:	6010      	str	r0, [r2, #0]
  40145e:	4618      	mov	r0, r3
  401460:	4770      	bx	lr
  401462:	f04f 30ff 	mov.w	r0, #4294967295
  401466:	4770      	bx	lr
  401468:	20000cd8 	.word	0x20000cd8
  40146c:	20003d60 	.word	0x20003d60
  401470:	20027ffc 	.word	0x20027ffc
  401474:	00000000 	.word	0x00000000

00401478 <ADC_Handler>:

/**
* \brief ADC interrupt handler.
*/
void ADC_Handler(void)
{
  401478:	b510      	push	{r4, lr}
	uint32_t tmp;
	uint32_t status ;

	status = adc_get_status(ADC);
  40147a:	4811      	ldr	r0, [pc, #68]	; (4014c0 <ADC_Handler+0x48>)
  40147c:	4b11      	ldr	r3, [pc, #68]	; (4014c4 <ADC_Handler+0x4c>)
  40147e:	4798      	blx	r3
	
	/* Checa se a interrupo  devido ao canal 5 */
	if ((status & ADC_ISR_EOC5)) {
  401480:	f010 0f20 	tst.w	r0, #32
  401484:	d00e      	beq.n	4014a4 <ADC_Handler+0x2c>
		tmp = adc_get_channel_value(ADC, ADC_POT_CHANNEL);
  401486:	480e      	ldr	r0, [pc, #56]	; (4014c0 <ADC_Handler+0x48>)
  401488:	2105      	movs	r1, #5
  40148a:	4b0f      	ldr	r3, [pc, #60]	; (4014c8 <ADC_Handler+0x50>)
  40148c:	4798      	blx	r3
		res=2.4421*tmp;
  40148e:	4b0f      	ldr	r3, [pc, #60]	; (4014cc <ADC_Handler+0x54>)
  401490:	4798      	blx	r3
  401492:	a309      	add	r3, pc, #36	; (adr r3, 4014b8 <ADC_Handler+0x40>)
  401494:	e9d3 2300 	ldrd	r2, r3, [r3]
  401498:	4c0d      	ldr	r4, [pc, #52]	; (4014d0 <ADC_Handler+0x58>)
  40149a:	47a0      	blx	r4
  40149c:	4b0d      	ldr	r3, [pc, #52]	; (4014d4 <ADC_Handler+0x5c>)
  40149e:	4798      	blx	r3
  4014a0:	4b0d      	ldr	r3, [pc, #52]	; (4014d8 <ADC_Handler+0x60>)
  4014a2:	6018      	str	r0, [r3, #0]
	}
	//Transforma o inteiro (res) em string (valorAD)
		sprintf(valorAD, "Resistencia: %d", res);
  4014a4:	480d      	ldr	r0, [pc, #52]	; (4014dc <ADC_Handler+0x64>)
  4014a6:	490e      	ldr	r1, [pc, #56]	; (4014e0 <ADC_Handler+0x68>)
  4014a8:	4b0b      	ldr	r3, [pc, #44]	; (4014d8 <ADC_Handler+0x60>)
  4014aa:	681a      	ldr	r2, [r3, #0]
  4014ac:	4b0d      	ldr	r3, [pc, #52]	; (4014e4 <ADC_Handler+0x6c>)
  4014ae:	4798      	blx	r3
		flagn = 1;
  4014b0:	2201      	movs	r2, #1
  4014b2:	4b0d      	ldr	r3, [pc, #52]	; (4014e8 <ADC_Handler+0x70>)
  4014b4:	601a      	str	r2, [r3, #0]
  4014b6:	bd10      	pop	{r4, pc}
  4014b8:	b98c7e28 	.word	0xb98c7e28
  4014bc:	4003896b 	.word	0x4003896b
  4014c0:	40038000 	.word	0x40038000
  4014c4:	004001b1 	.word	0x004001b1
  4014c8:	0040019d 	.word	0x0040019d
  4014cc:	00402dd9 	.word	0x00402dd9
  4014d0:	00402ec5 	.word	0x00402ec5
  4014d4:	004033f9 	.word	0x004033f9
  4014d8:	20000ce0 	.word	0x20000ce0
  4014dc:	20000d1c 	.word	0x20000d1c
  4014e0:	00407e04 	.word	0x00407e04
  4014e4:	00403535 	.word	0x00403535
  4014e8:	20000cdc 	.word	0x20000cdc

004014ec <TC0_Handler>:
}


void TC0_Handler(void)
{
  4014ec:	b500      	push	{lr}
  4014ee:	b083      	sub	sp, #12
	volatile uint32_t ul_dummy;

    /****************************************************************
	* Devemos indicar ao TC que a interrupo foi satisfeita.
    ******************************************************************/
	ul_dummy = tc_get_status(TC0,0);
  4014f0:	4805      	ldr	r0, [pc, #20]	; (401508 <TC0_Handler+0x1c>)
  4014f2:	2100      	movs	r1, #0
  4014f4:	4b05      	ldr	r3, [pc, #20]	; (40150c <TC0_Handler+0x20>)
  4014f6:	4798      	blx	r3
  4014f8:	9001      	str	r0, [sp, #4]

	/* Avoid compiler warning */
	UNUSED(ul_dummy);
  4014fa:	9b01      	ldr	r3, [sp, #4]
	
	//Inicia a leitura de acordo com o clock
	adc_start(ADC);
  4014fc:	4804      	ldr	r0, [pc, #16]	; (401510 <TC0_Handler+0x24>)
  4014fe:	4b05      	ldr	r3, [pc, #20]	; (401514 <TC0_Handler+0x28>)
  401500:	4798      	blx	r3

}
  401502:	b003      	add	sp, #12
  401504:	f85d fb04 	ldr.w	pc, [sp], #4
  401508:	40010000 	.word	0x40010000
  40150c:	004001f9 	.word	0x004001f9
  401510:	40038000 	.word	0x40038000
  401514:	0040018d 	.word	0x0040018d

00401518 <configure_lcd>:
/************************************************************************/
/* CONFIGs                                                              */
/************************************************************************/

void configure_lcd()
{
  401518:	e92d 41f0 	stmdb	sp!, {r4, r5, r6, r7, r8, lr}
	/** Enable peripheral clock */
	pmc_enable_periph_clk(ID_SMC);
  40151c:	200a      	movs	r0, #10
  40151e:	4b1e      	ldr	r3, [pc, #120]	; (401598 <configure_lcd+0x80>)
  401520:	4798      	blx	r3

	/** Configure SMC interface for Lcd */
	smc_set_setup_timing(SMC, ILI93XX_LCD_CS, SMC_SETUP_NWE_SETUP(2)
  401522:	4c1e      	ldr	r4, [pc, #120]	; (40159c <configure_lcd+0x84>)
  401524:	4620      	mov	r0, r4
  401526:	2101      	movs	r1, #1
  401528:	f04f 3202 	mov.w	r2, #33686018	; 0x2020202
  40152c:	4b1c      	ldr	r3, [pc, #112]	; (4015a0 <configure_lcd+0x88>)
  40152e:	4798      	blx	r3
	| SMC_SETUP_NCS_WR_SETUP(2)
	| SMC_SETUP_NRD_SETUP(2)
	| SMC_SETUP_NCS_RD_SETUP(2));
	smc_set_pulse_timing(SMC, ILI93XX_LCD_CS, SMC_PULSE_NWE_PULSE(4)
  401530:	4620      	mov	r0, r4
  401532:	2101      	movs	r1, #1
  401534:	4a1b      	ldr	r2, [pc, #108]	; (4015a4 <configure_lcd+0x8c>)
  401536:	4b1c      	ldr	r3, [pc, #112]	; (4015a8 <configure_lcd+0x90>)
  401538:	4798      	blx	r3
	| SMC_PULSE_NCS_WR_PULSE(4)
	| SMC_PULSE_NRD_PULSE(10)
	| SMC_PULSE_NCS_RD_PULSE(10));
	smc_set_cycle_timing(SMC, ILI93XX_LCD_CS, SMC_CYCLE_NWE_CYCLE(10)
  40153a:	4620      	mov	r0, r4
  40153c:	2101      	movs	r1, #1
  40153e:	4a1b      	ldr	r2, [pc, #108]	; (4015ac <configure_lcd+0x94>)
  401540:	4b1b      	ldr	r3, [pc, #108]	; (4015b0 <configure_lcd+0x98>)
  401542:	4798      	blx	r3
	#if ((!defined(SAM4S)) && (!defined(SAM4E)))
	smc_set_mode(SMC, ILI93XX_LCD_CS, SMC_MODE_READ_MODE
	| SMC_MODE_WRITE_MODE
	| SMC_MODE_DBW_8_BIT);
	#else
	smc_set_mode(SMC, ILI93XX_LCD_CS, SMC_MODE_READ_MODE
  401544:	4620      	mov	r0, r4
  401546:	2101      	movs	r1, #1
  401548:	2203      	movs	r2, #3
  40154a:	4b1a      	ldr	r3, [pc, #104]	; (4015b4 <configure_lcd+0x9c>)
  40154c:	4798      	blx	r3
	| SMC_MODE_WRITE_MODE);
	#endif
	/** Initialize display parameter */
	g_ili93xx_display_opt.ul_width = ILI93XX_LCD_WIDTH;
  40154e:	4d1a      	ldr	r5, [pc, #104]	; (4015b8 <configure_lcd+0xa0>)
  401550:	27f0      	movs	r7, #240	; 0xf0
  401552:	602f      	str	r7, [r5, #0]
	g_ili93xx_display_opt.ul_height = ILI93XX_LCD_HEIGHT;
  401554:	f44f 76a0 	mov.w	r6, #320	; 0x140
  401558:	606e      	str	r6, [r5, #4]
	g_ili93xx_display_opt.foreground_color = COLOR_BLACK;
  40155a:	2400      	movs	r4, #0
  40155c:	60ac      	str	r4, [r5, #8]
	g_ili93xx_display_opt.background_color = COLOR_WHITE;
  40155e:	f06f 487f 	mvn.w	r8, #4278190080	; 0xff000000
  401562:	f8c5 800c 	str.w	r8, [r5, #12]

	/** Switch off backlight */
	aat31xx_disable_backlight();
  401566:	4b15      	ldr	r3, [pc, #84]	; (4015bc <configure_lcd+0xa4>)
  401568:	4798      	blx	r3

	/** Initialize LCD */
	ili93xx_init(&g_ili93xx_display_opt);
  40156a:	4628      	mov	r0, r5
  40156c:	4b14      	ldr	r3, [pc, #80]	; (4015c0 <configure_lcd+0xa8>)
  40156e:	4798      	blx	r3

	/** Set backlight level */
	aat31xx_set_backlight(AAT31XX_AVG_BACKLIGHT_LEVEL);
  401570:	2008      	movs	r0, #8
  401572:	4b14      	ldr	r3, [pc, #80]	; (4015c4 <configure_lcd+0xac>)
  401574:	4798      	blx	r3

	ili93xx_set_foreground_color(COLOR_WHITE);
  401576:	4640      	mov	r0, r8
  401578:	4b13      	ldr	r3, [pc, #76]	; (4015c8 <configure_lcd+0xb0>)
  40157a:	4798      	blx	r3
	ili93xx_draw_filled_rectangle(0, 0, ILI93XX_LCD_WIDTH,
  40157c:	4620      	mov	r0, r4
  40157e:	4621      	mov	r1, r4
  401580:	463a      	mov	r2, r7
  401582:	4633      	mov	r3, r6
  401584:	4d11      	ldr	r5, [pc, #68]	; (4015cc <configure_lcd+0xb4>)
  401586:	47a8      	blx	r5
	ILI93XX_LCD_HEIGHT);
	/** Turn on LCD */
	ili93xx_display_on();
  401588:	4b11      	ldr	r3, [pc, #68]	; (4015d0 <configure_lcd+0xb8>)
  40158a:	4798      	blx	r3
	ili93xx_set_cursor_position(0, 0);
  40158c:	4620      	mov	r0, r4
  40158e:	4621      	mov	r1, r4
  401590:	4b10      	ldr	r3, [pc, #64]	; (4015d4 <configure_lcd+0xbc>)
  401592:	4798      	blx	r3
  401594:	e8bd 81f0 	ldmia.w	sp!, {r4, r5, r6, r7, r8, pc}
  401598:	00401191 	.word	0x00401191
  40159c:	400e0000 	.word	0x400e0000
  4015a0:	00400ce9 	.word	0x00400ce9
  4015a4:	0a0a0404 	.word	0x0a0a0404
  4015a8:	00400cf1 	.word	0x00400cf1
  4015ac:	0016000a 	.word	0x0016000a
  4015b0:	00400cf9 	.word	0x00400cf9
  4015b4:	00400d01 	.word	0x00400d01
  4015b8:	20000d48 	.word	0x20000d48
  4015bc:	00400379 	.word	0x00400379
  4015c0:	004006b1 	.word	0x004006b1
  4015c4:	0040031d 	.word	0x0040031d
  4015c8:	004005d1 	.word	0x004005d1
  4015cc:	00400a11 	.word	0x00400a11
  4015d0:	0040059d 	.word	0x0040059d
  4015d4:	0040068d 	.word	0x0040068d

004015d8 <configure_adc>:
	tc_enable_interrupt(TC0,0,TC_IER_CPCS);
	tc_start(TC0,0);
}

void configure_adc(void)
{
  4015d8:	b538      	push	{r3, r4, r5, lr}
	/* Enable peripheral clock. */
	pmc_enable_periph_clk(ID_ADC);
  4015da:	201d      	movs	r0, #29
  4015dc:	4b14      	ldr	r3, [pc, #80]	; (401630 <configure_adc+0x58>)
  4015de:	4798      	blx	r3
	*/
	/* Formula:
	*     Startup  Time = startup value / ADCClock
	*     Startup time = 64 / 6.4MHz = 10 us
	*/
	adc_init(ADC, sysclk_get_cpu_hz(), 6400000, STARTUP_TIME);
  4015e0:	4c14      	ldr	r4, [pc, #80]	; (401634 <configure_adc+0x5c>)
  4015e2:	4620      	mov	r0, r4
  4015e4:	4914      	ldr	r1, [pc, #80]	; (401638 <configure_adc+0x60>)
  4015e6:	4a15      	ldr	r2, [pc, #84]	; (40163c <configure_adc+0x64>)
  4015e8:	f44f 2380 	mov.w	r3, #262144	; 0x40000
  4015ec:	4d14      	ldr	r5, [pc, #80]	; (401640 <configure_adc+0x68>)
  4015ee:	47a8      	blx	r5
	*
	*     Transfer Time = (1 * 2 + 3) / 6.4MHz = 781 ns
	*     Tracking Time = (1 + 1) / 6.4MHz = 312 ns
	*     Settling Time = 3 / 6.4MHz = 469 ns
	*/
	adc_configure_timing(ADC, TRACKING_TIME	, ADC_SETTLING_TIME_3, TRANSFER_PERIOD);
  4015f0:	4620      	mov	r0, r4
  4015f2:	2101      	movs	r1, #1
  4015f4:	f44f 1240 	mov.w	r2, #3145728	; 0x300000
  4015f8:	460b      	mov	r3, r1
  4015fa:	4d12      	ldr	r5, [pc, #72]	; (401644 <configure_adc+0x6c>)
  4015fc:	47a8      	blx	r5

	adc_configure_trigger(ADC, ADC_TRIG_SW, 0);
  4015fe:	4620      	mov	r0, r4
  401600:	2100      	movs	r1, #0
  401602:	460a      	mov	r2, r1
  401604:	4b10      	ldr	r3, [pc, #64]	; (401648 <configure_adc+0x70>)
  401606:	4798      	blx	r3

	//adc_check(ADC, sysclk_get_cpu_hz());

	/* Enable channel for potentiometer. */
	adc_enable_channel(ADC, ADC_POT_CHANNEL);
  401608:	4620      	mov	r0, r4
  40160a:	2105      	movs	r1, #5
  40160c:	4b0f      	ldr	r3, [pc, #60]	; (40164c <configure_adc+0x74>)
  40160e:	4798      	blx	r3

	/* Enable the temperature sensor. */
	adc_enable_ts(ADC);
  401610:	4620      	mov	r0, r4
  401612:	4b0f      	ldr	r3, [pc, #60]	; (401650 <configure_adc+0x78>)
  401614:	4798      	blx	r3
    \param [in]      IRQn  External interrupt number. Value cannot be negative.
 */
__STATIC_INLINE void NVIC_EnableIRQ(IRQn_Type IRQn)
{
/*  NVIC->ISER[((uint32_t)(IRQn) >> 5)] = (1 << ((uint32_t)(IRQn) & 0x1F));  enable interrupt */
  NVIC->ISER[(uint32_t)((int32_t)IRQn) >> 5] = (uint32_t)(1 << ((uint32_t)((int32_t)IRQn) & (uint32_t)0x1F)); /* enable interrupt */
  401616:	f04f 5200 	mov.w	r2, #536870912	; 0x20000000
  40161a:	4b0e      	ldr	r3, [pc, #56]	; (401654 <configure_adc+0x7c>)
  40161c:	601a      	str	r2, [r3, #0]

	/* Enable ADC interrupt. */
	NVIC_EnableIRQ(ADC_IRQn);

	/* Start conversion. */
	adc_start(ADC);
  40161e:	4620      	mov	r0, r4
  401620:	4b0d      	ldr	r3, [pc, #52]	; (401658 <configure_adc+0x80>)
  401622:	4798      	blx	r3
	//adc_read_buffer(ADC, gs_s_adc_values, BUFFER_SIZE);

	//adc_get_channel_value(ADC, ADC_POT_CHANNEL);

	/* Enable PDC channel interrupt. */
	adc_enable_interrupt(ADC, ADC_ISR_EOC5);
  401624:	4620      	mov	r0, r4
  401626:	2120      	movs	r1, #32
  401628:	4b0c      	ldr	r3, [pc, #48]	; (40165c <configure_adc+0x84>)
  40162a:	4798      	blx	r3
  40162c:	bd38      	pop	{r3, r4, r5, pc}
  40162e:	bf00      	nop
  401630:	00401191 	.word	0x00401191
  401634:	40038000 	.word	0x40038000
  401638:	07270e00 	.word	0x07270e00
  40163c:	0061a800 	.word	0x0061a800
  401640:	00400129 	.word	0x00400129
  401644:	0040016d 	.word	0x0040016d
  401648:	0040015d 	.word	0x0040015d
  40164c:	00400195 	.word	0x00400195
  401650:	004001b5 	.word	0x004001b5
  401654:	e000e100 	.word	0xe000e100
  401658:	0040018d 	.word	0x0040018d
  40165c:	004001ad 	.word	0x004001ad

00401660 <main>:
/************************************************************************/
/* MAIN                                                                 */
/************************************************************************/

int main(void)
{
  401660:	e92d 4770 	stmdb	sp!, {r4, r5, r6, r8, r9, sl, lr}
  401664:	b083      	sub	sp, #12
	int xcentro,ycentro,raio, altura, largura;
	double ang;
	sysclk_init();
  401666:	4b48      	ldr	r3, [pc, #288]	; (401788 <main+0x128>)
  401668:	4798      	blx	r3
	board_init();
  40166a:	4b48      	ldr	r3, [pc, #288]	; (40178c <main+0x12c>)
  40166c:	4798      	blx	r3

	configure_lcd();
  40166e:	4b48      	ldr	r3, [pc, #288]	; (401790 <main+0x130>)
  401670:	4798      	blx	r3
	//configure_botao();
	configure_adc();
  401672:	4b48      	ldr	r3, [pc, #288]	; (401794 <main+0x134>)
  401674:	4798      	blx	r3
}

static void configure_tc(void)
{
	uint32_t ul_sysclk = sysclk_get_cpu_hz();
	pmc_enable_periph_clk(ID_TC0);
  401676:	2017      	movs	r0, #23
  401678:	4b47      	ldr	r3, [pc, #284]	; (401798 <main+0x138>)
  40167a:	4798      	blx	r3
	tc_init(TC0,0,TC_CMR_CPCTRG | TC_CMR_TCCLKS_TIMER_CLOCK5);
  40167c:	4c47      	ldr	r4, [pc, #284]	; (40179c <main+0x13c>)
  40167e:	4620      	mov	r0, r4
  401680:	2100      	movs	r1, #0
  401682:	f244 0204 	movw	r2, #16388	; 0x4004
  401686:	4b46      	ldr	r3, [pc, #280]	; (4017a0 <main+0x140>)
  401688:	4798      	blx	r3
	tc_write_rc(TC0,0,32000);
  40168a:	4620      	mov	r0, r4
  40168c:	2100      	movs	r1, #0
  40168e:	f44f 42fa 	mov.w	r2, #32000	; 0x7d00
  401692:	4b44      	ldr	r3, [pc, #272]	; (4017a4 <main+0x144>)
  401694:	4798      	blx	r3
  401696:	f44f 0200 	mov.w	r2, #8388608	; 0x800000
  40169a:	4b43      	ldr	r3, [pc, #268]	; (4017a8 <main+0x148>)
  40169c:	601a      	str	r2, [r3, #0]
	NVIC_EnableIRQ(ID_TC0);
	tc_enable_interrupt(TC0,0,TC_IER_CPCS);
  40169e:	4620      	mov	r0, r4
  4016a0:	2100      	movs	r1, #0
  4016a2:	2210      	movs	r2, #16
  4016a4:	4b41      	ldr	r3, [pc, #260]	; (4017ac <main+0x14c>)
  4016a6:	4798      	blx	r3
	tc_start(TC0,0);
  4016a8:	4620      	mov	r0, r4
  4016aa:	2100      	movs	r1, #0
  4016ac:	4b40      	ldr	r3, [pc, #256]	; (4017b0 <main+0x150>)
  4016ae:	4798      	blx	r3
	//configure_botao();
	configure_adc();
	configure_tc();

	/** Draw text, image and basic shapes on the LCD */
	ili93xx_set_foreground_color(COLOR_BLACK);
  4016b0:	2000      	movs	r0, #0
  4016b2:	4b40      	ldr	r3, [pc, #256]	; (4017b4 <main+0x154>)
  4016b4:	4798      	blx	r3
	ili93xx_draw_string(10, 20, (uint8_t *)"14 - ADC");
  4016b6:	200a      	movs	r0, #10
  4016b8:	2114      	movs	r1, #20
  4016ba:	4a3f      	ldr	r2, [pc, #252]	; (4017b8 <main+0x158>)
  4016bc:	4b3f      	ldr	r3, [pc, #252]	; (4017bc <main+0x15c>)
  4016be:	4798      	blx	r3

	while (1) {
		if(flagn==1)
  4016c0:	f8df a130 	ldr.w	sl, [pc, #304]	; 4017f4 <main+0x194>
		{
			/*Retangulo anterior
			ili93xx_set_foreground_color(COLOR_WHITE);
			ili93xx_draw_filled_rectangle(0,95,240,130);*/
			
			ili93xx_set_foreground_color(COLOR_WHITE);
  4016c4:	4d3b      	ldr	r5, [pc, #236]	; (4017b4 <main+0x154>)
	/** Draw text, image and basic shapes on the LCD */
	ili93xx_set_foreground_color(COLOR_BLACK);
	ili93xx_draw_string(10, 20, (uint8_t *)"14 - ADC");

	while (1) {
		if(flagn==1)
  4016c6:	f8da 3000 	ldr.w	r3, [sl]
  4016ca:	2b01      	cmp	r3, #1
  4016cc:	d1fd      	bne.n	4016ca <main+0x6a>
		{
			/*Retangulo anterior
			ili93xx_set_foreground_color(COLOR_WHITE);
			ili93xx_draw_filled_rectangle(0,95,240,130);*/
			
			ili93xx_set_foreground_color(COLOR_WHITE);
  4016ce:	f06f 407f 	mvn.w	r0, #4278190080	; 0xff000000
  4016d2:	47a8      	blx	r5
			ili93xx_draw_filled_rectangle(0,95,ILI93XX_LCD_WIDTH, ILI93XX_LCD_HEIGHT);
  4016d4:	2000      	movs	r0, #0
  4016d6:	215f      	movs	r1, #95	; 0x5f
  4016d8:	22f0      	movs	r2, #240	; 0xf0
  4016da:	f44f 73a0 	mov.w	r3, #320	; 0x140
  4016de:	4c38      	ldr	r4, [pc, #224]	; (4017c0 <main+0x160>)
  4016e0:	47a0      	blx	r4
			
			ili93xx_set_foreground_color(COLOR_RED);
  4016e2:	f44f 007f 	mov.w	r0, #16711680	; 0xff0000
  4016e6:	47a8      	blx	r5
			ili93xx_draw_string(10, 110, valorAD);
  4016e8:	200a      	movs	r0, #10
  4016ea:	216e      	movs	r1, #110	; 0x6e
  4016ec:	4a35      	ldr	r2, [pc, #212]	; (4017c4 <main+0x164>)
  4016ee:	4b33      	ldr	r3, [pc, #204]	; (4017bc <main+0x15c>)
  4016f0:	4798      	blx	r3
			//Circulo do potenciometro
			xcentro=120;
			ycentro=220;
			raio=50;
			
			ili93xx_set_foreground_color(COLOR_BLACK);
  4016f2:	2000      	movs	r0, #0
  4016f4:	47a8      	blx	r5
			ili93xx_draw_circle(xcentro, ycentro, raio);
  4016f6:	2078      	movs	r0, #120	; 0x78
  4016f8:	21dc      	movs	r1, #220	; 0xdc
  4016fa:	2232      	movs	r2, #50	; 0x32
  4016fc:	4b32      	ldr	r3, [pc, #200]	; (4017c8 <main+0x168>)
  4016fe:	4798      	blx	r3
			
			
			//Medidor potenciometro (barra)
			ang=0.018*res*3.14/180;
  401700:	4b32      	ldr	r3, [pc, #200]	; (4017cc <main+0x16c>)
  401702:	6818      	ldr	r0, [r3, #0]
  401704:	4b32      	ldr	r3, [pc, #200]	; (4017d0 <main+0x170>)
  401706:	4798      	blx	r3
  401708:	4c32      	ldr	r4, [pc, #200]	; (4017d4 <main+0x174>)
  40170a:	a31b      	add	r3, pc, #108	; (adr r3, 401778 <main+0x118>)
  40170c:	e9d3 2300 	ldrd	r2, r3, [r3]
  401710:	47a0      	blx	r4
  401712:	a31b      	add	r3, pc, #108	; (adr r3, 401780 <main+0x120>)
  401714:	e9d3 2300 	ldrd	r2, r3, [r3]
  401718:	47a0      	blx	r4
  40171a:	2200      	movs	r2, #0
  40171c:	4b2e      	ldr	r3, [pc, #184]	; (4017d8 <main+0x178>)
  40171e:	4e2f      	ldr	r6, [pc, #188]	; (4017dc <main+0x17c>)
  401720:	47b0      	blx	r6
  401722:	4680      	mov	r8, r0
  401724:	4689      	mov	r9, r1
			altura=(raio+5)*sin(ang);
  401726:	4b2e      	ldr	r3, [pc, #184]	; (4017e0 <main+0x180>)
  401728:	4798      	blx	r3
  40172a:	e9cd 0100 	strd	r0, r1, [sp]
			largura=(raio+5)*cos(ang);
  40172e:	4640      	mov	r0, r8
  401730:	4649      	mov	r1, r9
  401732:	4b2c      	ldr	r3, [pc, #176]	; (4017e4 <main+0x184>)
  401734:	4798      	blx	r3
  401736:	4680      	mov	r8, r0
  401738:	4689      	mov	r9, r1
						
			
			//Configurao Retangulo (x,y,x,y)
			ili93xx_set_foreground_color(COLOR_BLACK);
  40173a:	2000      	movs	r0, #0
  40173c:	47a8      	blx	r5
			
			
			//Medidor potenciometro (barra)
			ang=0.018*res*3.14/180;
			altura=(raio+5)*sin(ang);
			largura=(raio+5)*cos(ang);
  40173e:	4640      	mov	r0, r8
  401740:	4649      	mov	r1, r9
  401742:	2200      	movs	r2, #0
  401744:	4b28      	ldr	r3, [pc, #160]	; (4017e8 <main+0x188>)
  401746:	47a0      	blx	r4
  401748:	4e28      	ldr	r6, [pc, #160]	; (4017ec <main+0x18c>)
  40174a:	47b0      	blx	r6
						
			
			//Configurao Retangulo (x,y,x,y)
			ili93xx_set_foreground_color(COLOR_BLACK);
			ili93xx_draw_line((xcentro-largura)-1, ycentro-altura-1,xcentro ,ycentro+1);
  40174c:	f1c0 0977 	rsb	r9, r0, #119	; 0x77
			ili93xx_draw_circle(xcentro, ycentro, raio);
			
			
			//Medidor potenciometro (barra)
			ang=0.018*res*3.14/180;
			altura=(raio+5)*sin(ang);
  401750:	e9dd 0100 	ldrd	r0, r1, [sp]
  401754:	2200      	movs	r2, #0
  401756:	4b24      	ldr	r3, [pc, #144]	; (4017e8 <main+0x188>)
  401758:	47a0      	blx	r4
  40175a:	47b0      	blx	r6
			largura=(raio+5)*cos(ang);
						
			
			//Configurao Retangulo (x,y,x,y)
			ili93xx_set_foreground_color(COLOR_BLACK);
			ili93xx_draw_line((xcentro-largura)-1, ycentro-altura-1,xcentro ,ycentro+1);
  40175c:	f1c0 01db 	rsb	r1, r0, #219	; 0xdb
  401760:	4648      	mov	r0, r9
  401762:	2278      	movs	r2, #120	; 0x78
  401764:	23dd      	movs	r3, #221	; 0xdd
  401766:	4c22      	ldr	r4, [pc, #136]	; (4017f0 <main+0x190>)
  401768:	47a0      	blx	r4
			
			flagn = 0;
  40176a:	2300      	movs	r3, #0
  40176c:	f8ca 3000 	str.w	r3, [sl]
  401770:	e7a9      	b.n	4016c6 <main+0x66>
  401772:	bf00      	nop
  401774:	f3af 8000 	nop.w
  401778:	8d4fdf3b 	.word	0x8d4fdf3b
  40177c:	3f926e97 	.word	0x3f926e97
  401780:	51eb851f 	.word	0x51eb851f
  401784:	40091eb8 	.word	0x40091eb8
  401788:	00400201 	.word	0x00400201
  40178c:	00400265 	.word	0x00400265
  401790:	00401519 	.word	0x00401519
  401794:	004015d9 	.word	0x004015d9
  401798:	00401191 	.word	0x00401191
  40179c:	40010000 	.word	0x40010000
  4017a0:	004001c5 	.word	0x004001c5
  4017a4:	004001e9 	.word	0x004001e9
  4017a8:	e000e100 	.word	0xe000e100
  4017ac:	004001f1 	.word	0x004001f1
  4017b0:	004001e1 	.word	0x004001e1
  4017b4:	004005d1 	.word	0x004005d1
  4017b8:	00407e14 	.word	0x00407e14
  4017bc:	00400c3d 	.word	0x00400c3d
  4017c0:	00400a11 	.word	0x00400a11
  4017c4:	20000d1c 	.word	0x20000d1c
  4017c8:	00400ba1 	.word	0x00400ba1
  4017cc:	20000ce0 	.word	0x20000ce0
  4017d0:	00402df9 	.word	0x00402df9
  4017d4:	00402ec5 	.word	0x00402ec5
  4017d8:	40668000 	.word	0x40668000
  4017dc:	00403119 	.word	0x00403119
  4017e0:	00401881 	.word	0x00401881
  4017e4:	004017f9 	.word	0x004017f9
  4017e8:	404b8000 	.word	0x404b8000
  4017ec:	004033f9 	.word	0x004033f9
  4017f0:	00400ad5 	.word	0x00400ad5
  4017f4:	20000cdc 	.word	0x20000cdc

004017f8 <cos>:
  4017f8:	b530      	push	{r4, r5, lr}
  4017fa:	4a1f      	ldr	r2, [pc, #124]	; (401878 <cos+0x80>)
  4017fc:	f021 4300 	bic.w	r3, r1, #2147483648	; 0x80000000
  401800:	4293      	cmp	r3, r2
  401802:	b087      	sub	sp, #28
  401804:	dd1b      	ble.n	40183e <cos+0x46>
  401806:	4a1d      	ldr	r2, [pc, #116]	; (40187c <cos+0x84>)
  401808:	4293      	cmp	r3, r2
  40180a:	dd05      	ble.n	401818 <cos+0x20>
  40180c:	4602      	mov	r2, r0
  40180e:	460b      	mov	r3, r1
  401810:	f001 f9a4 	bl	402b5c <__aeabi_dsub>
  401814:	b007      	add	sp, #28
  401816:	bd30      	pop	{r4, r5, pc}
  401818:	aa02      	add	r2, sp, #8
  40181a:	f000 f87d 	bl	401918 <__ieee754_rem_pio2>
  40181e:	f000 0303 	and.w	r3, r0, #3
  401822:	2b01      	cmp	r3, #1
  401824:	e9dd 0102 	ldrd	r0, r1, [sp, #8]
  401828:	d016      	beq.n	401858 <cos+0x60>
  40182a:	2b02      	cmp	r3, #2
  40182c:	d00d      	beq.n	40184a <cos+0x52>
  40182e:	b1eb      	cbz	r3, 40186c <cos+0x74>
  401830:	2401      	movs	r4, #1
  401832:	e9dd 2304 	ldrd	r2, r3, [sp, #16]
  401836:	9400      	str	r4, [sp, #0]
  401838:	f000 ffba 	bl	4027b0 <__kernel_sin>
  40183c:	e7ea      	b.n	401814 <cos+0x1c>
  40183e:	2200      	movs	r2, #0
  401840:	2300      	movs	r3, #0
  401842:	f000 fa8d 	bl	401d60 <__kernel_cos>
  401846:	b007      	add	sp, #28
  401848:	bd30      	pop	{r4, r5, pc}
  40184a:	e9dd 2304 	ldrd	r2, r3, [sp, #16]
  40184e:	f000 fa87 	bl	401d60 <__kernel_cos>
  401852:	f101 4100 	add.w	r1, r1, #2147483648	; 0x80000000
  401856:	e7dd      	b.n	401814 <cos+0x1c>
  401858:	e9dd 4504 	ldrd	r4, r5, [sp, #16]
  40185c:	9300      	str	r3, [sp, #0]
  40185e:	4622      	mov	r2, r4
  401860:	462b      	mov	r3, r5
  401862:	f000 ffa5 	bl	4027b0 <__kernel_sin>
  401866:	f101 4100 	add.w	r1, r1, #2147483648	; 0x80000000
  40186a:	e7d3      	b.n	401814 <cos+0x1c>
  40186c:	e9dd 2304 	ldrd	r2, r3, [sp, #16]
  401870:	f000 fa76 	bl	401d60 <__kernel_cos>
  401874:	e7ce      	b.n	401814 <cos+0x1c>
  401876:	bf00      	nop
  401878:	3fe921fb 	.word	0x3fe921fb
  40187c:	7fefffff 	.word	0x7fefffff

00401880 <sin>:
  401880:	b530      	push	{r4, r5, lr}
  401882:	4a22      	ldr	r2, [pc, #136]	; (40190c <sin+0x8c>)
  401884:	f021 4300 	bic.w	r3, r1, #2147483648	; 0x80000000
  401888:	4293      	cmp	r3, r2
  40188a:	b087      	sub	sp, #28
  40188c:	dd1b      	ble.n	4018c6 <sin+0x46>
  40188e:	4a20      	ldr	r2, [pc, #128]	; (401910 <sin+0x90>)
  401890:	4293      	cmp	r3, r2
  401892:	dd05      	ble.n	4018a0 <sin+0x20>
  401894:	4602      	mov	r2, r0
  401896:	460b      	mov	r3, r1
  401898:	f001 f960 	bl	402b5c <__aeabi_dsub>
  40189c:	b007      	add	sp, #28
  40189e:	bd30      	pop	{r4, r5, pc}
  4018a0:	aa02      	add	r2, sp, #8
  4018a2:	f000 f839 	bl	401918 <__ieee754_rem_pio2>
  4018a6:	f000 0003 	and.w	r0, r0, #3
  4018aa:	2801      	cmp	r0, #1
  4018ac:	d01e      	beq.n	4018ec <sin+0x6c>
  4018ae:	2802      	cmp	r0, #2
  4018b0:	d011      	beq.n	4018d6 <sin+0x56>
  4018b2:	b310      	cbz	r0, 4018fa <sin+0x7a>
  4018b4:	e9dd 0102 	ldrd	r0, r1, [sp, #8]
  4018b8:	e9dd 2304 	ldrd	r2, r3, [sp, #16]
  4018bc:	f000 fa50 	bl	401d60 <__kernel_cos>
  4018c0:	f101 4100 	add.w	r1, r1, #2147483648	; 0x80000000
  4018c4:	e7ea      	b.n	40189c <sin+0x1c>
  4018c6:	2300      	movs	r3, #0
  4018c8:	9300      	str	r3, [sp, #0]
  4018ca:	2200      	movs	r2, #0
  4018cc:	2300      	movs	r3, #0
  4018ce:	f000 ff6f 	bl	4027b0 <__kernel_sin>
  4018d2:	b007      	add	sp, #28
  4018d4:	bd30      	pop	{r4, r5, pc}
  4018d6:	2401      	movs	r4, #1
  4018d8:	e9dd 0102 	ldrd	r0, r1, [sp, #8]
  4018dc:	e9dd 2304 	ldrd	r2, r3, [sp, #16]
  4018e0:	9400      	str	r4, [sp, #0]
  4018e2:	f000 ff65 	bl	4027b0 <__kernel_sin>
  4018e6:	f101 4100 	add.w	r1, r1, #2147483648	; 0x80000000
  4018ea:	e7d7      	b.n	40189c <sin+0x1c>
  4018ec:	e9dd 0102 	ldrd	r0, r1, [sp, #8]
  4018f0:	e9dd 2304 	ldrd	r2, r3, [sp, #16]
  4018f4:	f000 fa34 	bl	401d60 <__kernel_cos>
  4018f8:	e7d0      	b.n	40189c <sin+0x1c>
  4018fa:	2401      	movs	r4, #1
  4018fc:	e9dd 0102 	ldrd	r0, r1, [sp, #8]
  401900:	e9dd 2304 	ldrd	r2, r3, [sp, #16]
  401904:	9400      	str	r4, [sp, #0]
  401906:	f000 ff53 	bl	4027b0 <__kernel_sin>
  40190a:	e7c7      	b.n	40189c <sin+0x1c>
  40190c:	3fe921fb 	.word	0x3fe921fb
  401910:	7fefffff 	.word	0x7fefffff
  401914:	00000000 	.word	0x00000000

00401918 <__ieee754_rem_pio2>:
  401918:	e92d 4ff0 	stmdb	sp!, {r4, r5, r6, r7, r8, r9, sl, fp, lr}
  40191c:	4e96      	ldr	r6, [pc, #600]	; (401b78 <__ieee754_rem_pio2+0x260>)
  40191e:	f021 4b00 	bic.w	fp, r1, #2147483648	; 0x80000000
  401922:	45b3      	cmp	fp, r6
  401924:	b08f      	sub	sp, #60	; 0x3c
  401926:	460c      	mov	r4, r1
  401928:	f340 8081 	ble.w	401a2e <__ieee754_rem_pio2+0x116>
  40192c:	4692      	mov	sl, r2
  40192e:	4a93      	ldr	r2, [pc, #588]	; (401b7c <__ieee754_rem_pio2+0x264>)
  401930:	4593      	cmp	fp, r2
  401932:	dc26      	bgt.n	401982 <__ieee754_rem_pio2+0x6a>
  401934:	2900      	cmp	r1, #0
  401936:	a386      	add	r3, pc, #536	; (adr r3, 401b50 <__ieee754_rem_pio2+0x238>)
  401938:	e9d3 2300 	ldrd	r2, r3, [r3]
  40193c:	f340 81a8 	ble.w	401c90 <__ieee754_rem_pio2+0x378>
  401940:	f001 f90c 	bl	402b5c <__aeabi_dsub>
  401944:	4b8e      	ldr	r3, [pc, #568]	; (401b80 <__ieee754_rem_pio2+0x268>)
  401946:	459b      	cmp	fp, r3
  401948:	4604      	mov	r4, r0
  40194a:	460d      	mov	r5, r1
  40194c:	f000 8084 	beq.w	401a58 <__ieee754_rem_pio2+0x140>
  401950:	a381      	add	r3, pc, #516	; (adr r3, 401b58 <__ieee754_rem_pio2+0x240>)
  401952:	e9d3 2300 	ldrd	r2, r3, [r3]
  401956:	f001 f901 	bl	402b5c <__aeabi_dsub>
  40195a:	4602      	mov	r2, r0
  40195c:	460b      	mov	r3, r1
  40195e:	e9ca 2300 	strd	r2, r3, [sl]
  401962:	4620      	mov	r0, r4
  401964:	4629      	mov	r1, r5
  401966:	f001 f8f9 	bl	402b5c <__aeabi_dsub>
  40196a:	a37b      	add	r3, pc, #492	; (adr r3, 401b58 <__ieee754_rem_pio2+0x240>)
  40196c:	e9d3 2300 	ldrd	r2, r3, [r3]
  401970:	f001 f8f4 	bl	402b5c <__aeabi_dsub>
  401974:	2501      	movs	r5, #1
  401976:	e9ca 0102 	strd	r0, r1, [sl, #8]
  40197a:	4628      	mov	r0, r5
  40197c:	b00f      	add	sp, #60	; 0x3c
  40197e:	e8bd 8ff0 	ldmia.w	sp!, {r4, r5, r6, r7, r8, r9, sl, fp, pc}
  401982:	4a80      	ldr	r2, [pc, #512]	; (401b84 <__ieee754_rem_pio2+0x26c>)
  401984:	4593      	cmp	fp, r2
  401986:	f340 8084 	ble.w	401a92 <__ieee754_rem_pio2+0x17a>
  40198a:	4a7f      	ldr	r2, [pc, #508]	; (401b88 <__ieee754_rem_pio2+0x270>)
  40198c:	4593      	cmp	fp, r2
  40198e:	dc59      	bgt.n	401a44 <__ieee754_rem_pio2+0x12c>
  401990:	ea4f 552b 	mov.w	r5, fp, asr #20
  401994:	f2a5 4516 	subw	r5, r5, #1046	; 0x416
  401998:	ebab 5705 	sub.w	r7, fp, r5, lsl #20
  40199c:	4639      	mov	r1, r7
  40199e:	4606      	mov	r6, r0
  4019a0:	f001 fd2a 	bl	4033f8 <__aeabi_d2iz>
  4019a4:	f001 fa28 	bl	402df8 <__aeabi_i2d>
  4019a8:	4680      	mov	r8, r0
  4019aa:	4689      	mov	r9, r1
  4019ac:	4602      	mov	r2, r0
  4019ae:	460b      	mov	r3, r1
  4019b0:	4630      	mov	r0, r6
  4019b2:	4639      	mov	r1, r7
  4019b4:	e9cd 8908 	strd	r8, r9, [sp, #32]
  4019b8:	f001 f8d0 	bl	402b5c <__aeabi_dsub>
  4019bc:	2200      	movs	r2, #0
  4019be:	4b73      	ldr	r3, [pc, #460]	; (401b8c <__ieee754_rem_pio2+0x274>)
  4019c0:	f001 fa80 	bl	402ec4 <__aeabi_dmul>
  4019c4:	460f      	mov	r7, r1
  4019c6:	4606      	mov	r6, r0
  4019c8:	f001 fd16 	bl	4033f8 <__aeabi_d2iz>
  4019cc:	f001 fa14 	bl	402df8 <__aeabi_i2d>
  4019d0:	4602      	mov	r2, r0
  4019d2:	460b      	mov	r3, r1
  4019d4:	4680      	mov	r8, r0
  4019d6:	4689      	mov	r9, r1
  4019d8:	4630      	mov	r0, r6
  4019da:	4639      	mov	r1, r7
  4019dc:	e9cd 890a 	strd	r8, r9, [sp, #40]	; 0x28
  4019e0:	f001 f8bc 	bl	402b5c <__aeabi_dsub>
  4019e4:	2200      	movs	r2, #0
  4019e6:	4b69      	ldr	r3, [pc, #420]	; (401b8c <__ieee754_rem_pio2+0x274>)
  4019e8:	f001 fa6c 	bl	402ec4 <__aeabi_dmul>
  4019ec:	2200      	movs	r2, #0
  4019ee:	2300      	movs	r3, #0
  4019f0:	e9cd 010c 	strd	r0, r1, [sp, #48]	; 0x30
  4019f4:	f001 fcce 	bl	403394 <__aeabi_dcmpeq>
  4019f8:	2800      	cmp	r0, #0
  4019fa:	f000 8175 	beq.w	401ce8 <__ieee754_rem_pio2+0x3d0>
  4019fe:	2300      	movs	r3, #0
  401a00:	4640      	mov	r0, r8
  401a02:	4649      	mov	r1, r9
  401a04:	2200      	movs	r2, #0
  401a06:	f001 fcc5 	bl	403394 <__aeabi_dcmpeq>
  401a0a:	2800      	cmp	r0, #0
  401a0c:	bf14      	ite	ne
  401a0e:	2301      	movne	r3, #1
  401a10:	2302      	moveq	r3, #2
  401a12:	2202      	movs	r2, #2
  401a14:	495e      	ldr	r1, [pc, #376]	; (401b90 <__ieee754_rem_pio2+0x278>)
  401a16:	9200      	str	r2, [sp, #0]
  401a18:	9101      	str	r1, [sp, #4]
  401a1a:	462a      	mov	r2, r5
  401a1c:	a808      	add	r0, sp, #32
  401a1e:	4651      	mov	r1, sl
  401a20:	f000 fac2 	bl	401fa8 <__kernel_rem_pio2>
  401a24:	2c00      	cmp	r4, #0
  401a26:	f2c0 8151 	blt.w	401ccc <__ieee754_rem_pio2+0x3b4>
  401a2a:	4605      	mov	r5, r0
  401a2c:	e006      	b.n	401a3c <__ieee754_rem_pio2+0x124>
  401a2e:	e9c2 0100 	strd	r0, r1, [r2]
  401a32:	2500      	movs	r5, #0
  401a34:	2400      	movs	r4, #0
  401a36:	e9c2 4502 	strd	r4, r5, [r2, #8]
  401a3a:	2500      	movs	r5, #0
  401a3c:	4628      	mov	r0, r5
  401a3e:	b00f      	add	sp, #60	; 0x3c
  401a40:	e8bd 8ff0 	ldmia.w	sp!, {r4, r5, r6, r7, r8, r9, sl, fp, pc}
  401a44:	4602      	mov	r2, r0
  401a46:	460b      	mov	r3, r1
  401a48:	f001 f888 	bl	402b5c <__aeabi_dsub>
  401a4c:	2500      	movs	r5, #0
  401a4e:	e9ca 0102 	strd	r0, r1, [sl, #8]
  401a52:	e9ca 0100 	strd	r0, r1, [sl]
  401a56:	e7f1      	b.n	401a3c <__ieee754_rem_pio2+0x124>
  401a58:	a341      	add	r3, pc, #260	; (adr r3, 401b60 <__ieee754_rem_pio2+0x248>)
  401a5a:	e9d3 2300 	ldrd	r2, r3, [r3]
  401a5e:	f001 f87d 	bl	402b5c <__aeabi_dsub>
  401a62:	a341      	add	r3, pc, #260	; (adr r3, 401b68 <__ieee754_rem_pio2+0x250>)
  401a64:	e9d3 2300 	ldrd	r2, r3, [r3]
  401a68:	460d      	mov	r5, r1
  401a6a:	4604      	mov	r4, r0
  401a6c:	f001 f876 	bl	402b5c <__aeabi_dsub>
  401a70:	4602      	mov	r2, r0
  401a72:	460b      	mov	r3, r1
  401a74:	e9ca 2300 	strd	r2, r3, [sl]
  401a78:	4629      	mov	r1, r5
  401a7a:	4620      	mov	r0, r4
  401a7c:	f001 f86e 	bl	402b5c <__aeabi_dsub>
  401a80:	a339      	add	r3, pc, #228	; (adr r3, 401b68 <__ieee754_rem_pio2+0x250>)
  401a82:	e9d3 2300 	ldrd	r2, r3, [r3]
  401a86:	f001 f869 	bl	402b5c <__aeabi_dsub>
  401a8a:	2501      	movs	r5, #1
  401a8c:	e9ca 0102 	strd	r0, r1, [sl, #8]
  401a90:	e7d4      	b.n	401a3c <__ieee754_rem_pio2+0x124>
  401a92:	f000 ff43 	bl	40291c <fabs>
  401a96:	a336      	add	r3, pc, #216	; (adr r3, 401b70 <__ieee754_rem_pio2+0x258>)
  401a98:	e9d3 2300 	ldrd	r2, r3, [r3]
  401a9c:	4606      	mov	r6, r0
  401a9e:	460f      	mov	r7, r1
  401aa0:	f001 fa10 	bl	402ec4 <__aeabi_dmul>
  401aa4:	2200      	movs	r2, #0
  401aa6:	4b3b      	ldr	r3, [pc, #236]	; (401b94 <__ieee754_rem_pio2+0x27c>)
  401aa8:	f001 f85a 	bl	402b60 <__adddf3>
  401aac:	f001 fca4 	bl	4033f8 <__aeabi_d2iz>
  401ab0:	4605      	mov	r5, r0
  401ab2:	f001 f9a1 	bl	402df8 <__aeabi_i2d>
  401ab6:	a326      	add	r3, pc, #152	; (adr r3, 401b50 <__ieee754_rem_pio2+0x238>)
  401ab8:	e9d3 2300 	ldrd	r2, r3, [r3]
  401abc:	e9cd 0104 	strd	r0, r1, [sp, #16]
  401ac0:	f001 fa00 	bl	402ec4 <__aeabi_dmul>
  401ac4:	4602      	mov	r2, r0
  401ac6:	460b      	mov	r3, r1
  401ac8:	4630      	mov	r0, r6
  401aca:	4639      	mov	r1, r7
  401acc:	f001 f846 	bl	402b5c <__aeabi_dsub>
  401ad0:	a321      	add	r3, pc, #132	; (adr r3, 401b58 <__ieee754_rem_pio2+0x240>)
  401ad2:	e9d3 2300 	ldrd	r2, r3, [r3]
  401ad6:	4680      	mov	r8, r0
  401ad8:	4689      	mov	r9, r1
  401ada:	e9dd 0104 	ldrd	r0, r1, [sp, #16]
  401ade:	f001 f9f1 	bl	402ec4 <__aeabi_dmul>
  401ae2:	2d1f      	cmp	r5, #31
  401ae4:	e9cd 0102 	strd	r0, r1, [sp, #8]
  401ae8:	4640      	mov	r0, r8
  401aea:	4649      	mov	r1, r9
  401aec:	dc56      	bgt.n	401b9c <__ieee754_rem_pio2+0x284>
  401aee:	4b2a      	ldr	r3, [pc, #168]	; (401b98 <__ieee754_rem_pio2+0x280>)
  401af0:	1e6a      	subs	r2, r5, #1
  401af2:	f853 3022 	ldr.w	r3, [r3, r2, lsl #2]
  401af6:	455b      	cmp	r3, fp
  401af8:	d050      	beq.n	401b9c <__ieee754_rem_pio2+0x284>
  401afa:	e9dd 2302 	ldrd	r2, r3, [sp, #8]
  401afe:	f001 f82d 	bl	402b5c <__aeabi_dsub>
  401b02:	4602      	mov	r2, r0
  401b04:	460b      	mov	r3, r1
  401b06:	e9ca 2300 	strd	r2, r3, [sl]
  401b0a:	4607      	mov	r7, r0
  401b0c:	460e      	mov	r6, r1
  401b0e:	463a      	mov	r2, r7
  401b10:	4633      	mov	r3, r6
  401b12:	4640      	mov	r0, r8
  401b14:	4649      	mov	r1, r9
  401b16:	f001 f821 	bl	402b5c <__aeabi_dsub>
  401b1a:	e9dd 2302 	ldrd	r2, r3, [sp, #8]
  401b1e:	f001 f81d 	bl	402b5c <__aeabi_dsub>
  401b22:	2c00      	cmp	r4, #0
  401b24:	4602      	mov	r2, r0
  401b26:	460b      	mov	r3, r1
  401b28:	e9ca 2302 	strd	r2, r3, [sl, #8]
  401b2c:	da86      	bge.n	401a3c <__ieee754_rem_pio2+0x124>
  401b2e:	f106 4600 	add.w	r6, r6, #2147483648	; 0x80000000
  401b32:	f101 4100 	add.w	r1, r1, #2147483648	; 0x80000000
  401b36:	f8ca 7000 	str.w	r7, [sl]
  401b3a:	f8ca 6004 	str.w	r6, [sl, #4]
  401b3e:	f8ca 100c 	str.w	r1, [sl, #12]
  401b42:	f8ca 0008 	str.w	r0, [sl, #8]
  401b46:	426d      	negs	r5, r5
  401b48:	e778      	b.n	401a3c <__ieee754_rem_pio2+0x124>
  401b4a:	bf00      	nop
  401b4c:	f3af 8000 	nop.w
  401b50:	54400000 	.word	0x54400000
  401b54:	3ff921fb 	.word	0x3ff921fb
  401b58:	1a626331 	.word	0x1a626331
  401b5c:	3dd0b461 	.word	0x3dd0b461
  401b60:	1a600000 	.word	0x1a600000
  401b64:	3dd0b461 	.word	0x3dd0b461
  401b68:	2e037073 	.word	0x2e037073
  401b6c:	3ba3198a 	.word	0x3ba3198a
  401b70:	6dc9c883 	.word	0x6dc9c883
  401b74:	3fe45f30 	.word	0x3fe45f30
  401b78:	3fe921fb 	.word	0x3fe921fb
  401b7c:	4002d97b 	.word	0x4002d97b
  401b80:	3ff921fb 	.word	0x3ff921fb
  401b84:	413921fb 	.word	0x413921fb
  401b88:	7fefffff 	.word	0x7fefffff
  401b8c:	41700000 	.word	0x41700000
  401b90:	00407ea0 	.word	0x00407ea0
  401b94:	3fe00000 	.word	0x3fe00000
  401b98:	00407e20 	.word	0x00407e20
  401b9c:	e9dd 2302 	ldrd	r2, r3, [sp, #8]
  401ba0:	f000 ffdc 	bl	402b5c <__aeabi_dsub>
  401ba4:	460e      	mov	r6, r1
  401ba6:	ea4f 5b2b 	mov.w	fp, fp, asr #20
  401baa:	f3c6 530a 	ubfx	r3, r6, #20, #11
  401bae:	ebc3 030b 	rsb	r3, r3, fp
  401bb2:	2b10      	cmp	r3, #16
  401bb4:	4607      	mov	r7, r0
  401bb6:	e9ca 0100 	strd	r0, r1, [sl]
  401bba:	dda8      	ble.n	401b0e <__ieee754_rem_pio2+0x1f6>
  401bbc:	a35c      	add	r3, pc, #368	; (adr r3, 401d30 <__ieee754_rem_pio2+0x418>)
  401bbe:	e9d3 2300 	ldrd	r2, r3, [r3]
  401bc2:	e9dd 0104 	ldrd	r0, r1, [sp, #16]
  401bc6:	f001 f97d 	bl	402ec4 <__aeabi_dmul>
  401bca:	4606      	mov	r6, r0
  401bcc:	460f      	mov	r7, r1
  401bce:	4632      	mov	r2, r6
  401bd0:	463b      	mov	r3, r7
  401bd2:	4640      	mov	r0, r8
  401bd4:	4649      	mov	r1, r9
  401bd6:	f000 ffc1 	bl	402b5c <__aeabi_dsub>
  401bda:	e9cd 0106 	strd	r0, r1, [sp, #24]
  401bde:	e9dd 2306 	ldrd	r2, r3, [sp, #24]
  401be2:	4640      	mov	r0, r8
  401be4:	4649      	mov	r1, r9
  401be6:	f000 ffb9 	bl	402b5c <__aeabi_dsub>
  401bea:	4632      	mov	r2, r6
  401bec:	463b      	mov	r3, r7
  401bee:	f000 ffb5 	bl	402b5c <__aeabi_dsub>
  401bf2:	a351      	add	r3, pc, #324	; (adr r3, 401d38 <__ieee754_rem_pio2+0x420>)
  401bf4:	e9d3 2300 	ldrd	r2, r3, [r3]
  401bf8:	4606      	mov	r6, r0
  401bfa:	460f      	mov	r7, r1
  401bfc:	e9dd 0104 	ldrd	r0, r1, [sp, #16]
  401c00:	f001 f960 	bl	402ec4 <__aeabi_dmul>
  401c04:	4632      	mov	r2, r6
  401c06:	463b      	mov	r3, r7
  401c08:	f000 ffa8 	bl	402b5c <__aeabi_dsub>
  401c0c:	e9cd 0102 	strd	r0, r1, [sp, #8]
  401c10:	e9dd 2302 	ldrd	r2, r3, [sp, #8]
  401c14:	e9dd 0106 	ldrd	r0, r1, [sp, #24]
  401c18:	f000 ffa0 	bl	402b5c <__aeabi_dsub>
  401c1c:	460e      	mov	r6, r1
  401c1e:	f3c1 510a 	ubfx	r1, r1, #20, #11
  401c22:	ebc1 0b0b 	rsb	fp, r1, fp
  401c26:	4602      	mov	r2, r0
  401c28:	4633      	mov	r3, r6
  401c2a:	f1bb 0f31 	cmp.w	fp, #49	; 0x31
  401c2e:	4607      	mov	r7, r0
  401c30:	e9ca 2300 	strd	r2, r3, [sl]
  401c34:	dd78      	ble.n	401d28 <__ieee754_rem_pio2+0x410>
  401c36:	a342      	add	r3, pc, #264	; (adr r3, 401d40 <__ieee754_rem_pio2+0x428>)
  401c38:	e9d3 2300 	ldrd	r2, r3, [r3]
  401c3c:	e9dd 0104 	ldrd	r0, r1, [sp, #16]
  401c40:	f001 f940 	bl	402ec4 <__aeabi_dmul>
  401c44:	4606      	mov	r6, r0
  401c46:	460f      	mov	r7, r1
  401c48:	4632      	mov	r2, r6
  401c4a:	463b      	mov	r3, r7
  401c4c:	e9dd 0106 	ldrd	r0, r1, [sp, #24]
  401c50:	f000 ff84 	bl	402b5c <__aeabi_dsub>
  401c54:	4680      	mov	r8, r0
  401c56:	4689      	mov	r9, r1
  401c58:	4642      	mov	r2, r8
  401c5a:	464b      	mov	r3, r9
  401c5c:	e9dd 0106 	ldrd	r0, r1, [sp, #24]
  401c60:	f000 ff7c 	bl	402b5c <__aeabi_dsub>
  401c64:	4632      	mov	r2, r6
  401c66:	463b      	mov	r3, r7
  401c68:	f000 ff78 	bl	402b5c <__aeabi_dsub>
  401c6c:	a336      	add	r3, pc, #216	; (adr r3, 401d48 <__ieee754_rem_pio2+0x430>)
  401c6e:	e9d3 2300 	ldrd	r2, r3, [r3]
  401c72:	4606      	mov	r6, r0
  401c74:	460f      	mov	r7, r1
  401c76:	e9dd 0104 	ldrd	r0, r1, [sp, #16]
  401c7a:	f001 f923 	bl	402ec4 <__aeabi_dmul>
  401c7e:	4632      	mov	r2, r6
  401c80:	463b      	mov	r3, r7
  401c82:	f000 ff6b 	bl	402b5c <__aeabi_dsub>
  401c86:	e9cd 0102 	strd	r0, r1, [sp, #8]
  401c8a:	4640      	mov	r0, r8
  401c8c:	4649      	mov	r1, r9
  401c8e:	e734      	b.n	401afa <__ieee754_rem_pio2+0x1e2>
  401c90:	f000 ff66 	bl	402b60 <__adddf3>
  401c94:	4b30      	ldr	r3, [pc, #192]	; (401d58 <__ieee754_rem_pio2+0x440>)
  401c96:	459b      	cmp	fp, r3
  401c98:	4604      	mov	r4, r0
  401c9a:	460d      	mov	r5, r1
  401c9c:	d026      	beq.n	401cec <__ieee754_rem_pio2+0x3d4>
  401c9e:	a32c      	add	r3, pc, #176	; (adr r3, 401d50 <__ieee754_rem_pio2+0x438>)
  401ca0:	e9d3 2300 	ldrd	r2, r3, [r3]
  401ca4:	f000 ff5c 	bl	402b60 <__adddf3>
  401ca8:	4602      	mov	r2, r0
  401caa:	460b      	mov	r3, r1
  401cac:	e9ca 2300 	strd	r2, r3, [sl]
  401cb0:	4629      	mov	r1, r5
  401cb2:	4620      	mov	r0, r4
  401cb4:	f000 ff52 	bl	402b5c <__aeabi_dsub>
  401cb8:	a325      	add	r3, pc, #148	; (adr r3, 401d50 <__ieee754_rem_pio2+0x438>)
  401cba:	e9d3 2300 	ldrd	r2, r3, [r3]
  401cbe:	f000 ff4f 	bl	402b60 <__adddf3>
  401cc2:	f04f 35ff 	mov.w	r5, #4294967295
  401cc6:	e9ca 0102 	strd	r0, r1, [sl, #8]
  401cca:	e6b7      	b.n	401a3c <__ieee754_rem_pio2+0x124>
  401ccc:	f8da 2004 	ldr.w	r2, [sl, #4]
  401cd0:	f8da 300c 	ldr.w	r3, [sl, #12]
  401cd4:	f102 4200 	add.w	r2, r2, #2147483648	; 0x80000000
  401cd8:	f103 4300 	add.w	r3, r3, #2147483648	; 0x80000000
  401cdc:	4245      	negs	r5, r0
  401cde:	f8ca 2004 	str.w	r2, [sl, #4]
  401ce2:	f8ca 300c 	str.w	r3, [sl, #12]
  401ce6:	e6a9      	b.n	401a3c <__ieee754_rem_pio2+0x124>
  401ce8:	2303      	movs	r3, #3
  401cea:	e692      	b.n	401a12 <__ieee754_rem_pio2+0xfa>
  401cec:	a310      	add	r3, pc, #64	; (adr r3, 401d30 <__ieee754_rem_pio2+0x418>)
  401cee:	e9d3 2300 	ldrd	r2, r3, [r3]
  401cf2:	f000 ff35 	bl	402b60 <__adddf3>
  401cf6:	a310      	add	r3, pc, #64	; (adr r3, 401d38 <__ieee754_rem_pio2+0x420>)
  401cf8:	e9d3 2300 	ldrd	r2, r3, [r3]
  401cfc:	460d      	mov	r5, r1
  401cfe:	4604      	mov	r4, r0
  401d00:	f000 ff2e 	bl	402b60 <__adddf3>
  401d04:	4602      	mov	r2, r0
  401d06:	460b      	mov	r3, r1
  401d08:	e9ca 2300 	strd	r2, r3, [sl]
  401d0c:	4629      	mov	r1, r5
  401d0e:	4620      	mov	r0, r4
  401d10:	f000 ff24 	bl	402b5c <__aeabi_dsub>
  401d14:	a308      	add	r3, pc, #32	; (adr r3, 401d38 <__ieee754_rem_pio2+0x420>)
  401d16:	e9d3 2300 	ldrd	r2, r3, [r3]
  401d1a:	f000 ff21 	bl	402b60 <__adddf3>
  401d1e:	f04f 35ff 	mov.w	r5, #4294967295
  401d22:	e9ca 0102 	strd	r0, r1, [sl, #8]
  401d26:	e689      	b.n	401a3c <__ieee754_rem_pio2+0x124>
  401d28:	e9dd 8906 	ldrd	r8, r9, [sp, #24]
  401d2c:	e6ef      	b.n	401b0e <__ieee754_rem_pio2+0x1f6>
  401d2e:	bf00      	nop
  401d30:	1a600000 	.word	0x1a600000
  401d34:	3dd0b461 	.word	0x3dd0b461
  401d38:	2e037073 	.word	0x2e037073
  401d3c:	3ba3198a 	.word	0x3ba3198a
  401d40:	2e000000 	.word	0x2e000000
  401d44:	3ba3198a 	.word	0x3ba3198a
  401d48:	252049c1 	.word	0x252049c1
  401d4c:	397b839a 	.word	0x397b839a
  401d50:	1a626331 	.word	0x1a626331
  401d54:	3dd0b461 	.word	0x3dd0b461
  401d58:	3ff921fb 	.word	0x3ff921fb
  401d5c:	00000000 	.word	0x00000000

00401d60 <__kernel_cos>:
  401d60:	e92d 4ff0 	stmdb	sp!, {r4, r5, r6, r7, r8, r9, sl, fp, lr}
  401d64:	f021 4700 	bic.w	r7, r1, #2147483648	; 0x80000000
  401d68:	f1b7 5f79 	cmp.w	r7, #1044381696	; 0x3e400000
  401d6c:	b085      	sub	sp, #20
  401d6e:	460c      	mov	r4, r1
  401d70:	4692      	mov	sl, r2
  401d72:	469b      	mov	fp, r3
  401d74:	4605      	mov	r5, r0
  401d76:	da6b      	bge.n	401e50 <__kernel_cos+0xf0>
  401d78:	f001 fb3e 	bl	4033f8 <__aeabi_d2iz>
  401d7c:	2800      	cmp	r0, #0
  401d7e:	f000 80e8 	beq.w	401f52 <__kernel_cos+0x1f2>
  401d82:	462a      	mov	r2, r5
  401d84:	4623      	mov	r3, r4
  401d86:	4628      	mov	r0, r5
  401d88:	4621      	mov	r1, r4
  401d8a:	f001 f89b 	bl	402ec4 <__aeabi_dmul>
  401d8e:	a374      	add	r3, pc, #464	; (adr r3, 401f60 <__kernel_cos+0x200>)
  401d90:	e9d3 2300 	ldrd	r2, r3, [r3]
  401d94:	4680      	mov	r8, r0
  401d96:	4689      	mov	r9, r1
  401d98:	f001 f894 	bl	402ec4 <__aeabi_dmul>
  401d9c:	a372      	add	r3, pc, #456	; (adr r3, 401f68 <__kernel_cos+0x208>)
  401d9e:	e9d3 2300 	ldrd	r2, r3, [r3]
  401da2:	f000 fedd 	bl	402b60 <__adddf3>
  401da6:	4642      	mov	r2, r8
  401da8:	464b      	mov	r3, r9
  401daa:	f001 f88b 	bl	402ec4 <__aeabi_dmul>
  401dae:	a370      	add	r3, pc, #448	; (adr r3, 401f70 <__kernel_cos+0x210>)
  401db0:	e9d3 2300 	ldrd	r2, r3, [r3]
  401db4:	f000 fed2 	bl	402b5c <__aeabi_dsub>
  401db8:	4642      	mov	r2, r8
  401dba:	464b      	mov	r3, r9
  401dbc:	f001 f882 	bl	402ec4 <__aeabi_dmul>
  401dc0:	a36d      	add	r3, pc, #436	; (adr r3, 401f78 <__kernel_cos+0x218>)
  401dc2:	e9d3 2300 	ldrd	r2, r3, [r3]
  401dc6:	f000 fecb 	bl	402b60 <__adddf3>
  401dca:	4642      	mov	r2, r8
  401dcc:	464b      	mov	r3, r9
  401dce:	f001 f879 	bl	402ec4 <__aeabi_dmul>
  401dd2:	a36b      	add	r3, pc, #428	; (adr r3, 401f80 <__kernel_cos+0x220>)
  401dd4:	e9d3 2300 	ldrd	r2, r3, [r3]
  401dd8:	f000 fec0 	bl	402b5c <__aeabi_dsub>
  401ddc:	4642      	mov	r2, r8
  401dde:	464b      	mov	r3, r9
  401de0:	f001 f870 	bl	402ec4 <__aeabi_dmul>
  401de4:	a368      	add	r3, pc, #416	; (adr r3, 401f88 <__kernel_cos+0x228>)
  401de6:	e9d3 2300 	ldrd	r2, r3, [r3]
  401dea:	f000 feb9 	bl	402b60 <__adddf3>
  401dee:	4642      	mov	r2, r8
  401df0:	464b      	mov	r3, r9
  401df2:	f001 f867 	bl	402ec4 <__aeabi_dmul>
  401df6:	e9cd 0100 	strd	r0, r1, [sp]
  401dfa:	4640      	mov	r0, r8
  401dfc:	4649      	mov	r1, r9
  401dfe:	2200      	movs	r2, #0
  401e00:	4b63      	ldr	r3, [pc, #396]	; (401f90 <__kernel_cos+0x230>)
  401e02:	f001 f85f 	bl	402ec4 <__aeabi_dmul>
  401e06:	e9dd 2300 	ldrd	r2, r3, [sp]
  401e0a:	4606      	mov	r6, r0
  401e0c:	460f      	mov	r7, r1
  401e0e:	4640      	mov	r0, r8
  401e10:	4649      	mov	r1, r9
  401e12:	f001 f857 	bl	402ec4 <__aeabi_dmul>
  401e16:	4652      	mov	r2, sl
  401e18:	4680      	mov	r8, r0
  401e1a:	4689      	mov	r9, r1
  401e1c:	465b      	mov	r3, fp
  401e1e:	4628      	mov	r0, r5
  401e20:	4621      	mov	r1, r4
  401e22:	f001 f84f 	bl	402ec4 <__aeabi_dmul>
  401e26:	4602      	mov	r2, r0
  401e28:	460b      	mov	r3, r1
  401e2a:	4640      	mov	r0, r8
  401e2c:	4649      	mov	r1, r9
  401e2e:	f000 fe95 	bl	402b5c <__aeabi_dsub>
  401e32:	4602      	mov	r2, r0
  401e34:	460b      	mov	r3, r1
  401e36:	4630      	mov	r0, r6
  401e38:	4639      	mov	r1, r7
  401e3a:	f000 fe8f 	bl	402b5c <__aeabi_dsub>
  401e3e:	4602      	mov	r2, r0
  401e40:	460b      	mov	r3, r1
  401e42:	2000      	movs	r0, #0
  401e44:	4953      	ldr	r1, [pc, #332]	; (401f94 <__kernel_cos+0x234>)
  401e46:	f000 fe89 	bl	402b5c <__aeabi_dsub>
  401e4a:	b005      	add	sp, #20
  401e4c:	e8bd 8ff0 	ldmia.w	sp!, {r4, r5, r6, r7, r8, r9, sl, fp, pc}
  401e50:	4602      	mov	r2, r0
  401e52:	460b      	mov	r3, r1
  401e54:	f001 f836 	bl	402ec4 <__aeabi_dmul>
  401e58:	a341      	add	r3, pc, #260	; (adr r3, 401f60 <__kernel_cos+0x200>)
  401e5a:	e9d3 2300 	ldrd	r2, r3, [r3]
  401e5e:	4680      	mov	r8, r0
  401e60:	4689      	mov	r9, r1
  401e62:	f001 f82f 	bl	402ec4 <__aeabi_dmul>
  401e66:	a340      	add	r3, pc, #256	; (adr r3, 401f68 <__kernel_cos+0x208>)
  401e68:	e9d3 2300 	ldrd	r2, r3, [r3]
  401e6c:	f000 fe78 	bl	402b60 <__adddf3>
  401e70:	4642      	mov	r2, r8
  401e72:	464b      	mov	r3, r9
  401e74:	f001 f826 	bl	402ec4 <__aeabi_dmul>
  401e78:	a33d      	add	r3, pc, #244	; (adr r3, 401f70 <__kernel_cos+0x210>)
  401e7a:	e9d3 2300 	ldrd	r2, r3, [r3]
  401e7e:	f000 fe6d 	bl	402b5c <__aeabi_dsub>
  401e82:	4642      	mov	r2, r8
  401e84:	464b      	mov	r3, r9
  401e86:	f001 f81d 	bl	402ec4 <__aeabi_dmul>
  401e8a:	a33b      	add	r3, pc, #236	; (adr r3, 401f78 <__kernel_cos+0x218>)
  401e8c:	e9d3 2300 	ldrd	r2, r3, [r3]
  401e90:	f000 fe66 	bl	402b60 <__adddf3>
  401e94:	4642      	mov	r2, r8
  401e96:	464b      	mov	r3, r9
  401e98:	f001 f814 	bl	402ec4 <__aeabi_dmul>
  401e9c:	a338      	add	r3, pc, #224	; (adr r3, 401f80 <__kernel_cos+0x220>)
  401e9e:	e9d3 2300 	ldrd	r2, r3, [r3]
  401ea2:	f000 fe5b 	bl	402b5c <__aeabi_dsub>
  401ea6:	4642      	mov	r2, r8
  401ea8:	464b      	mov	r3, r9
  401eaa:	f001 f80b 	bl	402ec4 <__aeabi_dmul>
  401eae:	a336      	add	r3, pc, #216	; (adr r3, 401f88 <__kernel_cos+0x228>)
  401eb0:	e9d3 2300 	ldrd	r2, r3, [r3]
  401eb4:	f000 fe54 	bl	402b60 <__adddf3>
  401eb8:	464b      	mov	r3, r9
  401eba:	4642      	mov	r2, r8
  401ebc:	f001 f802 	bl	402ec4 <__aeabi_dmul>
  401ec0:	4b35      	ldr	r3, [pc, #212]	; (401f98 <__kernel_cos+0x238>)
  401ec2:	429f      	cmp	r7, r3
  401ec4:	e9cd 0100 	strd	r0, r1, [sp]
  401ec8:	dd97      	ble.n	401dfa <__kernel_cos+0x9a>
  401eca:	4b34      	ldr	r3, [pc, #208]	; (401f9c <__kernel_cos+0x23c>)
  401ecc:	429f      	cmp	r7, r3
  401ece:	f04f 0200 	mov.w	r2, #0
  401ed2:	dc38      	bgt.n	401f46 <__kernel_cos+0x1e6>
  401ed4:	f5a7 1300 	sub.w	r3, r7, #2097152	; 0x200000
  401ed8:	2000      	movs	r0, #0
  401eda:	492e      	ldr	r1, [pc, #184]	; (401f94 <__kernel_cos+0x234>)
  401edc:	4616      	mov	r6, r2
  401ede:	461f      	mov	r7, r3
  401ee0:	f000 fe3c 	bl	402b5c <__aeabi_dsub>
  401ee4:	e9cd 0102 	strd	r0, r1, [sp, #8]
  401ee8:	4640      	mov	r0, r8
  401eea:	4649      	mov	r1, r9
  401eec:	2200      	movs	r2, #0
  401eee:	4b28      	ldr	r3, [pc, #160]	; (401f90 <__kernel_cos+0x230>)
  401ef0:	f000 ffe8 	bl	402ec4 <__aeabi_dmul>
  401ef4:	4632      	mov	r2, r6
  401ef6:	463b      	mov	r3, r7
  401ef8:	f000 fe30 	bl	402b5c <__aeabi_dsub>
  401efc:	e9dd 2300 	ldrd	r2, r3, [sp]
  401f00:	4606      	mov	r6, r0
  401f02:	460f      	mov	r7, r1
  401f04:	4640      	mov	r0, r8
  401f06:	4649      	mov	r1, r9
  401f08:	f000 ffdc 	bl	402ec4 <__aeabi_dmul>
  401f0c:	4652      	mov	r2, sl
  401f0e:	4680      	mov	r8, r0
  401f10:	4689      	mov	r9, r1
  401f12:	465b      	mov	r3, fp
  401f14:	4628      	mov	r0, r5
  401f16:	4621      	mov	r1, r4
  401f18:	f000 ffd4 	bl	402ec4 <__aeabi_dmul>
  401f1c:	4602      	mov	r2, r0
  401f1e:	460b      	mov	r3, r1
  401f20:	4640      	mov	r0, r8
  401f22:	4649      	mov	r1, r9
  401f24:	f000 fe1a 	bl	402b5c <__aeabi_dsub>
  401f28:	4602      	mov	r2, r0
  401f2a:	460b      	mov	r3, r1
  401f2c:	4630      	mov	r0, r6
  401f2e:	4639      	mov	r1, r7
  401f30:	f000 fe14 	bl	402b5c <__aeabi_dsub>
  401f34:	4602      	mov	r2, r0
  401f36:	460b      	mov	r3, r1
  401f38:	e9dd 0102 	ldrd	r0, r1, [sp, #8]
  401f3c:	f000 fe0e 	bl	402b5c <__aeabi_dsub>
  401f40:	b005      	add	sp, #20
  401f42:	e8bd 8ff0 	ldmia.w	sp!, {r4, r5, r6, r7, r8, r9, sl, fp, pc}
  401f46:	4b16      	ldr	r3, [pc, #88]	; (401fa0 <__kernel_cos+0x240>)
  401f48:	4f16      	ldr	r7, [pc, #88]	; (401fa4 <__kernel_cos+0x244>)
  401f4a:	e9cd 2302 	strd	r2, r3, [sp, #8]
  401f4e:	2600      	movs	r6, #0
  401f50:	e7ca      	b.n	401ee8 <__kernel_cos+0x188>
  401f52:	4910      	ldr	r1, [pc, #64]	; (401f94 <__kernel_cos+0x234>)
  401f54:	2000      	movs	r0, #0
  401f56:	b005      	add	sp, #20
  401f58:	e8bd 8ff0 	ldmia.w	sp!, {r4, r5, r6, r7, r8, r9, sl, fp, pc}
  401f5c:	f3af 8000 	nop.w
  401f60:	be8838d4 	.word	0xbe8838d4
  401f64:	bda8fae9 	.word	0xbda8fae9
  401f68:	bdb4b1c4 	.word	0xbdb4b1c4
  401f6c:	3e21ee9e 	.word	0x3e21ee9e
  401f70:	809c52ad 	.word	0x809c52ad
  401f74:	3e927e4f 	.word	0x3e927e4f
  401f78:	19cb1590 	.word	0x19cb1590
  401f7c:	3efa01a0 	.word	0x3efa01a0
  401f80:	16c15177 	.word	0x16c15177
  401f84:	3f56c16c 	.word	0x3f56c16c
  401f88:	5555554c 	.word	0x5555554c
  401f8c:	3fa55555 	.word	0x3fa55555
  401f90:	3fe00000 	.word	0x3fe00000
  401f94:	3ff00000 	.word	0x3ff00000
  401f98:	3fd33332 	.word	0x3fd33332
  401f9c:	3fe90000 	.word	0x3fe90000
  401fa0:	3fe70000 	.word	0x3fe70000
  401fa4:	3fd20000 	.word	0x3fd20000

00401fa8 <__kernel_rem_pio2>:
  401fa8:	e92d 4ff0 	stmdb	sp!, {r4, r5, r6, r7, r8, r9, sl, fp, lr}
  401fac:	f5ad 7d1d 	sub.w	sp, sp, #628	; 0x274
  401fb0:	4c7b      	ldr	r4, [pc, #492]	; (4021a0 <__kernel_rem_pio2+0x1f8>)
  401fb2:	9ea6      	ldr	r6, [sp, #664]	; 0x298
  401fb4:	4d7b      	ldr	r5, [pc, #492]	; (4021a4 <__kernel_rem_pio2+0x1fc>)
  401fb6:	f854 4026 	ldr.w	r4, [r4, r6, lsl #2]
  401fba:	9409      	str	r4, [sp, #36]	; 0x24
  401fbc:	4626      	mov	r6, r4
  401fbe:	1ed4      	subs	r4, r2, #3
  401fc0:	fb85 7504 	smull	r7, r5, r5, r4
  401fc4:	17e4      	asrs	r4, r4, #31
  401fc6:	ebc4 04a5 	rsb	r4, r4, r5, asr #2
  401fca:	ea24 74e4 	bic.w	r4, r4, r4, asr #31
  401fce:	461d      	mov	r5, r3
  401fd0:	930c      	str	r3, [sp, #48]	; 0x30
  401fd2:	43e3      	mvns	r3, r4
  401fd4:	eb03 0343 	add.w	r3, r3, r3, lsl #1
  401fd8:	3d01      	subs	r5, #1
  401fda:	eb02 03c3 	add.w	r3, r2, r3, lsl #3
  401fde:	9308      	str	r3, [sp, #32]
  401fe0:	462b      	mov	r3, r5
  401fe2:	940d      	str	r4, [sp, #52]	; 0x34
  401fe4:	9503      	str	r5, [sp, #12]
  401fe6:	1b65      	subs	r5, r4, r5
  401fe8:	199c      	adds	r4, r3, r6
  401fea:	9004      	str	r0, [sp, #16]
  401fec:	910a      	str	r1, [sp, #40]	; 0x28
  401fee:	d416      	bmi.n	40201e <__kernel_rem_pio2+0x76>
  401ff0:	442c      	add	r4, r5
  401ff2:	3401      	adds	r4, #1
  401ff4:	ae22      	add	r6, sp, #136	; 0x88
  401ff6:	9fa7      	ldr	r7, [sp, #668]	; 0x29c
  401ff8:	e008      	b.n	40200c <__kernel_rem_pio2+0x64>
  401ffa:	f857 0025 	ldr.w	r0, [r7, r5, lsl #2]
  401ffe:	f000 fefb 	bl	402df8 <__aeabi_i2d>
  402002:	3501      	adds	r5, #1
  402004:	42a5      	cmp	r5, r4
  402006:	e9e6 0102 	strd	r0, r1, [r6, #8]!
  40200a:	d008      	beq.n	40201e <__kernel_rem_pio2+0x76>
  40200c:	2d00      	cmp	r5, #0
  40200e:	daf4      	bge.n	401ffa <__kernel_rem_pio2+0x52>
  402010:	3501      	adds	r5, #1
  402012:	2000      	movs	r0, #0
  402014:	2100      	movs	r1, #0
  402016:	42a5      	cmp	r5, r4
  402018:	e9e6 0102 	strd	r0, r1, [r6, #8]!
  40201c:	d1f6      	bne.n	40200c <__kernel_rem_pio2+0x64>
  40201e:	9b09      	ldr	r3, [sp, #36]	; 0x24
  402020:	2b00      	cmp	r3, #0
  402022:	db31      	blt.n	402088 <__kernel_rem_pio2+0xe0>
  402024:	9a09      	ldr	r2, [sp, #36]	; 0x24
  402026:	9b0c      	ldr	r3, [sp, #48]	; 0x30
  402028:	a974      	add	r1, sp, #464	; 0x1d0
  40202a:	eb01 0bc2 	add.w	fp, r1, r2, lsl #3
  40202e:	ebc3 7343 	rsb	r3, r3, r3, lsl #29
  402032:	9a03      	ldr	r2, [sp, #12]
  402034:	a924      	add	r1, sp, #144	; 0x90
  402036:	00db      	lsls	r3, r3, #3
  402038:	eb01 08c2 	add.w	r8, r1, r2, lsl #3
  40203c:	9300      	str	r3, [sp, #0]
  40203e:	f50d 79e4 	add.w	r9, sp, #456	; 0x1c8
  402042:	9b03      	ldr	r3, [sp, #12]
  402044:	2b00      	cmp	r3, #0
  402046:	f2c0 8199 	blt.w	40237c <__kernel_rem_pio2+0x3d4>
  40204a:	9b04      	ldr	r3, [sp, #16]
  40204c:	f1a3 0a08 	sub.w	sl, r3, #8
  402050:	9b00      	ldr	r3, [sp, #0]
  402052:	4644      	mov	r4, r8
  402054:	eb08 0503 	add.w	r5, r8, r3
  402058:	2600      	movs	r6, #0
  40205a:	2700      	movs	r7, #0
  40205c:	e9fa 2302 	ldrd	r2, r3, [sl, #8]!
  402060:	e874 0102 	ldrd	r0, r1, [r4], #-8
  402064:	f000 ff2e 	bl	402ec4 <__aeabi_dmul>
  402068:	4602      	mov	r2, r0
  40206a:	460b      	mov	r3, r1
  40206c:	4630      	mov	r0, r6
  40206e:	4639      	mov	r1, r7
  402070:	f000 fd76 	bl	402b60 <__adddf3>
  402074:	42ac      	cmp	r4, r5
  402076:	4606      	mov	r6, r0
  402078:	460f      	mov	r7, r1
  40207a:	d1ef      	bne.n	40205c <__kernel_rem_pio2+0xb4>
  40207c:	e9e9 6702 	strd	r6, r7, [r9, #8]!
  402080:	45d9      	cmp	r9, fp
  402082:	f108 0808 	add.w	r8, r8, #8
  402086:	d1dc      	bne.n	402042 <__kernel_rem_pio2+0x9a>
  402088:	9909      	ldr	r1, [sp, #36]	; 0x24
  40208a:	f101 4380 	add.w	r3, r1, #1073741824	; 0x40000000
  40208e:	3b01      	subs	r3, #1
  402090:	009b      	lsls	r3, r3, #2
  402092:	1d1a      	adds	r2, r3, #4
  402094:	a810      	add	r0, sp, #64	; 0x40
  402096:	4402      	add	r2, r0
  402098:	4403      	add	r3, r0
  40209a:	920f      	str	r2, [sp, #60]	; 0x3c
  40209c:	930e      	str	r3, [sp, #56]	; 0x38
  40209e:	468b      	mov	fp, r1
  4020a0:	ea4f 03cb 	mov.w	r3, fp, lsl #3
  4020a4:	a99c      	add	r1, sp, #624	; 0x270
  4020a6:	461a      	mov	r2, r3
  4020a8:	9306      	str	r3, [sp, #24]
  4020aa:	f1bb 0f00 	cmp.w	fp, #0
  4020ae:	440b      	add	r3, r1
  4020b0:	e953 4528 	ldrd	r4, r5, [r3, #-160]	; 0xa0
  4020b4:	dd28      	ble.n	402108 <__kernel_rem_pio2+0x160>
  4020b6:	f50d 7ae8 	add.w	sl, sp, #464	; 0x1d0
  4020ba:	eb0a 0602 	add.w	r6, sl, r2
  4020be:	af0f      	add	r7, sp, #60	; 0x3c
  4020c0:	2200      	movs	r2, #0
  4020c2:	4b39      	ldr	r3, [pc, #228]	; (4021a8 <__kernel_rem_pio2+0x200>)
  4020c4:	4620      	mov	r0, r4
  4020c6:	4629      	mov	r1, r5
  4020c8:	f000 fefc 	bl	402ec4 <__aeabi_dmul>
  4020cc:	f001 f994 	bl	4033f8 <__aeabi_d2iz>
  4020d0:	f000 fe92 	bl	402df8 <__aeabi_i2d>
  4020d4:	2200      	movs	r2, #0
  4020d6:	4b35      	ldr	r3, [pc, #212]	; (4021ac <__kernel_rem_pio2+0x204>)
  4020d8:	4680      	mov	r8, r0
  4020da:	4689      	mov	r9, r1
  4020dc:	f000 fef2 	bl	402ec4 <__aeabi_dmul>
  4020e0:	4602      	mov	r2, r0
  4020e2:	460b      	mov	r3, r1
  4020e4:	4620      	mov	r0, r4
  4020e6:	4629      	mov	r1, r5
  4020e8:	f000 fd38 	bl	402b5c <__aeabi_dsub>
  4020ec:	f001 f984 	bl	4033f8 <__aeabi_d2iz>
  4020f0:	e976 2302 	ldrd	r2, r3, [r6, #-8]!
  4020f4:	f847 0f04 	str.w	r0, [r7, #4]!
  4020f8:	4649      	mov	r1, r9
  4020fa:	4640      	mov	r0, r8
  4020fc:	f000 fd30 	bl	402b60 <__adddf3>
  402100:	4556      	cmp	r6, sl
  402102:	4604      	mov	r4, r0
  402104:	460d      	mov	r5, r1
  402106:	d1db      	bne.n	4020c0 <__kernel_rem_pio2+0x118>
  402108:	f8dd 9020 	ldr.w	r9, [sp, #32]
  40210c:	4620      	mov	r0, r4
  40210e:	4629      	mov	r1, r5
  402110:	464a      	mov	r2, r9
  402112:	f000 fc95 	bl	402a40 <scalbn>
  402116:	2200      	movs	r2, #0
  402118:	f04f 537f 	mov.w	r3, #1069547520	; 0x3fc00000
  40211c:	4604      	mov	r4, r0
  40211e:	460d      	mov	r5, r1
  402120:	f000 fed0 	bl	402ec4 <__aeabi_dmul>
  402124:	f000 fc00 	bl	402928 <floor>
  402128:	2200      	movs	r2, #0
  40212a:	4b21      	ldr	r3, [pc, #132]	; (4021b0 <__kernel_rem_pio2+0x208>)
  40212c:	f000 feca 	bl	402ec4 <__aeabi_dmul>
  402130:	4602      	mov	r2, r0
  402132:	460b      	mov	r3, r1
  402134:	4620      	mov	r0, r4
  402136:	4629      	mov	r1, r5
  402138:	f000 fd10 	bl	402b5c <__aeabi_dsub>
  40213c:	4604      	mov	r4, r0
  40213e:	460d      	mov	r5, r1
  402140:	f001 f95a 	bl	4033f8 <__aeabi_d2iz>
  402144:	4680      	mov	r8, r0
  402146:	f000 fe57 	bl	402df8 <__aeabi_i2d>
  40214a:	4602      	mov	r2, r0
  40214c:	460b      	mov	r3, r1
  40214e:	4620      	mov	r0, r4
  402150:	4629      	mov	r1, r5
  402152:	f000 fd03 	bl	402b5c <__aeabi_dsub>
  402156:	464c      	mov	r4, r9
  402158:	2c00      	cmp	r4, #0
  40215a:	4606      	mov	r6, r0
  40215c:	460f      	mov	r7, r1
  40215e:	f340 80f3 	ble.w	402348 <__kernel_rem_pio2+0x3a0>
  402162:	f10b 31ff 	add.w	r1, fp, #4294967295
  402166:	ab10      	add	r3, sp, #64	; 0x40
  402168:	f1c9 0218 	rsb	r2, r9, #24
  40216c:	f853 3021 	ldr.w	r3, [r3, r1, lsl #2]
  402170:	fa43 f002 	asr.w	r0, r3, r2
  402174:	fa00 f502 	lsl.w	r5, r0, r2
  402178:	aa10      	add	r2, sp, #64	; 0x40
  40217a:	1b5d      	subs	r5, r3, r5
  40217c:	f1c9 0317 	rsb	r3, r9, #23
  402180:	f842 5021 	str.w	r5, [r2, r1, lsl #2]
  402184:	4480      	add	r8, r0
  402186:	411d      	asrs	r5, r3
  402188:	2d00      	cmp	r5, #0
  40218a:	dd3e      	ble.n	40220a <__kernel_rem_pio2+0x262>
  40218c:	f1bb 0f00 	cmp.w	fp, #0
  402190:	f108 0801 	add.w	r8, r8, #1
  402194:	f340 828a 	ble.w	4026ac <__kernel_rem_pio2+0x704>
  402198:	2200      	movs	r2, #0
  40219a:	4614      	mov	r4, r2
  40219c:	a90f      	add	r1, sp, #60	; 0x3c
  40219e:	e011      	b.n	4021c4 <__kernel_rem_pio2+0x21c>
  4021a0:	00407fa8 	.word	0x00407fa8
  4021a4:	2aaaaaab 	.word	0x2aaaaaab
  4021a8:	3e700000 	.word	0x3e700000
  4021ac:	41700000 	.word	0x41700000
  4021b0:	40200000 	.word	0x40200000
  4021b4:	f1c3 7080 	rsb	r0, r3, #16777216	; 0x1000000
  4021b8:	b10b      	cbz	r3, 4021be <__kernel_rem_pio2+0x216>
  4021ba:	6008      	str	r0, [r1, #0]
  4021bc:	2401      	movs	r4, #1
  4021be:	3201      	adds	r2, #1
  4021c0:	4593      	cmp	fp, r2
  4021c2:	dd0d      	ble.n	4021e0 <__kernel_rem_pio2+0x238>
  4021c4:	f851 3f04 	ldr.w	r3, [r1, #4]!
  4021c8:	2c00      	cmp	r4, #0
  4021ca:	d0f3      	beq.n	4021b4 <__kernel_rem_pio2+0x20c>
  4021cc:	f1c3 13ff 	rsb	r3, r3, #16711935	; 0xff00ff
  4021d0:	3201      	adds	r2, #1
  4021d2:	f503 437f 	add.w	r3, r3, #65280	; 0xff00
  4021d6:	4593      	cmp	fp, r2
  4021d8:	600b      	str	r3, [r1, #0]
  4021da:	f04f 0401 	mov.w	r4, #1
  4021de:	dcf1      	bgt.n	4021c4 <__kernel_rem_pio2+0x21c>
  4021e0:	9b08      	ldr	r3, [sp, #32]
  4021e2:	2b00      	cmp	r3, #0
  4021e4:	dd0e      	ble.n	402204 <__kernel_rem_pio2+0x25c>
  4021e6:	2b01      	cmp	r3, #1
  4021e8:	f000 80b6 	beq.w	402358 <__kernel_rem_pio2+0x3b0>
  4021ec:	2b02      	cmp	r3, #2
  4021ee:	d109      	bne.n	402204 <__kernel_rem_pio2+0x25c>
  4021f0:	f10b 32ff 	add.w	r2, fp, #4294967295
  4021f4:	ab10      	add	r3, sp, #64	; 0x40
  4021f6:	a910      	add	r1, sp, #64	; 0x40
  4021f8:	f853 3022 	ldr.w	r3, [r3, r2, lsl #2]
  4021fc:	f3c3 0315 	ubfx	r3, r3, #0, #22
  402200:	f841 3022 	str.w	r3, [r1, r2, lsl #2]
  402204:	2d02      	cmp	r5, #2
  402206:	f000 8086 	beq.w	402316 <__kernel_rem_pio2+0x36e>
  40220a:	4630      	mov	r0, r6
  40220c:	4639      	mov	r1, r7
  40220e:	2200      	movs	r2, #0
  402210:	2300      	movs	r3, #0
  402212:	f001 f8bf 	bl	403394 <__aeabi_dcmpeq>
  402216:	2800      	cmp	r0, #0
  402218:	f000 80cc 	beq.w	4023b4 <__kernel_rem_pio2+0x40c>
  40221c:	9b09      	ldr	r3, [sp, #36]	; 0x24
  40221e:	f10b 3aff 	add.w	sl, fp, #4294967295
  402222:	4553      	cmp	r3, sl
  402224:	dc0d      	bgt.n	402242 <__kernel_rem_pio2+0x29a>
  402226:	ab10      	add	r3, sp, #64	; 0x40
  402228:	980f      	ldr	r0, [sp, #60]	; 0x3c
  40222a:	eb03 038b 	add.w	r3, r3, fp, lsl #2
  40222e:	2200      	movs	r2, #0
  402230:	f853 1d04 	ldr.w	r1, [r3, #-4]!
  402234:	4283      	cmp	r3, r0
  402236:	ea42 0201 	orr.w	r2, r2, r1
  40223a:	d1f9      	bne.n	402230 <__kernel_rem_pio2+0x288>
  40223c:	2a00      	cmp	r2, #0
  40223e:	f040 821b 	bne.w	402678 <__kernel_rem_pio2+0x6d0>
  402242:	9b09      	ldr	r3, [sp, #36]	; 0x24
  402244:	aa10      	add	r2, sp, #64	; 0x40
  402246:	3b01      	subs	r3, #1
  402248:	f852 3023 	ldr.w	r3, [r2, r3, lsl #2]
  40224c:	2b00      	cmp	r3, #0
  40224e:	f040 822b 	bne.w	4026a8 <__kernel_rem_pio2+0x700>
  402252:	9a0e      	ldr	r2, [sp, #56]	; 0x38
  402254:	2301      	movs	r3, #1
  402256:	f852 1d04 	ldr.w	r1, [r2, #-4]!
  40225a:	3301      	adds	r3, #1
  40225c:	2900      	cmp	r1, #0
  40225e:	d0fa      	beq.n	402256 <__kernel_rem_pio2+0x2ae>
  402260:	445b      	add	r3, fp
  402262:	461a      	mov	r2, r3
  402264:	930b      	str	r3, [sp, #44]	; 0x2c
  402266:	f10b 0301 	add.w	r3, fp, #1
  40226a:	4293      	cmp	r3, r2
  40226c:	dc4d      	bgt.n	40230a <__kernel_rem_pio2+0x362>
  40226e:	9a0d      	ldr	r2, [sp, #52]	; 0x34
  402270:	eb03 0902 	add.w	r9, r3, r2
  402274:	9a0b      	ldr	r2, [sp, #44]	; 0x2c
  402276:	9b0c      	ldr	r3, [sp, #48]	; 0x30
  402278:	f109 4980 	add.w	r9, r9, #1073741824	; 0x40000000
  40227c:	445b      	add	r3, fp
  40227e:	ebcb 0b02 	rsb	fp, fp, r2
  402282:	9aa7      	ldr	r2, [sp, #668]	; 0x29c
  402284:	f109 39ff 	add.w	r9, r9, #4294967295
  402288:	eb02 0289 	add.w	r2, r2, r9, lsl #2
  40228c:	9200      	str	r2, [sp, #0]
  40228e:	ea4f 02cb 	mov.w	r2, fp, lsl #3
  402292:	00db      	lsls	r3, r3, #3
  402294:	9205      	str	r2, [sp, #20]
  402296:	aa24      	add	r2, sp, #144	; 0x90
  402298:	eb02 0b03 	add.w	fp, r2, r3
  40229c:	9307      	str	r3, [sp, #28]
  40229e:	9b06      	ldr	r3, [sp, #24]
  4022a0:	aa74      	add	r2, sp, #464	; 0x1d0
  4022a2:	eb02 0a03 	add.w	sl, r2, r3
  4022a6:	f04f 0800 	mov.w	r8, #0
  4022aa:	9b00      	ldr	r3, [sp, #0]
  4022ac:	f853 0f04 	ldr.w	r0, [r3, #4]!
  4022b0:	9300      	str	r3, [sp, #0]
  4022b2:	f000 fda1 	bl	402df8 <__aeabi_i2d>
  4022b6:	9b03      	ldr	r3, [sp, #12]
  4022b8:	2b00      	cmp	r3, #0
  4022ba:	e8eb 0102 	strd	r0, r1, [fp], #8
  4022be:	db27      	blt.n	402310 <__kernel_rem_pio2+0x368>
  4022c0:	9b07      	ldr	r3, [sp, #28]
  4022c2:	eb03 0408 	add.w	r4, r3, r8
  4022c6:	9b06      	ldr	r3, [sp, #24]
  4022c8:	eb08 0503 	add.w	r5, r8, r3
  4022cc:	ab24      	add	r3, sp, #144	; 0x90
  4022ce:	441c      	add	r4, r3
  4022d0:	441d      	add	r5, r3
  4022d2:	9b04      	ldr	r3, [sp, #16]
  4022d4:	2600      	movs	r6, #0
  4022d6:	f1a3 0908 	sub.w	r9, r3, #8
  4022da:	2700      	movs	r7, #0
  4022dc:	e9f9 2302 	ldrd	r2, r3, [r9, #8]!
  4022e0:	e874 0102 	ldrd	r0, r1, [r4], #-8
  4022e4:	f000 fdee 	bl	402ec4 <__aeabi_dmul>
  4022e8:	4602      	mov	r2, r0
  4022ea:	460b      	mov	r3, r1
  4022ec:	4630      	mov	r0, r6
  4022ee:	4639      	mov	r1, r7
  4022f0:	f000 fc36 	bl	402b60 <__adddf3>
  4022f4:	42ac      	cmp	r4, r5
  4022f6:	4606      	mov	r6, r0
  4022f8:	460f      	mov	r7, r1
  4022fa:	d1ef      	bne.n	4022dc <__kernel_rem_pio2+0x334>
  4022fc:	9b05      	ldr	r3, [sp, #20]
  4022fe:	f108 0808 	add.w	r8, r8, #8
  402302:	4598      	cmp	r8, r3
  402304:	e9ea 6702 	strd	r6, r7, [sl, #8]!
  402308:	d1cf      	bne.n	4022aa <__kernel_rem_pio2+0x302>
  40230a:	f8dd b02c 	ldr.w	fp, [sp, #44]	; 0x2c
  40230e:	e6c7      	b.n	4020a0 <__kernel_rem_pio2+0xf8>
  402310:	2600      	movs	r6, #0
  402312:	2700      	movs	r7, #0
  402314:	e7f2      	b.n	4022fc <__kernel_rem_pio2+0x354>
  402316:	4632      	mov	r2, r6
  402318:	463b      	mov	r3, r7
  40231a:	2000      	movs	r0, #0
  40231c:	49c0      	ldr	r1, [pc, #768]	; (402620 <__kernel_rem_pio2+0x678>)
  40231e:	f000 fc1d 	bl	402b5c <__aeabi_dsub>
  402322:	4606      	mov	r6, r0
  402324:	460f      	mov	r7, r1
  402326:	2c00      	cmp	r4, #0
  402328:	f43f af6f 	beq.w	40220a <__kernel_rem_pio2+0x262>
  40232c:	9a08      	ldr	r2, [sp, #32]
  40232e:	49bc      	ldr	r1, [pc, #752]	; (402620 <__kernel_rem_pio2+0x678>)
  402330:	2000      	movs	r0, #0
  402332:	f000 fb85 	bl	402a40 <scalbn>
  402336:	4602      	mov	r2, r0
  402338:	460b      	mov	r3, r1
  40233a:	4630      	mov	r0, r6
  40233c:	4639      	mov	r1, r7
  40233e:	f000 fc0d 	bl	402b5c <__aeabi_dsub>
  402342:	4606      	mov	r6, r0
  402344:	460f      	mov	r7, r1
  402346:	e760      	b.n	40220a <__kernel_rem_pio2+0x262>
  402348:	d111      	bne.n	40236e <__kernel_rem_pio2+0x3c6>
  40234a:	f10b 33ff 	add.w	r3, fp, #4294967295
  40234e:	aa10      	add	r2, sp, #64	; 0x40
  402350:	f852 5023 	ldr.w	r5, [r2, r3, lsl #2]
  402354:	15ed      	asrs	r5, r5, #23
  402356:	e717      	b.n	402188 <__kernel_rem_pio2+0x1e0>
  402358:	f10b 32ff 	add.w	r2, fp, #4294967295
  40235c:	ab10      	add	r3, sp, #64	; 0x40
  40235e:	a910      	add	r1, sp, #64	; 0x40
  402360:	f853 3022 	ldr.w	r3, [r3, r2, lsl #2]
  402364:	f3c3 0316 	ubfx	r3, r3, #0, #23
  402368:	f841 3022 	str.w	r3, [r1, r2, lsl #2]
  40236c:	e74a      	b.n	402204 <__kernel_rem_pio2+0x25c>
  40236e:	2200      	movs	r2, #0
  402370:	4bac      	ldr	r3, [pc, #688]	; (402624 <__kernel_rem_pio2+0x67c>)
  402372:	f001 f82d 	bl	4033d0 <__aeabi_dcmpge>
  402376:	b958      	cbnz	r0, 402390 <__kernel_rem_pio2+0x3e8>
  402378:	4605      	mov	r5, r0
  40237a:	e746      	b.n	40220a <__kernel_rem_pio2+0x262>
  40237c:	2600      	movs	r6, #0
  40237e:	2700      	movs	r7, #0
  402380:	e9e9 6702 	strd	r6, r7, [r9, #8]!
  402384:	45d9      	cmp	r9, fp
  402386:	f108 0808 	add.w	r8, r8, #8
  40238a:	f47f ae5a 	bne.w	402042 <__kernel_rem_pio2+0x9a>
  40238e:	e67b      	b.n	402088 <__kernel_rem_pio2+0xe0>
  402390:	f1bb 0f00 	cmp.w	fp, #0
  402394:	f108 0801 	add.w	r8, r8, #1
  402398:	bfc8      	it	gt
  40239a:	2502      	movgt	r5, #2
  40239c:	f73f aefc 	bgt.w	402198 <__kernel_rem_pio2+0x1f0>
  4023a0:	4632      	mov	r2, r6
  4023a2:	463b      	mov	r3, r7
  4023a4:	2000      	movs	r0, #0
  4023a6:	499e      	ldr	r1, [pc, #632]	; (402620 <__kernel_rem_pio2+0x678>)
  4023a8:	f000 fbd8 	bl	402b5c <__aeabi_dsub>
  4023ac:	2502      	movs	r5, #2
  4023ae:	4606      	mov	r6, r0
  4023b0:	460f      	mov	r7, r1
  4023b2:	e72a      	b.n	40220a <__kernel_rem_pio2+0x262>
  4023b4:	9b08      	ldr	r3, [sp, #32]
  4023b6:	9503      	str	r5, [sp, #12]
  4023b8:	425a      	negs	r2, r3
  4023ba:	4630      	mov	r0, r6
  4023bc:	4639      	mov	r1, r7
  4023be:	f8cd 8014 	str.w	r8, [sp, #20]
  4023c2:	f000 fb3d 	bl	402a40 <scalbn>
  4023c6:	2200      	movs	r2, #0
  4023c8:	4b97      	ldr	r3, [pc, #604]	; (402628 <__kernel_rem_pio2+0x680>)
  4023ca:	4604      	mov	r4, r0
  4023cc:	460d      	mov	r5, r1
  4023ce:	f000 ffff 	bl	4033d0 <__aeabi_dcmpge>
  4023d2:	2800      	cmp	r0, #0
  4023d4:	f000 81e3 	beq.w	40279e <__kernel_rem_pio2+0x7f6>
  4023d8:	2200      	movs	r2, #0
  4023da:	4b94      	ldr	r3, [pc, #592]	; (40262c <__kernel_rem_pio2+0x684>)
  4023dc:	4620      	mov	r0, r4
  4023de:	4629      	mov	r1, r5
  4023e0:	f000 fd70 	bl	402ec4 <__aeabi_dmul>
  4023e4:	f001 f808 	bl	4033f8 <__aeabi_d2iz>
  4023e8:	4606      	mov	r6, r0
  4023ea:	f000 fd05 	bl	402df8 <__aeabi_i2d>
  4023ee:	2200      	movs	r2, #0
  4023f0:	4b8d      	ldr	r3, [pc, #564]	; (402628 <__kernel_rem_pio2+0x680>)
  4023f2:	f000 fd67 	bl	402ec4 <__aeabi_dmul>
  4023f6:	460b      	mov	r3, r1
  4023f8:	4602      	mov	r2, r0
  4023fa:	4629      	mov	r1, r5
  4023fc:	4620      	mov	r0, r4
  4023fe:	f000 fbad 	bl	402b5c <__aeabi_dsub>
  402402:	f000 fff9 	bl	4033f8 <__aeabi_d2iz>
  402406:	9b08      	ldr	r3, [sp, #32]
  402408:	3318      	adds	r3, #24
  40240a:	f10b 0a01 	add.w	sl, fp, #1
  40240e:	9308      	str	r3, [sp, #32]
  402410:	ab10      	add	r3, sp, #64	; 0x40
  402412:	f843 002b 	str.w	r0, [r3, fp, lsl #2]
  402416:	f843 602a 	str.w	r6, [r3, sl, lsl #2]
  40241a:	9a08      	ldr	r2, [sp, #32]
  40241c:	4980      	ldr	r1, [pc, #512]	; (402620 <__kernel_rem_pio2+0x678>)
  40241e:	2000      	movs	r0, #0
  402420:	f000 fb0e 	bl	402a40 <scalbn>
  402424:	f1ba 0f00 	cmp.w	sl, #0
  402428:	4604      	mov	r4, r0
  40242a:	460d      	mov	r5, r1
  40242c:	f2c0 80cd 	blt.w	4025ca <__kernel_rem_pio2+0x622>
  402430:	f10a 0301 	add.w	r3, sl, #1
  402434:	ea4f 08c3 	mov.w	r8, r3, lsl #3
  402438:	af74      	add	r7, sp, #464	; 0x1d0
  40243a:	aa10      	add	r2, sp, #64	; 0x40
  40243c:	9300      	str	r3, [sp, #0]
  40243e:	eb02 0983 	add.w	r9, r2, r3, lsl #2
  402442:	eb07 0608 	add.w	r6, r7, r8
  402446:	f859 0d04 	ldr.w	r0, [r9, #-4]!
  40244a:	f000 fcd5 	bl	402df8 <__aeabi_i2d>
  40244e:	4622      	mov	r2, r4
  402450:	462b      	mov	r3, r5
  402452:	f000 fd37 	bl	402ec4 <__aeabi_dmul>
  402456:	2200      	movs	r2, #0
  402458:	e966 0102 	strd	r0, r1, [r6, #-8]!
  40245c:	4b73      	ldr	r3, [pc, #460]	; (40262c <__kernel_rem_pio2+0x684>)
  40245e:	4620      	mov	r0, r4
  402460:	4629      	mov	r1, r5
  402462:	f000 fd2f 	bl	402ec4 <__aeabi_dmul>
  402466:	42be      	cmp	r6, r7
  402468:	4604      	mov	r4, r0
  40246a:	460d      	mov	r5, r1
  40246c:	d1eb      	bne.n	402446 <__kernel_rem_pio2+0x49e>
  40246e:	f1a8 0808 	sub.w	r8, r8, #8
  402472:	eb06 0308 	add.w	r3, r6, r8
  402476:	f50d 7998 	add.w	r9, sp, #304	; 0x130
  40247a:	f8cd a018 	str.w	sl, [sp, #24]
  40247e:	f8dd a024 	ldr.w	sl, [sp, #36]	; 0x24
  402482:	f8cd 9010 	str.w	r9, [sp, #16]
  402486:	f04f 0800 	mov.w	r8, #0
  40248a:	469b      	mov	fp, r3
  40248c:	f1ba 0f00 	cmp.w	sl, #0
  402490:	f2c0 8098 	blt.w	4025c4 <__kernel_rem_pio2+0x61c>
  402494:	f1b8 0f00 	cmp.w	r8, #0
  402498:	f2c0 8094 	blt.w	4025c4 <__kernel_rem_pio2+0x61c>
  40249c:	f8df 9190 	ldr.w	r9, [pc, #400]	; 402630 <__kernel_rem_pio2+0x688>
  4024a0:	465d      	mov	r5, fp
  4024a2:	2600      	movs	r6, #0
  4024a4:	2700      	movs	r7, #0
  4024a6:	2400      	movs	r4, #0
  4024a8:	e001      	b.n	4024ae <__kernel_rem_pio2+0x506>
  4024aa:	4544      	cmp	r4, r8
  4024ac:	dc10      	bgt.n	4024d0 <__kernel_rem_pio2+0x528>
  4024ae:	e9f9 2302 	ldrd	r2, r3, [r9, #8]!
  4024b2:	e8f5 0102 	ldrd	r0, r1, [r5], #8
  4024b6:	f000 fd05 	bl	402ec4 <__aeabi_dmul>
  4024ba:	4602      	mov	r2, r0
  4024bc:	460b      	mov	r3, r1
  4024be:	4630      	mov	r0, r6
  4024c0:	4639      	mov	r1, r7
  4024c2:	f000 fb4d 	bl	402b60 <__adddf3>
  4024c6:	3401      	adds	r4, #1
  4024c8:	45a2      	cmp	sl, r4
  4024ca:	4606      	mov	r6, r0
  4024cc:	460f      	mov	r7, r1
  4024ce:	daec      	bge.n	4024aa <__kernel_rem_pio2+0x502>
  4024d0:	9b04      	ldr	r3, [sp, #16]
  4024d2:	eb03 03c8 	add.w	r3, r3, r8, lsl #3
  4024d6:	e9c3 6700 	strd	r6, r7, [r3]
  4024da:	9b00      	ldr	r3, [sp, #0]
  4024dc:	f108 0801 	add.w	r8, r8, #1
  4024e0:	4598      	cmp	r8, r3
  4024e2:	f1ab 0b08 	sub.w	fp, fp, #8
  4024e6:	d1d1      	bne.n	40248c <__kernel_rem_pio2+0x4e4>
  4024e8:	9ba6      	ldr	r3, [sp, #664]	; 0x298
  4024ea:	f8dd a018 	ldr.w	sl, [sp, #24]
  4024ee:	f8dd 9010 	ldr.w	r9, [sp, #16]
  4024f2:	2b03      	cmp	r3, #3
  4024f4:	d83d      	bhi.n	402572 <__kernel_rem_pio2+0x5ca>
  4024f6:	e8df f013 	tbh	[pc, r3, lsl #1]
  4024fa:	0043      	.short	0x0043
  4024fc:	00040004 	.word	0x00040004
  402500:	00db      	.short	0x00db
  402502:	9b00      	ldr	r3, [sp, #0]
  402504:	2400      	movs	r4, #0
  402506:	eb09 06c3 	add.w	r6, r9, r3, lsl #3
  40250a:	4625      	mov	r5, r4
  40250c:	4620      	mov	r0, r4
  40250e:	4629      	mov	r1, r5
  402510:	e976 2302 	ldrd	r2, r3, [r6, #-8]!
  402514:	f000 fb24 	bl	402b60 <__adddf3>
  402518:	454e      	cmp	r6, r9
  40251a:	4604      	mov	r4, r0
  40251c:	460d      	mov	r5, r1
  40251e:	d1f5      	bne.n	40250c <__kernel_rem_pio2+0x564>
  402520:	9b03      	ldr	r3, [sp, #12]
  402522:	2b00      	cmp	r3, #0
  402524:	f000 808e 	beq.w	402644 <__kernel_rem_pio2+0x69c>
  402528:	980a      	ldr	r0, [sp, #40]	; 0x28
  40252a:	462b      	mov	r3, r5
  40252c:	f105 4500 	add.w	r5, r5, #2147483648	; 0x80000000
  402530:	4622      	mov	r2, r4
  402532:	e880 0030 	stmia.w	r0, {r4, r5}
  402536:	e9d9 0100 	ldrd	r0, r1, [r9]
  40253a:	f000 fb0f 	bl	402b5c <__aeabi_dsub>
  40253e:	f1ba 0f00 	cmp.w	sl, #0
  402542:	4602      	mov	r2, r0
  402544:	460b      	mov	r3, r1
  402546:	dd0d      	ble.n	402564 <__kernel_rem_pio2+0x5bc>
  402548:	2401      	movs	r4, #1
  40254a:	4610      	mov	r0, r2
  40254c:	4619      	mov	r1, r3
  40254e:	e9f9 2302 	ldrd	r2, r3, [r9, #8]!
  402552:	f000 fb05 	bl	402b60 <__adddf3>
  402556:	3401      	adds	r4, #1
  402558:	45a2      	cmp	sl, r4
  40255a:	4602      	mov	r2, r0
  40255c:	460b      	mov	r3, r1
  40255e:	daf4      	bge.n	40254a <__kernel_rem_pio2+0x5a2>
  402560:	9903      	ldr	r1, [sp, #12]
  402562:	b109      	cbz	r1, 402568 <__kernel_rem_pio2+0x5c0>
  402564:	f103 4300 	add.w	r3, r3, #2147483648	; 0x80000000
  402568:	4619      	mov	r1, r3
  40256a:	9b0a      	ldr	r3, [sp, #40]	; 0x28
  40256c:	4610      	mov	r0, r2
  40256e:	e9c3 0102 	strd	r0, r1, [r3, #8]
  402572:	9b05      	ldr	r3, [sp, #20]
  402574:	f003 0007 	and.w	r0, r3, #7
  402578:	f50d 7d1d 	add.w	sp, sp, #628	; 0x274
  40257c:	e8bd 8ff0 	ldmia.w	sp!, {r4, r5, r6, r7, r8, r9, sl, fp, pc}
  402580:	9b00      	ldr	r3, [sp, #0]
  402582:	2200      	movs	r2, #0
  402584:	eb09 09c3 	add.w	r9, r9, r3, lsl #3
  402588:	4613      	mov	r3, r2
  40258a:	4610      	mov	r0, r2
  40258c:	4619      	mov	r1, r3
  40258e:	e979 2302 	ldrd	r2, r3, [r9, #-8]!
  402592:	f000 fae5 	bl	402b60 <__adddf3>
  402596:	f10a 3aff 	add.w	sl, sl, #4294967295
  40259a:	f1ba 3fff 	cmp.w	sl, #4294967295
  40259e:	4602      	mov	r2, r0
  4025a0:	460b      	mov	r3, r1
  4025a2:	d1f2      	bne.n	40258a <__kernel_rem_pio2+0x5e2>
  4025a4:	9903      	ldr	r1, [sp, #12]
  4025a6:	b109      	cbz	r1, 4025ac <__kernel_rem_pio2+0x604>
  4025a8:	f103 4300 	add.w	r3, r3, #2147483648	; 0x80000000
  4025ac:	4619      	mov	r1, r3
  4025ae:	9b0a      	ldr	r3, [sp, #40]	; 0x28
  4025b0:	4610      	mov	r0, r2
  4025b2:	e9c3 0100 	strd	r0, r1, [r3]
  4025b6:	9b05      	ldr	r3, [sp, #20]
  4025b8:	f003 0007 	and.w	r0, r3, #7
  4025bc:	f50d 7d1d 	add.w	sp, sp, #628	; 0x274
  4025c0:	e8bd 8ff0 	ldmia.w	sp!, {r4, r5, r6, r7, r8, r9, sl, fp, pc}
  4025c4:	2600      	movs	r6, #0
  4025c6:	2700      	movs	r7, #0
  4025c8:	e782      	b.n	4024d0 <__kernel_rem_pio2+0x528>
  4025ca:	9ba6      	ldr	r3, [sp, #664]	; 0x298
  4025cc:	2b03      	cmp	r3, #3
  4025ce:	d8d0      	bhi.n	402572 <__kernel_rem_pio2+0x5ca>
  4025d0:	e8df f003 	tbb	[pc, r3]
  4025d4:	0230304f 	.word	0x0230304f
  4025d8:	f50d 7998 	add.w	r9, sp, #304	; 0x130
  4025dc:	9b03      	ldr	r3, [sp, #12]
  4025de:	2700      	movs	r7, #0
  4025e0:	463e      	mov	r6, r7
  4025e2:	2b00      	cmp	r3, #0
  4025e4:	f000 80c7 	beq.w	402776 <__kernel_rem_pio2+0x7ce>
  4025e8:	f8d9 300c 	ldr.w	r3, [r9, #12]
  4025ec:	9d0a      	ldr	r5, [sp, #40]	; 0x28
  4025ee:	f8d9 0004 	ldr.w	r0, [r9, #4]
  4025f2:	f8d9 2000 	ldr.w	r2, [r9]
  4025f6:	f8d9 1008 	ldr.w	r1, [r9, #8]
  4025fa:	612f      	str	r7, [r5, #16]
  4025fc:	f103 4300 	add.w	r3, r3, #2147483648	; 0x80000000
  402600:	60eb      	str	r3, [r5, #12]
  402602:	9b05      	ldr	r3, [sp, #20]
  402604:	602a      	str	r2, [r5, #0]
  402606:	f100 4000 	add.w	r0, r0, #2147483648	; 0x80000000
  40260a:	f106 4600 	add.w	r6, r6, #2147483648	; 0x80000000
  40260e:	6068      	str	r0, [r5, #4]
  402610:	f003 0007 	and.w	r0, r3, #7
  402614:	616e      	str	r6, [r5, #20]
  402616:	60a9      	str	r1, [r5, #8]
  402618:	f50d 7d1d 	add.w	sp, sp, #628	; 0x274
  40261c:	e8bd 8ff0 	ldmia.w	sp!, {r4, r5, r6, r7, r8, r9, sl, fp, pc}
  402620:	3ff00000 	.word	0x3ff00000
  402624:	3fe00000 	.word	0x3fe00000
  402628:	41700000 	.word	0x41700000
  40262c:	3e700000 	.word	0x3e700000
  402630:	00407fb0 	.word	0x00407fb0
  402634:	9b03      	ldr	r3, [sp, #12]
  402636:	2400      	movs	r4, #0
  402638:	4625      	mov	r5, r4
  40263a:	f50d 7998 	add.w	r9, sp, #304	; 0x130
  40263e:	2b00      	cmp	r3, #0
  402640:	f47f af72 	bne.w	402528 <__kernel_rem_pio2+0x580>
  402644:	4620      	mov	r0, r4
  402646:	4622      	mov	r2, r4
  402648:	9c0a      	ldr	r4, [sp, #40]	; 0x28
  40264a:	4629      	mov	r1, r5
  40264c:	462b      	mov	r3, r5
  40264e:	e9c4 0100 	strd	r0, r1, [r4]
  402652:	e9d9 0100 	ldrd	r0, r1, [r9]
  402656:	f000 fa81 	bl	402b5c <__aeabi_dsub>
  40265a:	f1ba 0f00 	cmp.w	sl, #0
  40265e:	4602      	mov	r2, r0
  402660:	460b      	mov	r3, r1
  402662:	f73f af71 	bgt.w	402548 <__kernel_rem_pio2+0x5a0>
  402666:	4619      	mov	r1, r3
  402668:	9b0a      	ldr	r3, [sp, #40]	; 0x28
  40266a:	4610      	mov	r0, r2
  40266c:	e9c3 0102 	strd	r0, r1, [r3, #8]
  402670:	e77f      	b.n	402572 <__kernel_rem_pio2+0x5ca>
  402672:	2200      	movs	r2, #0
  402674:	4613      	mov	r3, r2
  402676:	e795      	b.n	4025a4 <__kernel_rem_pio2+0x5fc>
  402678:	ab10      	add	r3, sp, #64	; 0x40
  40267a:	9a08      	ldr	r2, [sp, #32]
  40267c:	f853 302a 	ldr.w	r3, [r3, sl, lsl #2]
  402680:	9503      	str	r5, [sp, #12]
  402682:	3a18      	subs	r2, #24
  402684:	f8cd 8014 	str.w	r8, [sp, #20]
  402688:	9208      	str	r2, [sp, #32]
  40268a:	2b00      	cmp	r3, #0
  40268c:	f47f aec5 	bne.w	40241a <__kernel_rem_pio2+0x472>
  402690:	ab10      	add	r3, sp, #64	; 0x40
  402692:	eb03 038a 	add.w	r3, r3, sl, lsl #2
  402696:	f853 1d04 	ldr.w	r1, [r3, #-4]!
  40269a:	f10a 3aff 	add.w	sl, sl, #4294967295
  40269e:	3a18      	subs	r2, #24
  4026a0:	2900      	cmp	r1, #0
  4026a2:	d0f8      	beq.n	402696 <__kernel_rem_pio2+0x6ee>
  4026a4:	9208      	str	r2, [sp, #32]
  4026a6:	e6b8      	b.n	40241a <__kernel_rem_pio2+0x472>
  4026a8:	2301      	movs	r3, #1
  4026aa:	e5d9      	b.n	402260 <__kernel_rem_pio2+0x2b8>
  4026ac:	2400      	movs	r4, #0
  4026ae:	e597      	b.n	4021e0 <__kernel_rem_pio2+0x238>
  4026b0:	f1ba 0f00 	cmp.w	sl, #0
  4026b4:	dd92      	ble.n	4025dc <__kernel_rem_pio2+0x634>
  4026b6:	ea4f 08ca 	mov.w	r8, sl, lsl #3
  4026ba:	eb09 0b08 	add.w	fp, r9, r8
  4026be:	e9db 6700 	ldrd	r6, r7, [fp]
  4026c2:	e97b 2302 	ldrd	r2, r3, [fp, #-8]!
  4026c6:	4630      	mov	r0, r6
  4026c8:	4639      	mov	r1, r7
  4026ca:	e9cd 2300 	strd	r2, r3, [sp]
  4026ce:	f000 fa47 	bl	402b60 <__adddf3>
  4026d2:	4604      	mov	r4, r0
  4026d4:	460d      	mov	r5, r1
  4026d6:	4622      	mov	r2, r4
  4026d8:	462b      	mov	r3, r5
  4026da:	e9dd 0100 	ldrd	r0, r1, [sp]
  4026de:	f000 fa3d 	bl	402b5c <__aeabi_dsub>
  4026e2:	4602      	mov	r2, r0
  4026e4:	460b      	mov	r3, r1
  4026e6:	4630      	mov	r0, r6
  4026e8:	4639      	mov	r1, r7
  4026ea:	f000 fa39 	bl	402b60 <__adddf3>
  4026ee:	45cb      	cmp	fp, r9
  4026f0:	4626      	mov	r6, r4
  4026f2:	462f      	mov	r7, r5
  4026f4:	e9cb 0102 	strd	r0, r1, [fp, #8]
  4026f8:	e9cb 4500 	strd	r4, r5, [fp]
  4026fc:	d1e1      	bne.n	4026c2 <__kernel_rem_pio2+0x71a>
  4026fe:	f1ba 0f01 	cmp.w	sl, #1
  402702:	f77f af6b 	ble.w	4025dc <__kernel_rem_pio2+0x634>
  402706:	eb09 0a08 	add.w	sl, r9, r8
  40270a:	e9da 6700 	ldrd	r6, r7, [sl]
  40270e:	f50d 7b9c 	add.w	fp, sp, #312	; 0x138
  402712:	e97a 2302 	ldrd	r2, r3, [sl, #-8]!
  402716:	4610      	mov	r0, r2
  402718:	4619      	mov	r1, r3
  40271a:	4632      	mov	r2, r6
  40271c:	463b      	mov	r3, r7
  40271e:	e9cd 0100 	strd	r0, r1, [sp]
  402722:	f000 fa1d 	bl	402b60 <__adddf3>
  402726:	4604      	mov	r4, r0
  402728:	460d      	mov	r5, r1
  40272a:	4622      	mov	r2, r4
  40272c:	462b      	mov	r3, r5
  40272e:	e9dd 0100 	ldrd	r0, r1, [sp]
  402732:	f000 fa13 	bl	402b5c <__aeabi_dsub>
  402736:	4632      	mov	r2, r6
  402738:	463b      	mov	r3, r7
  40273a:	f000 fa11 	bl	402b60 <__adddf3>
  40273e:	45da      	cmp	sl, fp
  402740:	4626      	mov	r6, r4
  402742:	462f      	mov	r7, r5
  402744:	e9ca 0102 	strd	r0, r1, [sl, #8]
  402748:	e9ca 4500 	strd	r4, r5, [sl]
  40274c:	d1e1      	bne.n	402712 <__kernel_rem_pio2+0x76a>
  40274e:	f108 0408 	add.w	r4, r8, #8
  402752:	2700      	movs	r7, #0
  402754:	444c      	add	r4, r9
  402756:	463e      	mov	r6, r7
  402758:	ad50      	add	r5, sp, #320	; 0x140
  40275a:	4638      	mov	r0, r7
  40275c:	4631      	mov	r1, r6
  40275e:	e974 2302 	ldrd	r2, r3, [r4, #-8]!
  402762:	f000 f9fd 	bl	402b60 <__adddf3>
  402766:	42ac      	cmp	r4, r5
  402768:	4607      	mov	r7, r0
  40276a:	460e      	mov	r6, r1
  40276c:	d1f5      	bne.n	40275a <__kernel_rem_pio2+0x7b2>
  40276e:	9b03      	ldr	r3, [sp, #12]
  402770:	2b00      	cmp	r3, #0
  402772:	f47f af39 	bne.w	4025e8 <__kernel_rem_pio2+0x640>
  402776:	e9d9 2300 	ldrd	r2, r3, [r9]
  40277a:	463c      	mov	r4, r7
  40277c:	9f0a      	ldr	r7, [sp, #40]	; 0x28
  40277e:	e9d9 0102 	ldrd	r0, r1, [r9, #8]
  402782:	e9c7 2300 	strd	r2, r3, [r7]
  402786:	9b05      	ldr	r3, [sp, #20]
  402788:	4635      	mov	r5, r6
  40278a:	e9c7 0102 	strd	r0, r1, [r7, #8]
  40278e:	f003 0007 	and.w	r0, r3, #7
  402792:	e9c7 4504 	strd	r4, r5, [r7, #16]
  402796:	f50d 7d1d 	add.w	sp, sp, #628	; 0x274
  40279a:	e8bd 8ff0 	ldmia.w	sp!, {r4, r5, r6, r7, r8, r9, sl, fp, pc}
  40279e:	4620      	mov	r0, r4
  4027a0:	4629      	mov	r1, r5
  4027a2:	f000 fe29 	bl	4033f8 <__aeabi_d2iz>
  4027a6:	ab10      	add	r3, sp, #64	; 0x40
  4027a8:	46da      	mov	sl, fp
  4027aa:	f843 002b 	str.w	r0, [r3, fp, lsl #2]
  4027ae:	e634      	b.n	40241a <__kernel_rem_pio2+0x472>

004027b0 <__kernel_sin>:
  4027b0:	e92d 4ff0 	stmdb	sp!, {r4, r5, r6, r7, r8, r9, sl, fp, lr}
  4027b4:	f021 4600 	bic.w	r6, r1, #2147483648	; 0x80000000
  4027b8:	f1b6 5f79 	cmp.w	r6, #1044381696	; 0x3e400000
  4027bc:	b085      	sub	sp, #20
  4027be:	460c      	mov	r4, r1
  4027c0:	4690      	mov	r8, r2
  4027c2:	4699      	mov	r9, r3
  4027c4:	4605      	mov	r5, r0
  4027c6:	da04      	bge.n	4027d2 <__kernel_sin+0x22>
  4027c8:	f000 fe16 	bl	4033f8 <__aeabi_d2iz>
  4027cc:	2800      	cmp	r0, #0
  4027ce:	f000 8083 	beq.w	4028d8 <__kernel_sin+0x128>
  4027d2:	462a      	mov	r2, r5
  4027d4:	4623      	mov	r3, r4
  4027d6:	4628      	mov	r0, r5
  4027d8:	4621      	mov	r1, r4
  4027da:	f000 fb73 	bl	402ec4 <__aeabi_dmul>
  4027de:	462a      	mov	r2, r5
  4027e0:	4623      	mov	r3, r4
  4027e2:	4606      	mov	r6, r0
  4027e4:	460f      	mov	r7, r1
  4027e6:	f000 fb6d 	bl	402ec4 <__aeabi_dmul>
  4027ea:	a33f      	add	r3, pc, #252	; (adr r3, 4028e8 <__kernel_sin+0x138>)
  4027ec:	e9d3 2300 	ldrd	r2, r3, [r3]
  4027f0:	4682      	mov	sl, r0
  4027f2:	468b      	mov	fp, r1
  4027f4:	4630      	mov	r0, r6
  4027f6:	4639      	mov	r1, r7
  4027f8:	f000 fb64 	bl	402ec4 <__aeabi_dmul>
  4027fc:	a33c      	add	r3, pc, #240	; (adr r3, 4028f0 <__kernel_sin+0x140>)
  4027fe:	e9d3 2300 	ldrd	r2, r3, [r3]
  402802:	f000 f9ab 	bl	402b5c <__aeabi_dsub>
  402806:	4632      	mov	r2, r6
  402808:	463b      	mov	r3, r7
  40280a:	f000 fb5b 	bl	402ec4 <__aeabi_dmul>
  40280e:	a33a      	add	r3, pc, #232	; (adr r3, 4028f8 <__kernel_sin+0x148>)
  402810:	e9d3 2300 	ldrd	r2, r3, [r3]
  402814:	f000 f9a4 	bl	402b60 <__adddf3>
  402818:	4632      	mov	r2, r6
  40281a:	463b      	mov	r3, r7
  40281c:	f000 fb52 	bl	402ec4 <__aeabi_dmul>
  402820:	a337      	add	r3, pc, #220	; (adr r3, 402900 <__kernel_sin+0x150>)
  402822:	e9d3 2300 	ldrd	r2, r3, [r3]
  402826:	f000 f999 	bl	402b5c <__aeabi_dsub>
  40282a:	4632      	mov	r2, r6
  40282c:	463b      	mov	r3, r7
  40282e:	f000 fb49 	bl	402ec4 <__aeabi_dmul>
  402832:	a335      	add	r3, pc, #212	; (adr r3, 402908 <__kernel_sin+0x158>)
  402834:	e9d3 2300 	ldrd	r2, r3, [r3]
  402838:	f000 f992 	bl	402b60 <__adddf3>
  40283c:	9b0e      	ldr	r3, [sp, #56]	; 0x38
  40283e:	e9cd 0100 	strd	r0, r1, [sp]
  402842:	b39b      	cbz	r3, 4028ac <__kernel_sin+0xfc>
  402844:	4640      	mov	r0, r8
  402846:	4649      	mov	r1, r9
  402848:	2200      	movs	r2, #0
  40284a:	4b33      	ldr	r3, [pc, #204]	; (402918 <__kernel_sin+0x168>)
  40284c:	f000 fb3a 	bl	402ec4 <__aeabi_dmul>
  402850:	e9dd 2300 	ldrd	r2, r3, [sp]
  402854:	e9cd 0102 	strd	r0, r1, [sp, #8]
  402858:	4650      	mov	r0, sl
  40285a:	4659      	mov	r1, fp
  40285c:	f000 fb32 	bl	402ec4 <__aeabi_dmul>
  402860:	4602      	mov	r2, r0
  402862:	460b      	mov	r3, r1
  402864:	e9dd 0102 	ldrd	r0, r1, [sp, #8]
  402868:	f000 f978 	bl	402b5c <__aeabi_dsub>
  40286c:	4632      	mov	r2, r6
  40286e:	463b      	mov	r3, r7
  402870:	f000 fb28 	bl	402ec4 <__aeabi_dmul>
  402874:	4642      	mov	r2, r8
  402876:	464b      	mov	r3, r9
  402878:	f000 f970 	bl	402b5c <__aeabi_dsub>
  40287c:	a324      	add	r3, pc, #144	; (adr r3, 402910 <__kernel_sin+0x160>)
  40287e:	e9d3 2300 	ldrd	r2, r3, [r3]
  402882:	4606      	mov	r6, r0
  402884:	460f      	mov	r7, r1
  402886:	4650      	mov	r0, sl
  402888:	4659      	mov	r1, fp
  40288a:	f000 fb1b 	bl	402ec4 <__aeabi_dmul>
  40288e:	4602      	mov	r2, r0
  402890:	460b      	mov	r3, r1
  402892:	4630      	mov	r0, r6
  402894:	4639      	mov	r1, r7
  402896:	f000 f963 	bl	402b60 <__adddf3>
  40289a:	4602      	mov	r2, r0
  40289c:	460b      	mov	r3, r1
  40289e:	4628      	mov	r0, r5
  4028a0:	4621      	mov	r1, r4
  4028a2:	f000 f95b 	bl	402b5c <__aeabi_dsub>
  4028a6:	b005      	add	sp, #20
  4028a8:	e8bd 8ff0 	ldmia.w	sp!, {r4, r5, r6, r7, r8, r9, sl, fp, pc}
  4028ac:	e9dd 2300 	ldrd	r2, r3, [sp]
  4028b0:	4630      	mov	r0, r6
  4028b2:	4639      	mov	r1, r7
  4028b4:	f000 fb06 	bl	402ec4 <__aeabi_dmul>
  4028b8:	a315      	add	r3, pc, #84	; (adr r3, 402910 <__kernel_sin+0x160>)
  4028ba:	e9d3 2300 	ldrd	r2, r3, [r3]
  4028be:	f000 f94d 	bl	402b5c <__aeabi_dsub>
  4028c2:	4652      	mov	r2, sl
  4028c4:	465b      	mov	r3, fp
  4028c6:	f000 fafd 	bl	402ec4 <__aeabi_dmul>
  4028ca:	462a      	mov	r2, r5
  4028cc:	4623      	mov	r3, r4
  4028ce:	f000 f947 	bl	402b60 <__adddf3>
  4028d2:	b005      	add	sp, #20
  4028d4:	e8bd 8ff0 	ldmia.w	sp!, {r4, r5, r6, r7, r8, r9, sl, fp, pc}
  4028d8:	4628      	mov	r0, r5
  4028da:	4621      	mov	r1, r4
  4028dc:	b005      	add	sp, #20
  4028de:	e8bd 8ff0 	ldmia.w	sp!, {r4, r5, r6, r7, r8, r9, sl, fp, pc}
  4028e2:	bf00      	nop
  4028e4:	f3af 8000 	nop.w
  4028e8:	5acfd57c 	.word	0x5acfd57c
  4028ec:	3de5d93a 	.word	0x3de5d93a
  4028f0:	8a2b9ceb 	.word	0x8a2b9ceb
  4028f4:	3e5ae5e6 	.word	0x3e5ae5e6
  4028f8:	57b1fe7d 	.word	0x57b1fe7d
  4028fc:	3ec71de3 	.word	0x3ec71de3
  402900:	19c161d5 	.word	0x19c161d5
  402904:	3f2a01a0 	.word	0x3f2a01a0
  402908:	1110f8a6 	.word	0x1110f8a6
  40290c:	3f811111 	.word	0x3f811111
  402910:	55555549 	.word	0x55555549
  402914:	3fc55555 	.word	0x3fc55555
  402918:	3fe00000 	.word	0x3fe00000

0040291c <fabs>:
  40291c:	f021 4100 	bic.w	r1, r1, #2147483648	; 0x80000000
  402920:	4770      	bx	lr
  402922:	bf00      	nop
  402924:	0000      	movs	r0, r0
	...

00402928 <floor>:
  402928:	e92d 47f0 	stmdb	sp!, {r4, r5, r6, r7, r8, r9, sl, lr}
  40292c:	f3c1 580a 	ubfx	r8, r1, #20, #11
  402930:	f2a8 36ff 	subw	r6, r8, #1023	; 0x3ff
  402934:	2e13      	cmp	r6, #19
  402936:	460b      	mov	r3, r1
  402938:	460d      	mov	r5, r1
  40293a:	4604      	mov	r4, r0
  40293c:	4602      	mov	r2, r0
  40293e:	4689      	mov	r9, r1
  402940:	4607      	mov	r7, r0
  402942:	dc1d      	bgt.n	402980 <floor+0x58>
  402944:	2e00      	cmp	r6, #0
  402946:	db40      	blt.n	4029ca <floor+0xa2>
  402948:	f8df 80f0 	ldr.w	r8, [pc, #240]	; 402a3c <floor+0x114>
  40294c:	fa48 f806 	asr.w	r8, r8, r6
  402950:	ea08 0e01 	and.w	lr, r8, r1
  402954:	ea5e 0202 	orrs.w	r2, lr, r2
  402958:	d017      	beq.n	40298a <floor+0x62>
  40295a:	a335      	add	r3, pc, #212	; (adr r3, 402a30 <floor+0x108>)
  40295c:	e9d3 2300 	ldrd	r2, r3, [r3]
  402960:	f000 f8fe 	bl	402b60 <__adddf3>
  402964:	2200      	movs	r2, #0
  402966:	2300      	movs	r3, #0
  402968:	f000 fd3c 	bl	4033e4 <__aeabi_dcmpgt>
  40296c:	b120      	cbz	r0, 402978 <floor+0x50>
  40296e:	2d00      	cmp	r5, #0
  402970:	db40      	blt.n	4029f4 <floor+0xcc>
  402972:	ea29 0508 	bic.w	r5, r9, r8
  402976:	2700      	movs	r7, #0
  402978:	4638      	mov	r0, r7
  40297a:	4629      	mov	r1, r5
  40297c:	e8bd 87f0 	ldmia.w	sp!, {r4, r5, r6, r7, r8, r9, sl, pc}
  402980:	2e33      	cmp	r6, #51	; 0x33
  402982:	dd06      	ble.n	402992 <floor+0x6a>
  402984:	f5b6 6f80 	cmp.w	r6, #1024	; 0x400
  402988:	d02f      	beq.n	4029ea <floor+0xc2>
  40298a:	4620      	mov	r0, r4
  40298c:	4619      	mov	r1, r3
  40298e:	e8bd 87f0 	ldmia.w	sp!, {r4, r5, r6, r7, r8, r9, sl, pc}
  402992:	f2a8 4213 	subw	r2, r8, #1043	; 0x413
  402996:	f04f 3aff 	mov.w	sl, #4294967295
  40299a:	fa2a fa02 	lsr.w	sl, sl, r2
  40299e:	ea1a 0f00 	tst.w	sl, r0
  4029a2:	d0f2      	beq.n	40298a <floor+0x62>
  4029a4:	a322      	add	r3, pc, #136	; (adr r3, 402a30 <floor+0x108>)
  4029a6:	e9d3 2300 	ldrd	r2, r3, [r3]
  4029aa:	f000 f8d9 	bl	402b60 <__adddf3>
  4029ae:	2200      	movs	r2, #0
  4029b0:	2300      	movs	r3, #0
  4029b2:	f000 fd17 	bl	4033e4 <__aeabi_dcmpgt>
  4029b6:	2800      	cmp	r0, #0
  4029b8:	d0de      	beq.n	402978 <floor+0x50>
  4029ba:	2d00      	cmp	r5, #0
  4029bc:	db1f      	blt.n	4029fe <floor+0xd6>
  4029be:	464d      	mov	r5, r9
  4029c0:	ea27 070a 	bic.w	r7, r7, sl
  4029c4:	4638      	mov	r0, r7
  4029c6:	4629      	mov	r1, r5
  4029c8:	e7d8      	b.n	40297c <floor+0x54>
  4029ca:	a319      	add	r3, pc, #100	; (adr r3, 402a30 <floor+0x108>)
  4029cc:	e9d3 2300 	ldrd	r2, r3, [r3]
  4029d0:	f000 f8c6 	bl	402b60 <__adddf3>
  4029d4:	2200      	movs	r2, #0
  4029d6:	2300      	movs	r3, #0
  4029d8:	f000 fd04 	bl	4033e4 <__aeabi_dcmpgt>
  4029dc:	2800      	cmp	r0, #0
  4029de:	d0cb      	beq.n	402978 <floor+0x50>
  4029e0:	2d00      	cmp	r5, #0
  4029e2:	db1a      	blt.n	402a1a <floor+0xf2>
  4029e4:	2700      	movs	r7, #0
  4029e6:	463d      	mov	r5, r7
  4029e8:	e7c6      	b.n	402978 <floor+0x50>
  4029ea:	4602      	mov	r2, r0
  4029ec:	460b      	mov	r3, r1
  4029ee:	f000 f8b7 	bl	402b60 <__adddf3>
  4029f2:	e7cc      	b.n	40298e <floor+0x66>
  4029f4:	f44f 1380 	mov.w	r3, #1048576	; 0x100000
  4029f8:	4133      	asrs	r3, r6
  4029fa:	4499      	add	r9, r3
  4029fc:	e7b9      	b.n	402972 <floor+0x4a>
  4029fe:	2e14      	cmp	r6, #20
  402a00:	d008      	beq.n	402a14 <floor+0xec>
  402a02:	f5c8 6886 	rsb	r8, r8, #1072	; 0x430
  402a06:	f108 0803 	add.w	r8, r8, #3
  402a0a:	2301      	movs	r3, #1
  402a0c:	fa03 f308 	lsl.w	r3, r3, r8
  402a10:	191f      	adds	r7, r3, r4
  402a12:	d3d4      	bcc.n	4029be <floor+0x96>
  402a14:	f109 0901 	add.w	r9, r9, #1
  402a18:	e7d1      	b.n	4029be <floor+0x96>
  402a1a:	f025 4200 	bic.w	r2, r5, #2147483648	; 0x80000000
  402a1e:	4b06      	ldr	r3, [pc, #24]	; (402a38 <floor+0x110>)
  402a20:	4322      	orrs	r2, r4
  402a22:	bf18      	it	ne
  402a24:	461d      	movne	r5, r3
  402a26:	2700      	movs	r7, #0
  402a28:	e7a6      	b.n	402978 <floor+0x50>
  402a2a:	bf00      	nop
  402a2c:	f3af 8000 	nop.w
  402a30:	8800759c 	.word	0x8800759c
  402a34:	7e37e43c 	.word	0x7e37e43c
  402a38:	bff00000 	.word	0xbff00000
  402a3c:	000fffff 	.word	0x000fffff

00402a40 <scalbn>:
  402a40:	b5f8      	push	{r3, r4, r5, r6, r7, lr}
  402a42:	f3c1 560a 	ubfx	r6, r1, #20, #11
  402a46:	4604      	mov	r4, r0
  402a48:	460d      	mov	r5, r1
  402a4a:	460b      	mov	r3, r1
  402a4c:	4617      	mov	r7, r2
  402a4e:	bb16      	cbnz	r6, 402a96 <scalbn+0x56>
  402a50:	f021 4300 	bic.w	r3, r1, #2147483648	; 0x80000000
  402a54:	4303      	orrs	r3, r0
  402a56:	d032      	beq.n	402abe <scalbn+0x7e>
  402a58:	2200      	movs	r2, #0
  402a5a:	4b37      	ldr	r3, [pc, #220]	; (402b38 <scalbn+0xf8>)
  402a5c:	f000 fa32 	bl	402ec4 <__aeabi_dmul>
  402a60:	4a36      	ldr	r2, [pc, #216]	; (402b3c <scalbn+0xfc>)
  402a62:	4297      	cmp	r7, r2
  402a64:	4604      	mov	r4, r0
  402a66:	460d      	mov	r5, r1
  402a68:	460b      	mov	r3, r1
  402a6a:	db37      	blt.n	402adc <scalbn+0x9c>
  402a6c:	f3c1 560a 	ubfx	r6, r1, #20, #11
  402a70:	3e36      	subs	r6, #54	; 0x36
  402a72:	443e      	add	r6, r7
  402a74:	f240 72fe 	movw	r2, #2046	; 0x7fe
  402a78:	4296      	cmp	r6, r2
  402a7a:	dd15      	ble.n	402aa8 <scalbn+0x68>
  402a7c:	4622      	mov	r2, r4
  402a7e:	462b      	mov	r3, r5
  402a80:	a129      	add	r1, pc, #164	; (adr r1, 402b28 <scalbn+0xe8>)
  402a82:	e9d1 0100 	ldrd	r0, r1, [r1]
  402a86:	f000 f85d 	bl	402b44 <copysign>
  402a8a:	a327      	add	r3, pc, #156	; (adr r3, 402b28 <scalbn+0xe8>)
  402a8c:	e9d3 2300 	ldrd	r2, r3, [r3]
  402a90:	f000 fa18 	bl	402ec4 <__aeabi_dmul>
  402a94:	bdf8      	pop	{r3, r4, r5, r6, r7, pc}
  402a96:	f240 72ff 	movw	r2, #2047	; 0x7ff
  402a9a:	4296      	cmp	r6, r2
  402a9c:	d024      	beq.n	402ae8 <scalbn+0xa8>
  402a9e:	443e      	add	r6, r7
  402aa0:	f240 72fe 	movw	r2, #2046	; 0x7fe
  402aa4:	4296      	cmp	r6, r2
  402aa6:	dce9      	bgt.n	402a7c <scalbn+0x3c>
  402aa8:	2e00      	cmp	r6, #0
  402aaa:	dd09      	ble.n	402ac0 <scalbn+0x80>
  402aac:	f023 43ff 	bic.w	r3, r3, #2139095040	; 0x7f800000
  402ab0:	f423 03e0 	bic.w	r3, r3, #7340032	; 0x700000
  402ab4:	ea43 5506 	orr.w	r5, r3, r6, lsl #20
  402ab8:	4620      	mov	r0, r4
  402aba:	4629      	mov	r1, r5
  402abc:	bdf8      	pop	{r3, r4, r5, r6, r7, pc}
  402abe:	bdf8      	pop	{r3, r4, r5, r6, r7, pc}
  402ac0:	f116 0f35 	cmn.w	r6, #53	; 0x35
  402ac4:	da15      	bge.n	402af2 <scalbn+0xb2>
  402ac6:	f24c 3350 	movw	r3, #50000	; 0xc350
  402aca:	429f      	cmp	r7, r3
  402acc:	4622      	mov	r2, r4
  402ace:	462b      	mov	r3, r5
  402ad0:	dc1d      	bgt.n	402b0e <scalbn+0xce>
  402ad2:	a117      	add	r1, pc, #92	; (adr r1, 402b30 <scalbn+0xf0>)
  402ad4:	e9d1 0100 	ldrd	r0, r1, [r1]
  402ad8:	f000 f834 	bl	402b44 <copysign>
  402adc:	a314      	add	r3, pc, #80	; (adr r3, 402b30 <scalbn+0xf0>)
  402ade:	e9d3 2300 	ldrd	r2, r3, [r3]
  402ae2:	f000 f9ef 	bl	402ec4 <__aeabi_dmul>
  402ae6:	bdf8      	pop	{r3, r4, r5, r6, r7, pc}
  402ae8:	4602      	mov	r2, r0
  402aea:	460b      	mov	r3, r1
  402aec:	f000 f838 	bl	402b60 <__adddf3>
  402af0:	bdf8      	pop	{r3, r4, r5, r6, r7, pc}
  402af2:	f023 43ff 	bic.w	r3, r3, #2139095040	; 0x7f800000
  402af6:	f423 03e0 	bic.w	r3, r3, #7340032	; 0x700000
  402afa:	3636      	adds	r6, #54	; 0x36
  402afc:	ea43 5506 	orr.w	r5, r3, r6, lsl #20
  402b00:	4620      	mov	r0, r4
  402b02:	4629      	mov	r1, r5
  402b04:	2200      	movs	r2, #0
  402b06:	4b0e      	ldr	r3, [pc, #56]	; (402b40 <scalbn+0x100>)
  402b08:	f000 f9dc 	bl	402ec4 <__aeabi_dmul>
  402b0c:	bdf8      	pop	{r3, r4, r5, r6, r7, pc}
  402b0e:	a106      	add	r1, pc, #24	; (adr r1, 402b28 <scalbn+0xe8>)
  402b10:	e9d1 0100 	ldrd	r0, r1, [r1]
  402b14:	f000 f816 	bl	402b44 <copysign>
  402b18:	a303      	add	r3, pc, #12	; (adr r3, 402b28 <scalbn+0xe8>)
  402b1a:	e9d3 2300 	ldrd	r2, r3, [r3]
  402b1e:	f000 f9d1 	bl	402ec4 <__aeabi_dmul>
  402b22:	bdf8      	pop	{r3, r4, r5, r6, r7, pc}
  402b24:	f3af 8000 	nop.w
  402b28:	8800759c 	.word	0x8800759c
  402b2c:	7e37e43c 	.word	0x7e37e43c
  402b30:	c2f8f359 	.word	0xc2f8f359
  402b34:	01a56e1f 	.word	0x01a56e1f
  402b38:	43500000 	.word	0x43500000
  402b3c:	ffff3cb0 	.word	0xffff3cb0
  402b40:	3c900000 	.word	0x3c900000

00402b44 <copysign>:
  402b44:	f003 4300 	and.w	r3, r3, #2147483648	; 0x80000000
  402b48:	f021 4200 	bic.w	r2, r1, #2147483648	; 0x80000000
  402b4c:	ea43 0102 	orr.w	r1, r3, r2
  402b50:	4770      	bx	lr
  402b52:	bf00      	nop

00402b54 <__aeabi_drsub>:
  402b54:	f081 4100 	eor.w	r1, r1, #2147483648	; 0x80000000
  402b58:	e002      	b.n	402b60 <__adddf3>
  402b5a:	bf00      	nop

00402b5c <__aeabi_dsub>:
  402b5c:	f083 4300 	eor.w	r3, r3, #2147483648	; 0x80000000

00402b60 <__adddf3>:
  402b60:	b530      	push	{r4, r5, lr}
  402b62:	ea4f 0441 	mov.w	r4, r1, lsl #1
  402b66:	ea4f 0543 	mov.w	r5, r3, lsl #1
  402b6a:	ea94 0f05 	teq	r4, r5
  402b6e:	bf08      	it	eq
  402b70:	ea90 0f02 	teqeq	r0, r2
  402b74:	bf1f      	itttt	ne
  402b76:	ea54 0c00 	orrsne.w	ip, r4, r0
  402b7a:	ea55 0c02 	orrsne.w	ip, r5, r2
  402b7e:	ea7f 5c64 	mvnsne.w	ip, r4, asr #21
  402b82:	ea7f 5c65 	mvnsne.w	ip, r5, asr #21
  402b86:	f000 80e2 	beq.w	402d4e <__adddf3+0x1ee>
  402b8a:	ea4f 5454 	mov.w	r4, r4, lsr #21
  402b8e:	ebd4 5555 	rsbs	r5, r4, r5, lsr #21
  402b92:	bfb8      	it	lt
  402b94:	426d      	neglt	r5, r5
  402b96:	dd0c      	ble.n	402bb2 <__adddf3+0x52>
  402b98:	442c      	add	r4, r5
  402b9a:	ea80 0202 	eor.w	r2, r0, r2
  402b9e:	ea81 0303 	eor.w	r3, r1, r3
  402ba2:	ea82 0000 	eor.w	r0, r2, r0
  402ba6:	ea83 0101 	eor.w	r1, r3, r1
  402baa:	ea80 0202 	eor.w	r2, r0, r2
  402bae:	ea81 0303 	eor.w	r3, r1, r3
  402bb2:	2d36      	cmp	r5, #54	; 0x36
  402bb4:	bf88      	it	hi
  402bb6:	bd30      	pophi	{r4, r5, pc}
  402bb8:	f011 4f00 	tst.w	r1, #2147483648	; 0x80000000
  402bbc:	ea4f 3101 	mov.w	r1, r1, lsl #12
  402bc0:	f44f 1c80 	mov.w	ip, #1048576	; 0x100000
  402bc4:	ea4c 3111 	orr.w	r1, ip, r1, lsr #12
  402bc8:	d002      	beq.n	402bd0 <__adddf3+0x70>
  402bca:	4240      	negs	r0, r0
  402bcc:	eb61 0141 	sbc.w	r1, r1, r1, lsl #1
  402bd0:	f013 4f00 	tst.w	r3, #2147483648	; 0x80000000
  402bd4:	ea4f 3303 	mov.w	r3, r3, lsl #12
  402bd8:	ea4c 3313 	orr.w	r3, ip, r3, lsr #12
  402bdc:	d002      	beq.n	402be4 <__adddf3+0x84>
  402bde:	4252      	negs	r2, r2
  402be0:	eb63 0343 	sbc.w	r3, r3, r3, lsl #1
  402be4:	ea94 0f05 	teq	r4, r5
  402be8:	f000 80a7 	beq.w	402d3a <__adddf3+0x1da>
  402bec:	f1a4 0401 	sub.w	r4, r4, #1
  402bf0:	f1d5 0e20 	rsbs	lr, r5, #32
  402bf4:	db0d      	blt.n	402c12 <__adddf3+0xb2>
  402bf6:	fa02 fc0e 	lsl.w	ip, r2, lr
  402bfa:	fa22 f205 	lsr.w	r2, r2, r5
  402bfe:	1880      	adds	r0, r0, r2
  402c00:	f141 0100 	adc.w	r1, r1, #0
  402c04:	fa03 f20e 	lsl.w	r2, r3, lr
  402c08:	1880      	adds	r0, r0, r2
  402c0a:	fa43 f305 	asr.w	r3, r3, r5
  402c0e:	4159      	adcs	r1, r3
  402c10:	e00e      	b.n	402c30 <__adddf3+0xd0>
  402c12:	f1a5 0520 	sub.w	r5, r5, #32
  402c16:	f10e 0e20 	add.w	lr, lr, #32
  402c1a:	2a01      	cmp	r2, #1
  402c1c:	fa03 fc0e 	lsl.w	ip, r3, lr
  402c20:	bf28      	it	cs
  402c22:	f04c 0c02 	orrcs.w	ip, ip, #2
  402c26:	fa43 f305 	asr.w	r3, r3, r5
  402c2a:	18c0      	adds	r0, r0, r3
  402c2c:	eb51 71e3 	adcs.w	r1, r1, r3, asr #31
  402c30:	f001 4500 	and.w	r5, r1, #2147483648	; 0x80000000
  402c34:	d507      	bpl.n	402c46 <__adddf3+0xe6>
  402c36:	f04f 0e00 	mov.w	lr, #0
  402c3a:	f1dc 0c00 	rsbs	ip, ip, #0
  402c3e:	eb7e 0000 	sbcs.w	r0, lr, r0
  402c42:	eb6e 0101 	sbc.w	r1, lr, r1
  402c46:	f5b1 1f80 	cmp.w	r1, #1048576	; 0x100000
  402c4a:	d31b      	bcc.n	402c84 <__adddf3+0x124>
  402c4c:	f5b1 1f00 	cmp.w	r1, #2097152	; 0x200000
  402c50:	d30c      	bcc.n	402c6c <__adddf3+0x10c>
  402c52:	0849      	lsrs	r1, r1, #1
  402c54:	ea5f 0030 	movs.w	r0, r0, rrx
  402c58:	ea4f 0c3c 	mov.w	ip, ip, rrx
  402c5c:	f104 0401 	add.w	r4, r4, #1
  402c60:	ea4f 5244 	mov.w	r2, r4, lsl #21
  402c64:	f512 0f80 	cmn.w	r2, #4194304	; 0x400000
  402c68:	f080 809a 	bcs.w	402da0 <__adddf3+0x240>
  402c6c:	f1bc 4f00 	cmp.w	ip, #2147483648	; 0x80000000
  402c70:	bf08      	it	eq
  402c72:	ea5f 0c50 	movseq.w	ip, r0, lsr #1
  402c76:	f150 0000 	adcs.w	r0, r0, #0
  402c7a:	eb41 5104 	adc.w	r1, r1, r4, lsl #20
  402c7e:	ea41 0105 	orr.w	r1, r1, r5
  402c82:	bd30      	pop	{r4, r5, pc}
  402c84:	ea5f 0c4c 	movs.w	ip, ip, lsl #1
  402c88:	4140      	adcs	r0, r0
  402c8a:	eb41 0101 	adc.w	r1, r1, r1
  402c8e:	f411 1f80 	tst.w	r1, #1048576	; 0x100000
  402c92:	f1a4 0401 	sub.w	r4, r4, #1
  402c96:	d1e9      	bne.n	402c6c <__adddf3+0x10c>
  402c98:	f091 0f00 	teq	r1, #0
  402c9c:	bf04      	itt	eq
  402c9e:	4601      	moveq	r1, r0
  402ca0:	2000      	moveq	r0, #0
  402ca2:	fab1 f381 	clz	r3, r1
  402ca6:	bf08      	it	eq
  402ca8:	3320      	addeq	r3, #32
  402caa:	f1a3 030b 	sub.w	r3, r3, #11
  402cae:	f1b3 0220 	subs.w	r2, r3, #32
  402cb2:	da0c      	bge.n	402cce <__adddf3+0x16e>
  402cb4:	320c      	adds	r2, #12
  402cb6:	dd08      	ble.n	402cca <__adddf3+0x16a>
  402cb8:	f102 0c14 	add.w	ip, r2, #20
  402cbc:	f1c2 020c 	rsb	r2, r2, #12
  402cc0:	fa01 f00c 	lsl.w	r0, r1, ip
  402cc4:	fa21 f102 	lsr.w	r1, r1, r2
  402cc8:	e00c      	b.n	402ce4 <__adddf3+0x184>
  402cca:	f102 0214 	add.w	r2, r2, #20
  402cce:	bfd8      	it	le
  402cd0:	f1c2 0c20 	rsble	ip, r2, #32
  402cd4:	fa01 f102 	lsl.w	r1, r1, r2
  402cd8:	fa20 fc0c 	lsr.w	ip, r0, ip
  402cdc:	bfdc      	itt	le
  402cde:	ea41 010c 	orrle.w	r1, r1, ip
  402ce2:	4090      	lslle	r0, r2
  402ce4:	1ae4      	subs	r4, r4, r3
  402ce6:	bfa2      	ittt	ge
  402ce8:	eb01 5104 	addge.w	r1, r1, r4, lsl #20
  402cec:	4329      	orrge	r1, r5
  402cee:	bd30      	popge	{r4, r5, pc}
  402cf0:	ea6f 0404 	mvn.w	r4, r4
  402cf4:	3c1f      	subs	r4, #31
  402cf6:	da1c      	bge.n	402d32 <__adddf3+0x1d2>
  402cf8:	340c      	adds	r4, #12
  402cfa:	dc0e      	bgt.n	402d1a <__adddf3+0x1ba>
  402cfc:	f104 0414 	add.w	r4, r4, #20
  402d00:	f1c4 0220 	rsb	r2, r4, #32
  402d04:	fa20 f004 	lsr.w	r0, r0, r4
  402d08:	fa01 f302 	lsl.w	r3, r1, r2
  402d0c:	ea40 0003 	orr.w	r0, r0, r3
  402d10:	fa21 f304 	lsr.w	r3, r1, r4
  402d14:	ea45 0103 	orr.w	r1, r5, r3
  402d18:	bd30      	pop	{r4, r5, pc}
  402d1a:	f1c4 040c 	rsb	r4, r4, #12
  402d1e:	f1c4 0220 	rsb	r2, r4, #32
  402d22:	fa20 f002 	lsr.w	r0, r0, r2
  402d26:	fa01 f304 	lsl.w	r3, r1, r4
  402d2a:	ea40 0003 	orr.w	r0, r0, r3
  402d2e:	4629      	mov	r1, r5
  402d30:	bd30      	pop	{r4, r5, pc}
  402d32:	fa21 f004 	lsr.w	r0, r1, r4
  402d36:	4629      	mov	r1, r5
  402d38:	bd30      	pop	{r4, r5, pc}
  402d3a:	f094 0f00 	teq	r4, #0
  402d3e:	f483 1380 	eor.w	r3, r3, #1048576	; 0x100000
  402d42:	bf06      	itte	eq
  402d44:	f481 1180 	eoreq.w	r1, r1, #1048576	; 0x100000
  402d48:	3401      	addeq	r4, #1
  402d4a:	3d01      	subne	r5, #1
  402d4c:	e74e      	b.n	402bec <__adddf3+0x8c>
  402d4e:	ea7f 5c64 	mvns.w	ip, r4, asr #21
  402d52:	bf18      	it	ne
  402d54:	ea7f 5c65 	mvnsne.w	ip, r5, asr #21
  402d58:	d029      	beq.n	402dae <__adddf3+0x24e>
  402d5a:	ea94 0f05 	teq	r4, r5
  402d5e:	bf08      	it	eq
  402d60:	ea90 0f02 	teqeq	r0, r2
  402d64:	d005      	beq.n	402d72 <__adddf3+0x212>
  402d66:	ea54 0c00 	orrs.w	ip, r4, r0
  402d6a:	bf04      	itt	eq
  402d6c:	4619      	moveq	r1, r3
  402d6e:	4610      	moveq	r0, r2
  402d70:	bd30      	pop	{r4, r5, pc}
  402d72:	ea91 0f03 	teq	r1, r3
  402d76:	bf1e      	ittt	ne
  402d78:	2100      	movne	r1, #0
  402d7a:	2000      	movne	r0, #0
  402d7c:	bd30      	popne	{r4, r5, pc}
  402d7e:	ea5f 5c54 	movs.w	ip, r4, lsr #21
  402d82:	d105      	bne.n	402d90 <__adddf3+0x230>
  402d84:	0040      	lsls	r0, r0, #1
  402d86:	4149      	adcs	r1, r1
  402d88:	bf28      	it	cs
  402d8a:	f041 4100 	orrcs.w	r1, r1, #2147483648	; 0x80000000
  402d8e:	bd30      	pop	{r4, r5, pc}
  402d90:	f514 0480 	adds.w	r4, r4, #4194304	; 0x400000
  402d94:	bf3c      	itt	cc
  402d96:	f501 1180 	addcc.w	r1, r1, #1048576	; 0x100000
  402d9a:	bd30      	popcc	{r4, r5, pc}
  402d9c:	f001 4500 	and.w	r5, r1, #2147483648	; 0x80000000
  402da0:	f045 41fe 	orr.w	r1, r5, #2130706432	; 0x7f000000
  402da4:	f441 0170 	orr.w	r1, r1, #15728640	; 0xf00000
  402da8:	f04f 0000 	mov.w	r0, #0
  402dac:	bd30      	pop	{r4, r5, pc}
  402dae:	ea7f 5c64 	mvns.w	ip, r4, asr #21
  402db2:	bf1a      	itte	ne
  402db4:	4619      	movne	r1, r3
  402db6:	4610      	movne	r0, r2
  402db8:	ea7f 5c65 	mvnseq.w	ip, r5, asr #21
  402dbc:	bf1c      	itt	ne
  402dbe:	460b      	movne	r3, r1
  402dc0:	4602      	movne	r2, r0
  402dc2:	ea50 3401 	orrs.w	r4, r0, r1, lsl #12
  402dc6:	bf06      	itte	eq
  402dc8:	ea52 3503 	orrseq.w	r5, r2, r3, lsl #12
  402dcc:	ea91 0f03 	teqeq	r1, r3
  402dd0:	f441 2100 	orrne.w	r1, r1, #524288	; 0x80000
  402dd4:	bd30      	pop	{r4, r5, pc}
  402dd6:	bf00      	nop

00402dd8 <__aeabi_ui2d>:
  402dd8:	f090 0f00 	teq	r0, #0
  402ddc:	bf04      	itt	eq
  402dde:	2100      	moveq	r1, #0
  402de0:	4770      	bxeq	lr
  402de2:	b530      	push	{r4, r5, lr}
  402de4:	f44f 6480 	mov.w	r4, #1024	; 0x400
  402de8:	f104 0432 	add.w	r4, r4, #50	; 0x32
  402dec:	f04f 0500 	mov.w	r5, #0
  402df0:	f04f 0100 	mov.w	r1, #0
  402df4:	e750      	b.n	402c98 <__adddf3+0x138>
  402df6:	bf00      	nop

00402df8 <__aeabi_i2d>:
  402df8:	f090 0f00 	teq	r0, #0
  402dfc:	bf04      	itt	eq
  402dfe:	2100      	moveq	r1, #0
  402e00:	4770      	bxeq	lr
  402e02:	b530      	push	{r4, r5, lr}
  402e04:	f44f 6480 	mov.w	r4, #1024	; 0x400
  402e08:	f104 0432 	add.w	r4, r4, #50	; 0x32
  402e0c:	f010 4500 	ands.w	r5, r0, #2147483648	; 0x80000000
  402e10:	bf48      	it	mi
  402e12:	4240      	negmi	r0, r0
  402e14:	f04f 0100 	mov.w	r1, #0
  402e18:	e73e      	b.n	402c98 <__adddf3+0x138>
  402e1a:	bf00      	nop

00402e1c <__aeabi_f2d>:
  402e1c:	0042      	lsls	r2, r0, #1
  402e1e:	ea4f 01e2 	mov.w	r1, r2, asr #3
  402e22:	ea4f 0131 	mov.w	r1, r1, rrx
  402e26:	ea4f 7002 	mov.w	r0, r2, lsl #28
  402e2a:	bf1f      	itttt	ne
  402e2c:	f012 437f 	andsne.w	r3, r2, #4278190080	; 0xff000000
  402e30:	f093 4f7f 	teqne	r3, #4278190080	; 0xff000000
  402e34:	f081 5160 	eorne.w	r1, r1, #939524096	; 0x38000000
  402e38:	4770      	bxne	lr
  402e3a:	f092 0f00 	teq	r2, #0
  402e3e:	bf14      	ite	ne
  402e40:	f093 4f7f 	teqne	r3, #4278190080	; 0xff000000
  402e44:	4770      	bxeq	lr
  402e46:	b530      	push	{r4, r5, lr}
  402e48:	f44f 7460 	mov.w	r4, #896	; 0x380
  402e4c:	f001 4500 	and.w	r5, r1, #2147483648	; 0x80000000
  402e50:	f021 4100 	bic.w	r1, r1, #2147483648	; 0x80000000
  402e54:	e720      	b.n	402c98 <__adddf3+0x138>
  402e56:	bf00      	nop

00402e58 <__aeabi_ul2d>:
  402e58:	ea50 0201 	orrs.w	r2, r0, r1
  402e5c:	bf08      	it	eq
  402e5e:	4770      	bxeq	lr
  402e60:	b530      	push	{r4, r5, lr}
  402e62:	f04f 0500 	mov.w	r5, #0
  402e66:	e00a      	b.n	402e7e <__aeabi_l2d+0x16>

00402e68 <__aeabi_l2d>:
  402e68:	ea50 0201 	orrs.w	r2, r0, r1
  402e6c:	bf08      	it	eq
  402e6e:	4770      	bxeq	lr
  402e70:	b530      	push	{r4, r5, lr}
  402e72:	f011 4500 	ands.w	r5, r1, #2147483648	; 0x80000000
  402e76:	d502      	bpl.n	402e7e <__aeabi_l2d+0x16>
  402e78:	4240      	negs	r0, r0
  402e7a:	eb61 0141 	sbc.w	r1, r1, r1, lsl #1
  402e7e:	f44f 6480 	mov.w	r4, #1024	; 0x400
  402e82:	f104 0432 	add.w	r4, r4, #50	; 0x32
  402e86:	ea5f 5c91 	movs.w	ip, r1, lsr #22
  402e8a:	f43f aedc 	beq.w	402c46 <__adddf3+0xe6>
  402e8e:	f04f 0203 	mov.w	r2, #3
  402e92:	ea5f 0cdc 	movs.w	ip, ip, lsr #3
  402e96:	bf18      	it	ne
  402e98:	3203      	addne	r2, #3
  402e9a:	ea5f 0cdc 	movs.w	ip, ip, lsr #3
  402e9e:	bf18      	it	ne
  402ea0:	3203      	addne	r2, #3
  402ea2:	eb02 02dc 	add.w	r2, r2, ip, lsr #3
  402ea6:	f1c2 0320 	rsb	r3, r2, #32
  402eaa:	fa00 fc03 	lsl.w	ip, r0, r3
  402eae:	fa20 f002 	lsr.w	r0, r0, r2
  402eb2:	fa01 fe03 	lsl.w	lr, r1, r3
  402eb6:	ea40 000e 	orr.w	r0, r0, lr
  402eba:	fa21 f102 	lsr.w	r1, r1, r2
  402ebe:	4414      	add	r4, r2
  402ec0:	e6c1      	b.n	402c46 <__adddf3+0xe6>
  402ec2:	bf00      	nop

00402ec4 <__aeabi_dmul>:
  402ec4:	b570      	push	{r4, r5, r6, lr}
  402ec6:	f04f 0cff 	mov.w	ip, #255	; 0xff
  402eca:	f44c 6ce0 	orr.w	ip, ip, #1792	; 0x700
  402ece:	ea1c 5411 	ands.w	r4, ip, r1, lsr #20
  402ed2:	bf1d      	ittte	ne
  402ed4:	ea1c 5513 	andsne.w	r5, ip, r3, lsr #20
  402ed8:	ea94 0f0c 	teqne	r4, ip
  402edc:	ea95 0f0c 	teqne	r5, ip
  402ee0:	f000 f8de 	bleq	4030a0 <__aeabi_dmul+0x1dc>
  402ee4:	442c      	add	r4, r5
  402ee6:	ea81 0603 	eor.w	r6, r1, r3
  402eea:	ea21 514c 	bic.w	r1, r1, ip, lsl #21
  402eee:	ea23 534c 	bic.w	r3, r3, ip, lsl #21
  402ef2:	ea50 3501 	orrs.w	r5, r0, r1, lsl #12
  402ef6:	bf18      	it	ne
  402ef8:	ea52 3503 	orrsne.w	r5, r2, r3, lsl #12
  402efc:	f441 1180 	orr.w	r1, r1, #1048576	; 0x100000
  402f00:	f443 1380 	orr.w	r3, r3, #1048576	; 0x100000
  402f04:	d038      	beq.n	402f78 <__aeabi_dmul+0xb4>
  402f06:	fba0 ce02 	umull	ip, lr, r0, r2
  402f0a:	f04f 0500 	mov.w	r5, #0
  402f0e:	fbe1 e502 	umlal	lr, r5, r1, r2
  402f12:	f006 4200 	and.w	r2, r6, #2147483648	; 0x80000000
  402f16:	fbe0 e503 	umlal	lr, r5, r0, r3
  402f1a:	f04f 0600 	mov.w	r6, #0
  402f1e:	fbe1 5603 	umlal	r5, r6, r1, r3
  402f22:	f09c 0f00 	teq	ip, #0
  402f26:	bf18      	it	ne
  402f28:	f04e 0e01 	orrne.w	lr, lr, #1
  402f2c:	f1a4 04ff 	sub.w	r4, r4, #255	; 0xff
  402f30:	f5b6 7f00 	cmp.w	r6, #512	; 0x200
  402f34:	f564 7440 	sbc.w	r4, r4, #768	; 0x300
  402f38:	d204      	bcs.n	402f44 <__aeabi_dmul+0x80>
  402f3a:	ea5f 0e4e 	movs.w	lr, lr, lsl #1
  402f3e:	416d      	adcs	r5, r5
  402f40:	eb46 0606 	adc.w	r6, r6, r6
  402f44:	ea42 21c6 	orr.w	r1, r2, r6, lsl #11
  402f48:	ea41 5155 	orr.w	r1, r1, r5, lsr #21
  402f4c:	ea4f 20c5 	mov.w	r0, r5, lsl #11
  402f50:	ea40 505e 	orr.w	r0, r0, lr, lsr #21
  402f54:	ea4f 2ece 	mov.w	lr, lr, lsl #11
  402f58:	f1b4 0cfd 	subs.w	ip, r4, #253	; 0xfd
  402f5c:	bf88      	it	hi
  402f5e:	f5bc 6fe0 	cmphi.w	ip, #1792	; 0x700
  402f62:	d81e      	bhi.n	402fa2 <__aeabi_dmul+0xde>
  402f64:	f1be 4f00 	cmp.w	lr, #2147483648	; 0x80000000
  402f68:	bf08      	it	eq
  402f6a:	ea5f 0e50 	movseq.w	lr, r0, lsr #1
  402f6e:	f150 0000 	adcs.w	r0, r0, #0
  402f72:	eb41 5104 	adc.w	r1, r1, r4, lsl #20
  402f76:	bd70      	pop	{r4, r5, r6, pc}
  402f78:	f006 4600 	and.w	r6, r6, #2147483648	; 0x80000000
  402f7c:	ea46 0101 	orr.w	r1, r6, r1
  402f80:	ea40 0002 	orr.w	r0, r0, r2
  402f84:	ea81 0103 	eor.w	r1, r1, r3
  402f88:	ebb4 045c 	subs.w	r4, r4, ip, lsr #1
  402f8c:	bfc2      	ittt	gt
  402f8e:	ebd4 050c 	rsbsgt	r5, r4, ip
  402f92:	ea41 5104 	orrgt.w	r1, r1, r4, lsl #20
  402f96:	bd70      	popgt	{r4, r5, r6, pc}
  402f98:	f441 1180 	orr.w	r1, r1, #1048576	; 0x100000
  402f9c:	f04f 0e00 	mov.w	lr, #0
  402fa0:	3c01      	subs	r4, #1
  402fa2:	f300 80ab 	bgt.w	4030fc <__aeabi_dmul+0x238>
  402fa6:	f114 0f36 	cmn.w	r4, #54	; 0x36
  402faa:	bfde      	ittt	le
  402fac:	2000      	movle	r0, #0
  402fae:	f001 4100 	andle.w	r1, r1, #2147483648	; 0x80000000
  402fb2:	bd70      	pople	{r4, r5, r6, pc}
  402fb4:	f1c4 0400 	rsb	r4, r4, #0
  402fb8:	3c20      	subs	r4, #32
  402fba:	da35      	bge.n	403028 <__aeabi_dmul+0x164>
  402fbc:	340c      	adds	r4, #12
  402fbe:	dc1b      	bgt.n	402ff8 <__aeabi_dmul+0x134>
  402fc0:	f104 0414 	add.w	r4, r4, #20
  402fc4:	f1c4 0520 	rsb	r5, r4, #32
  402fc8:	fa00 f305 	lsl.w	r3, r0, r5
  402fcc:	fa20 f004 	lsr.w	r0, r0, r4
  402fd0:	fa01 f205 	lsl.w	r2, r1, r5
  402fd4:	ea40 0002 	orr.w	r0, r0, r2
  402fd8:	f001 4200 	and.w	r2, r1, #2147483648	; 0x80000000
  402fdc:	f021 4100 	bic.w	r1, r1, #2147483648	; 0x80000000
  402fe0:	eb10 70d3 	adds.w	r0, r0, r3, lsr #31
  402fe4:	fa21 f604 	lsr.w	r6, r1, r4
  402fe8:	eb42 0106 	adc.w	r1, r2, r6
  402fec:	ea5e 0e43 	orrs.w	lr, lr, r3, lsl #1
  402ff0:	bf08      	it	eq
  402ff2:	ea20 70d3 	biceq.w	r0, r0, r3, lsr #31
  402ff6:	bd70      	pop	{r4, r5, r6, pc}
  402ff8:	f1c4 040c 	rsb	r4, r4, #12
  402ffc:	f1c4 0520 	rsb	r5, r4, #32
  403000:	fa00 f304 	lsl.w	r3, r0, r4
  403004:	fa20 f005 	lsr.w	r0, r0, r5
  403008:	fa01 f204 	lsl.w	r2, r1, r4
  40300c:	ea40 0002 	orr.w	r0, r0, r2
  403010:	f001 4100 	and.w	r1, r1, #2147483648	; 0x80000000
  403014:	eb10 70d3 	adds.w	r0, r0, r3, lsr #31
  403018:	f141 0100 	adc.w	r1, r1, #0
  40301c:	ea5e 0e43 	orrs.w	lr, lr, r3, lsl #1
  403020:	bf08      	it	eq
  403022:	ea20 70d3 	biceq.w	r0, r0, r3, lsr #31
  403026:	bd70      	pop	{r4, r5, r6, pc}
  403028:	f1c4 0520 	rsb	r5, r4, #32
  40302c:	fa00 f205 	lsl.w	r2, r0, r5
  403030:	ea4e 0e02 	orr.w	lr, lr, r2
  403034:	fa20 f304 	lsr.w	r3, r0, r4
  403038:	fa01 f205 	lsl.w	r2, r1, r5
  40303c:	ea43 0302 	orr.w	r3, r3, r2
  403040:	fa21 f004 	lsr.w	r0, r1, r4
  403044:	f001 4100 	and.w	r1, r1, #2147483648	; 0x80000000
  403048:	fa21 f204 	lsr.w	r2, r1, r4
  40304c:	ea20 0002 	bic.w	r0, r0, r2
  403050:	eb00 70d3 	add.w	r0, r0, r3, lsr #31
  403054:	ea5e 0e43 	orrs.w	lr, lr, r3, lsl #1
  403058:	bf08      	it	eq
  40305a:	ea20 70d3 	biceq.w	r0, r0, r3, lsr #31
  40305e:	bd70      	pop	{r4, r5, r6, pc}
  403060:	f094 0f00 	teq	r4, #0
  403064:	d10f      	bne.n	403086 <__aeabi_dmul+0x1c2>
  403066:	f001 4600 	and.w	r6, r1, #2147483648	; 0x80000000
  40306a:	0040      	lsls	r0, r0, #1
  40306c:	eb41 0101 	adc.w	r1, r1, r1
  403070:	f411 1f80 	tst.w	r1, #1048576	; 0x100000
  403074:	bf08      	it	eq
  403076:	3c01      	subeq	r4, #1
  403078:	d0f7      	beq.n	40306a <__aeabi_dmul+0x1a6>
  40307a:	ea41 0106 	orr.w	r1, r1, r6
  40307e:	f095 0f00 	teq	r5, #0
  403082:	bf18      	it	ne
  403084:	4770      	bxne	lr
  403086:	f003 4600 	and.w	r6, r3, #2147483648	; 0x80000000
  40308a:	0052      	lsls	r2, r2, #1
  40308c:	eb43 0303 	adc.w	r3, r3, r3
  403090:	f413 1f80 	tst.w	r3, #1048576	; 0x100000
  403094:	bf08      	it	eq
  403096:	3d01      	subeq	r5, #1
  403098:	d0f7      	beq.n	40308a <__aeabi_dmul+0x1c6>
  40309a:	ea43 0306 	orr.w	r3, r3, r6
  40309e:	4770      	bx	lr
  4030a0:	ea94 0f0c 	teq	r4, ip
  4030a4:	ea0c 5513 	and.w	r5, ip, r3, lsr #20
  4030a8:	bf18      	it	ne
  4030aa:	ea95 0f0c 	teqne	r5, ip
  4030ae:	d00c      	beq.n	4030ca <__aeabi_dmul+0x206>
  4030b0:	ea50 0641 	orrs.w	r6, r0, r1, lsl #1
  4030b4:	bf18      	it	ne
  4030b6:	ea52 0643 	orrsne.w	r6, r2, r3, lsl #1
  4030ba:	d1d1      	bne.n	403060 <__aeabi_dmul+0x19c>
  4030bc:	ea81 0103 	eor.w	r1, r1, r3
  4030c0:	f001 4100 	and.w	r1, r1, #2147483648	; 0x80000000
  4030c4:	f04f 0000 	mov.w	r0, #0
  4030c8:	bd70      	pop	{r4, r5, r6, pc}
  4030ca:	ea50 0641 	orrs.w	r6, r0, r1, lsl #1
  4030ce:	bf06      	itte	eq
  4030d0:	4610      	moveq	r0, r2
  4030d2:	4619      	moveq	r1, r3
  4030d4:	ea52 0643 	orrsne.w	r6, r2, r3, lsl #1
  4030d8:	d019      	beq.n	40310e <__aeabi_dmul+0x24a>
  4030da:	ea94 0f0c 	teq	r4, ip
  4030de:	d102      	bne.n	4030e6 <__aeabi_dmul+0x222>
  4030e0:	ea50 3601 	orrs.w	r6, r0, r1, lsl #12
  4030e4:	d113      	bne.n	40310e <__aeabi_dmul+0x24a>
  4030e6:	ea95 0f0c 	teq	r5, ip
  4030ea:	d105      	bne.n	4030f8 <__aeabi_dmul+0x234>
  4030ec:	ea52 3603 	orrs.w	r6, r2, r3, lsl #12
  4030f0:	bf1c      	itt	ne
  4030f2:	4610      	movne	r0, r2
  4030f4:	4619      	movne	r1, r3
  4030f6:	d10a      	bne.n	40310e <__aeabi_dmul+0x24a>
  4030f8:	ea81 0103 	eor.w	r1, r1, r3
  4030fc:	f001 4100 	and.w	r1, r1, #2147483648	; 0x80000000
  403100:	f041 41fe 	orr.w	r1, r1, #2130706432	; 0x7f000000
  403104:	f441 0170 	orr.w	r1, r1, #15728640	; 0xf00000
  403108:	f04f 0000 	mov.w	r0, #0
  40310c:	bd70      	pop	{r4, r5, r6, pc}
  40310e:	f041 41fe 	orr.w	r1, r1, #2130706432	; 0x7f000000
  403112:	f441 0178 	orr.w	r1, r1, #16252928	; 0xf80000
  403116:	bd70      	pop	{r4, r5, r6, pc}

00403118 <__aeabi_ddiv>:
  403118:	b570      	push	{r4, r5, r6, lr}
  40311a:	f04f 0cff 	mov.w	ip, #255	; 0xff
  40311e:	f44c 6ce0 	orr.w	ip, ip, #1792	; 0x700
  403122:	ea1c 5411 	ands.w	r4, ip, r1, lsr #20
  403126:	bf1d      	ittte	ne
  403128:	ea1c 5513 	andsne.w	r5, ip, r3, lsr #20
  40312c:	ea94 0f0c 	teqne	r4, ip
  403130:	ea95 0f0c 	teqne	r5, ip
  403134:	f000 f8a7 	bleq	403286 <__aeabi_ddiv+0x16e>
  403138:	eba4 0405 	sub.w	r4, r4, r5
  40313c:	ea81 0e03 	eor.w	lr, r1, r3
  403140:	ea52 3503 	orrs.w	r5, r2, r3, lsl #12
  403144:	ea4f 3101 	mov.w	r1, r1, lsl #12
  403148:	f000 8088 	beq.w	40325c <__aeabi_ddiv+0x144>
  40314c:	ea4f 3303 	mov.w	r3, r3, lsl #12
  403150:	f04f 5580 	mov.w	r5, #268435456	; 0x10000000
  403154:	ea45 1313 	orr.w	r3, r5, r3, lsr #4
  403158:	ea43 6312 	orr.w	r3, r3, r2, lsr #24
  40315c:	ea4f 2202 	mov.w	r2, r2, lsl #8
  403160:	ea45 1511 	orr.w	r5, r5, r1, lsr #4
  403164:	ea45 6510 	orr.w	r5, r5, r0, lsr #24
  403168:	ea4f 2600 	mov.w	r6, r0, lsl #8
  40316c:	f00e 4100 	and.w	r1, lr, #2147483648	; 0x80000000
  403170:	429d      	cmp	r5, r3
  403172:	bf08      	it	eq
  403174:	4296      	cmpeq	r6, r2
  403176:	f144 04fd 	adc.w	r4, r4, #253	; 0xfd
  40317a:	f504 7440 	add.w	r4, r4, #768	; 0x300
  40317e:	d202      	bcs.n	403186 <__aeabi_ddiv+0x6e>
  403180:	085b      	lsrs	r3, r3, #1
  403182:	ea4f 0232 	mov.w	r2, r2, rrx
  403186:	1ab6      	subs	r6, r6, r2
  403188:	eb65 0503 	sbc.w	r5, r5, r3
  40318c:	085b      	lsrs	r3, r3, #1
  40318e:	ea4f 0232 	mov.w	r2, r2, rrx
  403192:	f44f 1080 	mov.w	r0, #1048576	; 0x100000
  403196:	f44f 2c00 	mov.w	ip, #524288	; 0x80000
  40319a:	ebb6 0e02 	subs.w	lr, r6, r2
  40319e:	eb75 0e03 	sbcs.w	lr, r5, r3
  4031a2:	bf22      	ittt	cs
  4031a4:	1ab6      	subcs	r6, r6, r2
  4031a6:	4675      	movcs	r5, lr
  4031a8:	ea40 000c 	orrcs.w	r0, r0, ip
  4031ac:	085b      	lsrs	r3, r3, #1
  4031ae:	ea4f 0232 	mov.w	r2, r2, rrx
  4031b2:	ebb6 0e02 	subs.w	lr, r6, r2
  4031b6:	eb75 0e03 	sbcs.w	lr, r5, r3
  4031ba:	bf22      	ittt	cs
  4031bc:	1ab6      	subcs	r6, r6, r2
  4031be:	4675      	movcs	r5, lr
  4031c0:	ea40 005c 	orrcs.w	r0, r0, ip, lsr #1
  4031c4:	085b      	lsrs	r3, r3, #1
  4031c6:	ea4f 0232 	mov.w	r2, r2, rrx
  4031ca:	ebb6 0e02 	subs.w	lr, r6, r2
  4031ce:	eb75 0e03 	sbcs.w	lr, r5, r3
  4031d2:	bf22      	ittt	cs
  4031d4:	1ab6      	subcs	r6, r6, r2
  4031d6:	4675      	movcs	r5, lr
  4031d8:	ea40 009c 	orrcs.w	r0, r0, ip, lsr #2
  4031dc:	085b      	lsrs	r3, r3, #1
  4031de:	ea4f 0232 	mov.w	r2, r2, rrx
  4031e2:	ebb6 0e02 	subs.w	lr, r6, r2
  4031e6:	eb75 0e03 	sbcs.w	lr, r5, r3
  4031ea:	bf22      	ittt	cs
  4031ec:	1ab6      	subcs	r6, r6, r2
  4031ee:	4675      	movcs	r5, lr
  4031f0:	ea40 00dc 	orrcs.w	r0, r0, ip, lsr #3
  4031f4:	ea55 0e06 	orrs.w	lr, r5, r6
  4031f8:	d018      	beq.n	40322c <__aeabi_ddiv+0x114>
  4031fa:	ea4f 1505 	mov.w	r5, r5, lsl #4
  4031fe:	ea45 7516 	orr.w	r5, r5, r6, lsr #28
  403202:	ea4f 1606 	mov.w	r6, r6, lsl #4
  403206:	ea4f 03c3 	mov.w	r3, r3, lsl #3
  40320a:	ea43 7352 	orr.w	r3, r3, r2, lsr #29
  40320e:	ea4f 02c2 	mov.w	r2, r2, lsl #3
  403212:	ea5f 1c1c 	movs.w	ip, ip, lsr #4
  403216:	d1c0      	bne.n	40319a <__aeabi_ddiv+0x82>
  403218:	f411 1f80 	tst.w	r1, #1048576	; 0x100000
  40321c:	d10b      	bne.n	403236 <__aeabi_ddiv+0x11e>
  40321e:	ea41 0100 	orr.w	r1, r1, r0
  403222:	f04f 0000 	mov.w	r0, #0
  403226:	f04f 4c00 	mov.w	ip, #2147483648	; 0x80000000
  40322a:	e7b6      	b.n	40319a <__aeabi_ddiv+0x82>
  40322c:	f411 1f80 	tst.w	r1, #1048576	; 0x100000
  403230:	bf04      	itt	eq
  403232:	4301      	orreq	r1, r0
  403234:	2000      	moveq	r0, #0
  403236:	f1b4 0cfd 	subs.w	ip, r4, #253	; 0xfd
  40323a:	bf88      	it	hi
  40323c:	f5bc 6fe0 	cmphi.w	ip, #1792	; 0x700
  403240:	f63f aeaf 	bhi.w	402fa2 <__aeabi_dmul+0xde>
  403244:	ebb5 0c03 	subs.w	ip, r5, r3
  403248:	bf04      	itt	eq
  40324a:	ebb6 0c02 	subseq.w	ip, r6, r2
  40324e:	ea5f 0c50 	movseq.w	ip, r0, lsr #1
  403252:	f150 0000 	adcs.w	r0, r0, #0
  403256:	eb41 5104 	adc.w	r1, r1, r4, lsl #20
  40325a:	bd70      	pop	{r4, r5, r6, pc}
  40325c:	f00e 4e00 	and.w	lr, lr, #2147483648	; 0x80000000
  403260:	ea4e 3111 	orr.w	r1, lr, r1, lsr #12
  403264:	eb14 045c 	adds.w	r4, r4, ip, lsr #1
  403268:	bfc2      	ittt	gt
  40326a:	ebd4 050c 	rsbsgt	r5, r4, ip
  40326e:	ea41 5104 	orrgt.w	r1, r1, r4, lsl #20
  403272:	bd70      	popgt	{r4, r5, r6, pc}
  403274:	f441 1180 	orr.w	r1, r1, #1048576	; 0x100000
  403278:	f04f 0e00 	mov.w	lr, #0
  40327c:	3c01      	subs	r4, #1
  40327e:	e690      	b.n	402fa2 <__aeabi_dmul+0xde>
  403280:	ea45 0e06 	orr.w	lr, r5, r6
  403284:	e68d      	b.n	402fa2 <__aeabi_dmul+0xde>
  403286:	ea0c 5513 	and.w	r5, ip, r3, lsr #20
  40328a:	ea94 0f0c 	teq	r4, ip
  40328e:	bf08      	it	eq
  403290:	ea95 0f0c 	teqeq	r5, ip
  403294:	f43f af3b 	beq.w	40310e <__aeabi_dmul+0x24a>
  403298:	ea94 0f0c 	teq	r4, ip
  40329c:	d10a      	bne.n	4032b4 <__aeabi_ddiv+0x19c>
  40329e:	ea50 3401 	orrs.w	r4, r0, r1, lsl #12
  4032a2:	f47f af34 	bne.w	40310e <__aeabi_dmul+0x24a>
  4032a6:	ea95 0f0c 	teq	r5, ip
  4032aa:	f47f af25 	bne.w	4030f8 <__aeabi_dmul+0x234>
  4032ae:	4610      	mov	r0, r2
  4032b0:	4619      	mov	r1, r3
  4032b2:	e72c      	b.n	40310e <__aeabi_dmul+0x24a>
  4032b4:	ea95 0f0c 	teq	r5, ip
  4032b8:	d106      	bne.n	4032c8 <__aeabi_ddiv+0x1b0>
  4032ba:	ea52 3503 	orrs.w	r5, r2, r3, lsl #12
  4032be:	f43f aefd 	beq.w	4030bc <__aeabi_dmul+0x1f8>
  4032c2:	4610      	mov	r0, r2
  4032c4:	4619      	mov	r1, r3
  4032c6:	e722      	b.n	40310e <__aeabi_dmul+0x24a>
  4032c8:	ea50 0641 	orrs.w	r6, r0, r1, lsl #1
  4032cc:	bf18      	it	ne
  4032ce:	ea52 0643 	orrsne.w	r6, r2, r3, lsl #1
  4032d2:	f47f aec5 	bne.w	403060 <__aeabi_dmul+0x19c>
  4032d6:	ea50 0441 	orrs.w	r4, r0, r1, lsl #1
  4032da:	f47f af0d 	bne.w	4030f8 <__aeabi_dmul+0x234>
  4032de:	ea52 0543 	orrs.w	r5, r2, r3, lsl #1
  4032e2:	f47f aeeb 	bne.w	4030bc <__aeabi_dmul+0x1f8>
  4032e6:	e712      	b.n	40310e <__aeabi_dmul+0x24a>

004032e8 <__gedf2>:
  4032e8:	f04f 3cff 	mov.w	ip, #4294967295
  4032ec:	e006      	b.n	4032fc <__cmpdf2+0x4>
  4032ee:	bf00      	nop

004032f0 <__ledf2>:
  4032f0:	f04f 0c01 	mov.w	ip, #1
  4032f4:	e002      	b.n	4032fc <__cmpdf2+0x4>
  4032f6:	bf00      	nop

004032f8 <__cmpdf2>:
  4032f8:	f04f 0c01 	mov.w	ip, #1
  4032fc:	f84d cd04 	str.w	ip, [sp, #-4]!
  403300:	ea4f 0c41 	mov.w	ip, r1, lsl #1
  403304:	ea7f 5c6c 	mvns.w	ip, ip, asr #21
  403308:	ea4f 0c43 	mov.w	ip, r3, lsl #1
  40330c:	bf18      	it	ne
  40330e:	ea7f 5c6c 	mvnsne.w	ip, ip, asr #21
  403312:	d01b      	beq.n	40334c <__cmpdf2+0x54>
  403314:	b001      	add	sp, #4
  403316:	ea50 0c41 	orrs.w	ip, r0, r1, lsl #1
  40331a:	bf0c      	ite	eq
  40331c:	ea52 0c43 	orrseq.w	ip, r2, r3, lsl #1
  403320:	ea91 0f03 	teqne	r1, r3
  403324:	bf02      	ittt	eq
  403326:	ea90 0f02 	teqeq	r0, r2
  40332a:	2000      	moveq	r0, #0
  40332c:	4770      	bxeq	lr
  40332e:	f110 0f00 	cmn.w	r0, #0
  403332:	ea91 0f03 	teq	r1, r3
  403336:	bf58      	it	pl
  403338:	4299      	cmppl	r1, r3
  40333a:	bf08      	it	eq
  40333c:	4290      	cmpeq	r0, r2
  40333e:	bf2c      	ite	cs
  403340:	17d8      	asrcs	r0, r3, #31
  403342:	ea6f 70e3 	mvncc.w	r0, r3, asr #31
  403346:	f040 0001 	orr.w	r0, r0, #1
  40334a:	4770      	bx	lr
  40334c:	ea4f 0c41 	mov.w	ip, r1, lsl #1
  403350:	ea7f 5c6c 	mvns.w	ip, ip, asr #21
  403354:	d102      	bne.n	40335c <__cmpdf2+0x64>
  403356:	ea50 3c01 	orrs.w	ip, r0, r1, lsl #12
  40335a:	d107      	bne.n	40336c <__cmpdf2+0x74>
  40335c:	ea4f 0c43 	mov.w	ip, r3, lsl #1
  403360:	ea7f 5c6c 	mvns.w	ip, ip, asr #21
  403364:	d1d6      	bne.n	403314 <__cmpdf2+0x1c>
  403366:	ea52 3c03 	orrs.w	ip, r2, r3, lsl #12
  40336a:	d0d3      	beq.n	403314 <__cmpdf2+0x1c>
  40336c:	f85d 0b04 	ldr.w	r0, [sp], #4
  403370:	4770      	bx	lr
  403372:	bf00      	nop

00403374 <__aeabi_cdrcmple>:
  403374:	4684      	mov	ip, r0
  403376:	4610      	mov	r0, r2
  403378:	4662      	mov	r2, ip
  40337a:	468c      	mov	ip, r1
  40337c:	4619      	mov	r1, r3
  40337e:	4663      	mov	r3, ip
  403380:	e000      	b.n	403384 <__aeabi_cdcmpeq>
  403382:	bf00      	nop

00403384 <__aeabi_cdcmpeq>:
  403384:	b501      	push	{r0, lr}
  403386:	f7ff ffb7 	bl	4032f8 <__cmpdf2>
  40338a:	2800      	cmp	r0, #0
  40338c:	bf48      	it	mi
  40338e:	f110 0f00 	cmnmi.w	r0, #0
  403392:	bd01      	pop	{r0, pc}

00403394 <__aeabi_dcmpeq>:
  403394:	f84d ed08 	str.w	lr, [sp, #-8]!
  403398:	f7ff fff4 	bl	403384 <__aeabi_cdcmpeq>
  40339c:	bf0c      	ite	eq
  40339e:	2001      	moveq	r0, #1
  4033a0:	2000      	movne	r0, #0
  4033a2:	f85d fb08 	ldr.w	pc, [sp], #8
  4033a6:	bf00      	nop

004033a8 <__aeabi_dcmplt>:
  4033a8:	f84d ed08 	str.w	lr, [sp, #-8]!
  4033ac:	f7ff ffea 	bl	403384 <__aeabi_cdcmpeq>
  4033b0:	bf34      	ite	cc
  4033b2:	2001      	movcc	r0, #1
  4033b4:	2000      	movcs	r0, #0
  4033b6:	f85d fb08 	ldr.w	pc, [sp], #8
  4033ba:	bf00      	nop

004033bc <__aeabi_dcmple>:
  4033bc:	f84d ed08 	str.w	lr, [sp, #-8]!
  4033c0:	f7ff ffe0 	bl	403384 <__aeabi_cdcmpeq>
  4033c4:	bf94      	ite	ls
  4033c6:	2001      	movls	r0, #1
  4033c8:	2000      	movhi	r0, #0
  4033ca:	f85d fb08 	ldr.w	pc, [sp], #8
  4033ce:	bf00      	nop

004033d0 <__aeabi_dcmpge>:
  4033d0:	f84d ed08 	str.w	lr, [sp, #-8]!
  4033d4:	f7ff ffce 	bl	403374 <__aeabi_cdrcmple>
  4033d8:	bf94      	ite	ls
  4033da:	2001      	movls	r0, #1
  4033dc:	2000      	movhi	r0, #0
  4033de:	f85d fb08 	ldr.w	pc, [sp], #8
  4033e2:	bf00      	nop

004033e4 <__aeabi_dcmpgt>:
  4033e4:	f84d ed08 	str.w	lr, [sp, #-8]!
  4033e8:	f7ff ffc4 	bl	403374 <__aeabi_cdrcmple>
  4033ec:	bf34      	ite	cc
  4033ee:	2001      	movcc	r0, #1
  4033f0:	2000      	movcs	r0, #0
  4033f2:	f85d fb08 	ldr.w	pc, [sp], #8
  4033f6:	bf00      	nop

004033f8 <__aeabi_d2iz>:
  4033f8:	ea4f 0241 	mov.w	r2, r1, lsl #1
  4033fc:	f512 1200 	adds.w	r2, r2, #2097152	; 0x200000
  403400:	d215      	bcs.n	40342e <__aeabi_d2iz+0x36>
  403402:	d511      	bpl.n	403428 <__aeabi_d2iz+0x30>
  403404:	f46f 7378 	mvn.w	r3, #992	; 0x3e0
  403408:	ebb3 5262 	subs.w	r2, r3, r2, asr #21
  40340c:	d912      	bls.n	403434 <__aeabi_d2iz+0x3c>
  40340e:	ea4f 23c1 	mov.w	r3, r1, lsl #11
  403412:	f043 4300 	orr.w	r3, r3, #2147483648	; 0x80000000
  403416:	ea43 5350 	orr.w	r3, r3, r0, lsr #21
  40341a:	f011 4f00 	tst.w	r1, #2147483648	; 0x80000000
  40341e:	fa23 f002 	lsr.w	r0, r3, r2
  403422:	bf18      	it	ne
  403424:	4240      	negne	r0, r0
  403426:	4770      	bx	lr
  403428:	f04f 0000 	mov.w	r0, #0
  40342c:	4770      	bx	lr
  40342e:	ea50 3001 	orrs.w	r0, r0, r1, lsl #12
  403432:	d105      	bne.n	403440 <__aeabi_d2iz+0x48>
  403434:	f011 4000 	ands.w	r0, r1, #2147483648	; 0x80000000
  403438:	bf08      	it	eq
  40343a:	f06f 4000 	mvneq.w	r0, #2147483648	; 0x80000000
  40343e:	4770      	bx	lr
  403440:	f04f 0000 	mov.w	r0, #0
  403444:	4770      	bx	lr
  403446:	bf00      	nop

00403448 <__libc_init_array>:
  403448:	b570      	push	{r4, r5, r6, lr}
  40344a:	4e0f      	ldr	r6, [pc, #60]	; (403488 <__libc_init_array+0x40>)
  40344c:	4d0f      	ldr	r5, [pc, #60]	; (40348c <__libc_init_array+0x44>)
  40344e:	1b76      	subs	r6, r6, r5
  403450:	10b6      	asrs	r6, r6, #2
  403452:	bf18      	it	ne
  403454:	2400      	movne	r4, #0
  403456:	d005      	beq.n	403464 <__libc_init_array+0x1c>
  403458:	3401      	adds	r4, #1
  40345a:	f855 3b04 	ldr.w	r3, [r5], #4
  40345e:	4798      	blx	r3
  403460:	42a6      	cmp	r6, r4
  403462:	d1f9      	bne.n	403458 <__libc_init_array+0x10>
  403464:	4e0a      	ldr	r6, [pc, #40]	; (403490 <__libc_init_array+0x48>)
  403466:	4d0b      	ldr	r5, [pc, #44]	; (403494 <__libc_init_array+0x4c>)
  403468:	1b76      	subs	r6, r6, r5
  40346a:	f004 fe89 	bl	408180 <_init>
  40346e:	10b6      	asrs	r6, r6, #2
  403470:	bf18      	it	ne
  403472:	2400      	movne	r4, #0
  403474:	d006      	beq.n	403484 <__libc_init_array+0x3c>
  403476:	3401      	adds	r4, #1
  403478:	f855 3b04 	ldr.w	r3, [r5], #4
  40347c:	4798      	blx	r3
  40347e:	42a6      	cmp	r6, r4
  403480:	d1f9      	bne.n	403476 <__libc_init_array+0x2e>
  403482:	bd70      	pop	{r4, r5, r6, pc}
  403484:	bd70      	pop	{r4, r5, r6, pc}
  403486:	bf00      	nop
  403488:	0040818c 	.word	0x0040818c
  40348c:	0040818c 	.word	0x0040818c
  403490:	00408194 	.word	0x00408194
  403494:	0040818c 	.word	0x0040818c

00403498 <memset>:
  403498:	b470      	push	{r4, r5, r6}
  40349a:	0784      	lsls	r4, r0, #30
  40349c:	d046      	beq.n	40352c <memset+0x94>
  40349e:	1e54      	subs	r4, r2, #1
  4034a0:	2a00      	cmp	r2, #0
  4034a2:	d041      	beq.n	403528 <memset+0x90>
  4034a4:	b2cd      	uxtb	r5, r1
  4034a6:	4603      	mov	r3, r0
  4034a8:	e002      	b.n	4034b0 <memset+0x18>
  4034aa:	1e62      	subs	r2, r4, #1
  4034ac:	b3e4      	cbz	r4, 403528 <memset+0x90>
  4034ae:	4614      	mov	r4, r2
  4034b0:	f803 5b01 	strb.w	r5, [r3], #1
  4034b4:	079a      	lsls	r2, r3, #30
  4034b6:	d1f8      	bne.n	4034aa <memset+0x12>
  4034b8:	2c03      	cmp	r4, #3
  4034ba:	d92e      	bls.n	40351a <memset+0x82>
  4034bc:	b2cd      	uxtb	r5, r1
  4034be:	ea45 2505 	orr.w	r5, r5, r5, lsl #8
  4034c2:	2c0f      	cmp	r4, #15
  4034c4:	ea45 4505 	orr.w	r5, r5, r5, lsl #16
  4034c8:	d919      	bls.n	4034fe <memset+0x66>
  4034ca:	f103 0210 	add.w	r2, r3, #16
  4034ce:	4626      	mov	r6, r4
  4034d0:	3e10      	subs	r6, #16
  4034d2:	2e0f      	cmp	r6, #15
  4034d4:	f842 5c10 	str.w	r5, [r2, #-16]
  4034d8:	f842 5c0c 	str.w	r5, [r2, #-12]
  4034dc:	f842 5c08 	str.w	r5, [r2, #-8]
  4034e0:	f842 5c04 	str.w	r5, [r2, #-4]
  4034e4:	f102 0210 	add.w	r2, r2, #16
  4034e8:	d8f2      	bhi.n	4034d0 <memset+0x38>
  4034ea:	f1a4 0210 	sub.w	r2, r4, #16
  4034ee:	f022 020f 	bic.w	r2, r2, #15
  4034f2:	f004 040f 	and.w	r4, r4, #15
  4034f6:	3210      	adds	r2, #16
  4034f8:	2c03      	cmp	r4, #3
  4034fa:	4413      	add	r3, r2
  4034fc:	d90d      	bls.n	40351a <memset+0x82>
  4034fe:	461e      	mov	r6, r3
  403500:	4622      	mov	r2, r4
  403502:	3a04      	subs	r2, #4
  403504:	2a03      	cmp	r2, #3
  403506:	f846 5b04 	str.w	r5, [r6], #4
  40350a:	d8fa      	bhi.n	403502 <memset+0x6a>
  40350c:	1f22      	subs	r2, r4, #4
  40350e:	f022 0203 	bic.w	r2, r2, #3
  403512:	3204      	adds	r2, #4
  403514:	4413      	add	r3, r2
  403516:	f004 0403 	and.w	r4, r4, #3
  40351a:	b12c      	cbz	r4, 403528 <memset+0x90>
  40351c:	b2c9      	uxtb	r1, r1
  40351e:	441c      	add	r4, r3
  403520:	f803 1b01 	strb.w	r1, [r3], #1
  403524:	42a3      	cmp	r3, r4
  403526:	d1fb      	bne.n	403520 <memset+0x88>
  403528:	bc70      	pop	{r4, r5, r6}
  40352a:	4770      	bx	lr
  40352c:	4614      	mov	r4, r2
  40352e:	4603      	mov	r3, r0
  403530:	e7c2      	b.n	4034b8 <memset+0x20>
  403532:	bf00      	nop

00403534 <sprintf>:
  403534:	b40e      	push	{r1, r2, r3}
  403536:	b5f0      	push	{r4, r5, r6, r7, lr}
  403538:	b09c      	sub	sp, #112	; 0x70
  40353a:	ab21      	add	r3, sp, #132	; 0x84
  40353c:	490f      	ldr	r1, [pc, #60]	; (40357c <sprintf+0x48>)
  40353e:	f853 2b04 	ldr.w	r2, [r3], #4
  403542:	9301      	str	r3, [sp, #4]
  403544:	4605      	mov	r5, r0
  403546:	f06f 4400 	mvn.w	r4, #2147483648	; 0x80000000
  40354a:	6808      	ldr	r0, [r1, #0]
  40354c:	9502      	str	r5, [sp, #8]
  40354e:	f44f 7702 	mov.w	r7, #520	; 0x208
  403552:	f64f 76ff 	movw	r6, #65535	; 0xffff
  403556:	a902      	add	r1, sp, #8
  403558:	9506      	str	r5, [sp, #24]
  40355a:	f8ad 7014 	strh.w	r7, [sp, #20]
  40355e:	9404      	str	r4, [sp, #16]
  403560:	9407      	str	r4, [sp, #28]
  403562:	f8ad 6016 	strh.w	r6, [sp, #22]
  403566:	f000 f839 	bl	4035dc <_svfprintf_r>
  40356a:	9b02      	ldr	r3, [sp, #8]
  40356c:	2200      	movs	r2, #0
  40356e:	701a      	strb	r2, [r3, #0]
  403570:	b01c      	add	sp, #112	; 0x70
  403572:	e8bd 40f0 	ldmia.w	sp!, {r4, r5, r6, r7, lr}
  403576:	b003      	add	sp, #12
  403578:	4770      	bx	lr
  40357a:	bf00      	nop
  40357c:	20000438 	.word	0x20000438

00403580 <strlen>:
  403580:	f020 0103 	bic.w	r1, r0, #3
  403584:	f010 0003 	ands.w	r0, r0, #3
  403588:	f1c0 0000 	rsb	r0, r0, #0
  40358c:	f851 3b04 	ldr.w	r3, [r1], #4
  403590:	f100 0c04 	add.w	ip, r0, #4
  403594:	ea4f 0ccc 	mov.w	ip, ip, lsl #3
  403598:	f06f 0200 	mvn.w	r2, #0
  40359c:	bf1c      	itt	ne
  40359e:	fa22 f20c 	lsrne.w	r2, r2, ip
  4035a2:	4313      	orrne	r3, r2
  4035a4:	f04f 0c01 	mov.w	ip, #1
  4035a8:	ea4c 2c0c 	orr.w	ip, ip, ip, lsl #8
  4035ac:	ea4c 4c0c 	orr.w	ip, ip, ip, lsl #16
  4035b0:	eba3 020c 	sub.w	r2, r3, ip
  4035b4:	ea22 0203 	bic.w	r2, r2, r3
  4035b8:	ea12 12cc 	ands.w	r2, r2, ip, lsl #7
  4035bc:	bf04      	itt	eq
  4035be:	f851 3b04 	ldreq.w	r3, [r1], #4
  4035c2:	3004      	addeq	r0, #4
  4035c4:	d0f4      	beq.n	4035b0 <strlen+0x30>
  4035c6:	f1c2 0100 	rsb	r1, r2, #0
  4035ca:	ea02 0201 	and.w	r2, r2, r1
  4035ce:	fab2 f282 	clz	r2, r2
  4035d2:	f1c2 021f 	rsb	r2, r2, #31
  4035d6:	eb00 00d2 	add.w	r0, r0, r2, lsr #3
  4035da:	4770      	bx	lr

004035dc <_svfprintf_r>:
  4035dc:	e92d 4ff0 	stmdb	sp!, {r4, r5, r6, r7, r8, r9, sl, fp, lr}
  4035e0:	b0c1      	sub	sp, #260	; 0x104
  4035e2:	4689      	mov	r9, r1
  4035e4:	920a      	str	r2, [sp, #40]	; 0x28
  4035e6:	930e      	str	r3, [sp, #56]	; 0x38
  4035e8:	9008      	str	r0, [sp, #32]
  4035ea:	f002 fb6f 	bl	405ccc <_localeconv_r>
  4035ee:	6803      	ldr	r3, [r0, #0]
  4035f0:	9317      	str	r3, [sp, #92]	; 0x5c
  4035f2:	4618      	mov	r0, r3
  4035f4:	f7ff ffc4 	bl	403580 <strlen>
  4035f8:	f8b9 300c 	ldrh.w	r3, [r9, #12]
  4035fc:	9018      	str	r0, [sp, #96]	; 0x60
  4035fe:	061a      	lsls	r2, r3, #24
  403600:	d504      	bpl.n	40360c <_svfprintf_r+0x30>
  403602:	f8d9 3010 	ldr.w	r3, [r9, #16]
  403606:	2b00      	cmp	r3, #0
  403608:	f001 808c 	beq.w	404724 <_svfprintf_r+0x1148>
  40360c:	2300      	movs	r3, #0
  40360e:	af30      	add	r7, sp, #192	; 0xc0
  403610:	9313      	str	r3, [sp, #76]	; 0x4c
  403612:	9325      	str	r3, [sp, #148]	; 0x94
  403614:	9324      	str	r3, [sp, #144]	; 0x90
  403616:	9316      	str	r3, [sp, #88]	; 0x58
  403618:	9319      	str	r3, [sp, #100]	; 0x64
  40361a:	930b      	str	r3, [sp, #44]	; 0x2c
  40361c:	9723      	str	r7, [sp, #140]	; 0x8c
  40361e:	9314      	str	r3, [sp, #80]	; 0x50
  403620:	9315      	str	r3, [sp, #84]	; 0x54
  403622:	463c      	mov	r4, r7
  403624:	464e      	mov	r6, r9
  403626:	9d0a      	ldr	r5, [sp, #40]	; 0x28
  403628:	782b      	ldrb	r3, [r5, #0]
  40362a:	2b00      	cmp	r3, #0
  40362c:	f000 80a9 	beq.w	403782 <_svfprintf_r+0x1a6>
  403630:	2b25      	cmp	r3, #37	; 0x25
  403632:	d102      	bne.n	40363a <_svfprintf_r+0x5e>
  403634:	e0a5      	b.n	403782 <_svfprintf_r+0x1a6>
  403636:	2b25      	cmp	r3, #37	; 0x25
  403638:	d003      	beq.n	403642 <_svfprintf_r+0x66>
  40363a:	f815 3f01 	ldrb.w	r3, [r5, #1]!
  40363e:	2b00      	cmp	r3, #0
  403640:	d1f9      	bne.n	403636 <_svfprintf_r+0x5a>
  403642:	9b0a      	ldr	r3, [sp, #40]	; 0x28
  403644:	1aeb      	subs	r3, r5, r3
  403646:	b173      	cbz	r3, 403666 <_svfprintf_r+0x8a>
  403648:	9a24      	ldr	r2, [sp, #144]	; 0x90
  40364a:	9925      	ldr	r1, [sp, #148]	; 0x94
  40364c:	980a      	ldr	r0, [sp, #40]	; 0x28
  40364e:	6020      	str	r0, [r4, #0]
  403650:	3201      	adds	r2, #1
  403652:	4419      	add	r1, r3
  403654:	2a07      	cmp	r2, #7
  403656:	6063      	str	r3, [r4, #4]
  403658:	9125      	str	r1, [sp, #148]	; 0x94
  40365a:	9224      	str	r2, [sp, #144]	; 0x90
  40365c:	dc72      	bgt.n	403744 <_svfprintf_r+0x168>
  40365e:	3408      	adds	r4, #8
  403660:	9a0b      	ldr	r2, [sp, #44]	; 0x2c
  403662:	441a      	add	r2, r3
  403664:	920b      	str	r2, [sp, #44]	; 0x2c
  403666:	782b      	ldrb	r3, [r5, #0]
  403668:	2b00      	cmp	r3, #0
  40366a:	f000 87b5 	beq.w	4045d8 <_svfprintf_r+0xffc>
  40366e:	2300      	movs	r3, #0
  403670:	1c69      	adds	r1, r5, #1
  403672:	786d      	ldrb	r5, [r5, #1]
  403674:	f88d 306f 	strb.w	r3, [sp, #111]	; 0x6f
  403678:	461a      	mov	r2, r3
  40367a:	930c      	str	r3, [sp, #48]	; 0x30
  40367c:	9307      	str	r3, [sp, #28]
  40367e:	f04f 3aff 	mov.w	sl, #4294967295
  403682:	1c4b      	adds	r3, r1, #1
  403684:	f1a5 0120 	sub.w	r1, r5, #32
  403688:	2958      	cmp	r1, #88	; 0x58
  40368a:	f200 83d9 	bhi.w	403e40 <_svfprintf_r+0x864>
  40368e:	e8df f011 	tbh	[pc, r1, lsl #1]
  403692:	0270      	.short	0x0270
  403694:	03d703d7 	.word	0x03d703d7
  403698:	03d70374 	.word	0x03d70374
  40369c:	03d703d7 	.word	0x03d703d7
  4036a0:	03d703d7 	.word	0x03d703d7
  4036a4:	02f003d7 	.word	0x02f003d7
  4036a8:	03d7020d 	.word	0x03d7020d
  4036ac:	021101f4 	.word	0x021101f4
  4036b0:	037b03d7 	.word	0x037b03d7
  4036b4:	02ba02ba 	.word	0x02ba02ba
  4036b8:	02ba02ba 	.word	0x02ba02ba
  4036bc:	02ba02ba 	.word	0x02ba02ba
  4036c0:	02ba02ba 	.word	0x02ba02ba
  4036c4:	03d702ba 	.word	0x03d702ba
  4036c8:	03d703d7 	.word	0x03d703d7
  4036cc:	03d703d7 	.word	0x03d703d7
  4036d0:	03d703d7 	.word	0x03d703d7
  4036d4:	03d703d7 	.word	0x03d703d7
  4036d8:	02c903d7 	.word	0x02c903d7
  4036dc:	03d7038b 	.word	0x03d7038b
  4036e0:	03d7038b 	.word	0x03d7038b
  4036e4:	03d703d7 	.word	0x03d703d7
  4036e8:	036d03d7 	.word	0x036d03d7
  4036ec:	03d703d7 	.word	0x03d703d7
  4036f0:	03d70305 	.word	0x03d70305
  4036f4:	03d703d7 	.word	0x03d703d7
  4036f8:	03d703d7 	.word	0x03d703d7
  4036fc:	03d70323 	.word	0x03d70323
  403700:	033d03d7 	.word	0x033d03d7
  403704:	03d703d7 	.word	0x03d703d7
  403708:	03d703d7 	.word	0x03d703d7
  40370c:	03d703d7 	.word	0x03d703d7
  403710:	03d703d7 	.word	0x03d703d7
  403714:	03d703d7 	.word	0x03d703d7
  403718:	022c0358 	.word	0x022c0358
  40371c:	038b038b 	.word	0x038b038b
  403720:	02fe038b 	.word	0x02fe038b
  403724:	03d7022c 	.word	0x03d7022c
  403728:	02e603d7 	.word	0x02e603d7
  40372c:	027e03d7 	.word	0x027e03d7
  403730:	03c001fb 	.word	0x03c001fb
  403734:	03d70277 	.word	0x03d70277
  403738:	03d70292 	.word	0x03d70292
  40373c:	03d7007a 	.word	0x03d7007a
  403740:	024a03d7 	.word	0x024a03d7
  403744:	9808      	ldr	r0, [sp, #32]
  403746:	9307      	str	r3, [sp, #28]
  403748:	4631      	mov	r1, r6
  40374a:	aa23      	add	r2, sp, #140	; 0x8c
  40374c:	f003 fbc8 	bl	406ee0 <__ssprint_r>
  403750:	b950      	cbnz	r0, 403768 <_svfprintf_r+0x18c>
  403752:	463c      	mov	r4, r7
  403754:	9b07      	ldr	r3, [sp, #28]
  403756:	e783      	b.n	403660 <_svfprintf_r+0x84>
  403758:	9808      	ldr	r0, [sp, #32]
  40375a:	4631      	mov	r1, r6
  40375c:	aa23      	add	r2, sp, #140	; 0x8c
  40375e:	f003 fbbf 	bl	406ee0 <__ssprint_r>
  403762:	2800      	cmp	r0, #0
  403764:	f000 8185 	beq.w	403a72 <_svfprintf_r+0x496>
  403768:	46b1      	mov	r9, r6
  40376a:	f8b9 300c 	ldrh.w	r3, [r9, #12]
  40376e:	f013 0f40 	tst.w	r3, #64	; 0x40
  403772:	9b0b      	ldr	r3, [sp, #44]	; 0x2c
  403774:	bf18      	it	ne
  403776:	f04f 33ff 	movne.w	r3, #4294967295
  40377a:	4618      	mov	r0, r3
  40377c:	b041      	add	sp, #260	; 0x104
  40377e:	e8bd 8ff0 	ldmia.w	sp!, {r4, r5, r6, r7, r8, r9, sl, fp, pc}
  403782:	9d0a      	ldr	r5, [sp, #40]	; 0x28
  403784:	e76f      	b.n	403666 <_svfprintf_r+0x8a>
  403786:	930a      	str	r3, [sp, #40]	; 0x28
  403788:	9b07      	ldr	r3, [sp, #28]
  40378a:	0698      	lsls	r0, r3, #26
  40378c:	f140 82ad 	bpl.w	403cea <_svfprintf_r+0x70e>
  403790:	9b0e      	ldr	r3, [sp, #56]	; 0x38
  403792:	f103 0907 	add.w	r9, r3, #7
  403796:	f029 0307 	bic.w	r3, r9, #7
  40379a:	f103 0208 	add.w	r2, r3, #8
  40379e:	e9d3 8900 	ldrd	r8, r9, [r3]
  4037a2:	920e      	str	r2, [sp, #56]	; 0x38
  4037a4:	2301      	movs	r3, #1
  4037a6:	f04f 0c00 	mov.w	ip, #0
  4037aa:	f88d c06f 	strb.w	ip, [sp, #111]	; 0x6f
  4037ae:	f8cd a044 	str.w	sl, [sp, #68]	; 0x44
  4037b2:	f1ba 0f00 	cmp.w	sl, #0
  4037b6:	db03      	blt.n	4037c0 <_svfprintf_r+0x1e4>
  4037b8:	9a07      	ldr	r2, [sp, #28]
  4037ba:	f022 0280 	bic.w	r2, r2, #128	; 0x80
  4037be:	9207      	str	r2, [sp, #28]
  4037c0:	ea58 0209 	orrs.w	r2, r8, r9
  4037c4:	f040 834c 	bne.w	403e60 <_svfprintf_r+0x884>
  4037c8:	f1ba 0f00 	cmp.w	sl, #0
  4037cc:	f000 8451 	beq.w	404072 <_svfprintf_r+0xa96>
  4037d0:	2b01      	cmp	r3, #1
  4037d2:	f000 834f 	beq.w	403e74 <_svfprintf_r+0x898>
  4037d6:	2b02      	cmp	r3, #2
  4037d8:	f000 8490 	beq.w	4040fc <_svfprintf_r+0xb20>
  4037dc:	4639      	mov	r1, r7
  4037de:	ea4f 02d8 	mov.w	r2, r8, lsr #3
  4037e2:	ea42 7249 	orr.w	r2, r2, r9, lsl #29
  4037e6:	ea4f 00d9 	mov.w	r0, r9, lsr #3
  4037ea:	f008 0307 	and.w	r3, r8, #7
  4037ee:	4681      	mov	r9, r0
  4037f0:	4690      	mov	r8, r2
  4037f2:	3330      	adds	r3, #48	; 0x30
  4037f4:	ea58 0209 	orrs.w	r2, r8, r9
  4037f8:	f801 3d01 	strb.w	r3, [r1, #-1]!
  4037fc:	d1ef      	bne.n	4037de <_svfprintf_r+0x202>
  4037fe:	9a07      	ldr	r2, [sp, #28]
  403800:	9110      	str	r1, [sp, #64]	; 0x40
  403802:	07d2      	lsls	r2, r2, #31
  403804:	f100 8544 	bmi.w	404290 <_svfprintf_r+0xcb4>
  403808:	1a7b      	subs	r3, r7, r1
  40380a:	930d      	str	r3, [sp, #52]	; 0x34
  40380c:	9a0d      	ldr	r2, [sp, #52]	; 0x34
  40380e:	4592      	cmp	sl, r2
  403810:	4653      	mov	r3, sl
  403812:	bfb8      	it	lt
  403814:	4613      	movlt	r3, r2
  403816:	9309      	str	r3, [sp, #36]	; 0x24
  403818:	2300      	movs	r3, #0
  40381a:	9312      	str	r3, [sp, #72]	; 0x48
  40381c:	f1bc 0f00 	cmp.w	ip, #0
  403820:	d002      	beq.n	403828 <_svfprintf_r+0x24c>
  403822:	9b09      	ldr	r3, [sp, #36]	; 0x24
  403824:	3301      	adds	r3, #1
  403826:	9309      	str	r3, [sp, #36]	; 0x24
  403828:	9b07      	ldr	r3, [sp, #28]
  40382a:	f013 0302 	ands.w	r3, r3, #2
  40382e:	930f      	str	r3, [sp, #60]	; 0x3c
  403830:	d002      	beq.n	403838 <_svfprintf_r+0x25c>
  403832:	9b09      	ldr	r3, [sp, #36]	; 0x24
  403834:	3302      	adds	r3, #2
  403836:	9309      	str	r3, [sp, #36]	; 0x24
  403838:	9b07      	ldr	r3, [sp, #28]
  40383a:	f013 0984 	ands.w	r9, r3, #132	; 0x84
  40383e:	f040 830c 	bne.w	403e5a <_svfprintf_r+0x87e>
  403842:	9b0c      	ldr	r3, [sp, #48]	; 0x30
  403844:	9a09      	ldr	r2, [sp, #36]	; 0x24
  403846:	ebc2 0803 	rsb	r8, r2, r3
  40384a:	f1b8 0f00 	cmp.w	r8, #0
  40384e:	f340 8304 	ble.w	403e5a <_svfprintf_r+0x87e>
  403852:	f1b8 0f10 	cmp.w	r8, #16
  403856:	9925      	ldr	r1, [sp, #148]	; 0x94
  403858:	9a24      	ldr	r2, [sp, #144]	; 0x90
  40385a:	f8df a544 	ldr.w	sl, [pc, #1348]	; 403da0 <_svfprintf_r+0x7c4>
  40385e:	dd29      	ble.n	4038b4 <_svfprintf_r+0x2d8>
  403860:	4653      	mov	r3, sl
  403862:	f04f 0b10 	mov.w	fp, #16
  403866:	46c2      	mov	sl, r8
  403868:	46a8      	mov	r8, r5
  40386a:	461d      	mov	r5, r3
  40386c:	e006      	b.n	40387c <_svfprintf_r+0x2a0>
  40386e:	f1aa 0a10 	sub.w	sl, sl, #16
  403872:	f1ba 0f10 	cmp.w	sl, #16
  403876:	f104 0408 	add.w	r4, r4, #8
  40387a:	dd17      	ble.n	4038ac <_svfprintf_r+0x2d0>
  40387c:	3201      	adds	r2, #1
  40387e:	3110      	adds	r1, #16
  403880:	2a07      	cmp	r2, #7
  403882:	9125      	str	r1, [sp, #148]	; 0x94
  403884:	9224      	str	r2, [sp, #144]	; 0x90
  403886:	e884 0820 	stmia.w	r4, {r5, fp}
  40388a:	ddf0      	ble.n	40386e <_svfprintf_r+0x292>
  40388c:	9808      	ldr	r0, [sp, #32]
  40388e:	4631      	mov	r1, r6
  403890:	aa23      	add	r2, sp, #140	; 0x8c
  403892:	f003 fb25 	bl	406ee0 <__ssprint_r>
  403896:	2800      	cmp	r0, #0
  403898:	f47f af66 	bne.w	403768 <_svfprintf_r+0x18c>
  40389c:	f1aa 0a10 	sub.w	sl, sl, #16
  4038a0:	f1ba 0f10 	cmp.w	sl, #16
  4038a4:	9925      	ldr	r1, [sp, #148]	; 0x94
  4038a6:	9a24      	ldr	r2, [sp, #144]	; 0x90
  4038a8:	463c      	mov	r4, r7
  4038aa:	dce7      	bgt.n	40387c <_svfprintf_r+0x2a0>
  4038ac:	462b      	mov	r3, r5
  4038ae:	4645      	mov	r5, r8
  4038b0:	46d0      	mov	r8, sl
  4038b2:	469a      	mov	sl, r3
  4038b4:	3201      	adds	r2, #1
  4038b6:	eb08 0b01 	add.w	fp, r8, r1
  4038ba:	2a07      	cmp	r2, #7
  4038bc:	f8cd b094 	str.w	fp, [sp, #148]	; 0x94
  4038c0:	9224      	str	r2, [sp, #144]	; 0x90
  4038c2:	f8c4 a000 	str.w	sl, [r4]
  4038c6:	f8c4 8004 	str.w	r8, [r4, #4]
  4038ca:	f300 847b 	bgt.w	4041c4 <_svfprintf_r+0xbe8>
  4038ce:	f89d c06f 	ldrb.w	ip, [sp, #111]	; 0x6f
  4038d2:	3408      	adds	r4, #8
  4038d4:	f1bc 0f00 	cmp.w	ip, #0
  4038d8:	d00f      	beq.n	4038fa <_svfprintf_r+0x31e>
  4038da:	9b24      	ldr	r3, [sp, #144]	; 0x90
  4038dc:	3301      	adds	r3, #1
  4038de:	f10b 0b01 	add.w	fp, fp, #1
  4038e2:	f10d 016f 	add.w	r1, sp, #111	; 0x6f
  4038e6:	2201      	movs	r2, #1
  4038e8:	2b07      	cmp	r3, #7
  4038ea:	f8cd b094 	str.w	fp, [sp, #148]	; 0x94
  4038ee:	9324      	str	r3, [sp, #144]	; 0x90
  4038f0:	e884 0006 	stmia.w	r4, {r1, r2}
  4038f4:	f300 83da 	bgt.w	4040ac <_svfprintf_r+0xad0>
  4038f8:	3408      	adds	r4, #8
  4038fa:	9b0f      	ldr	r3, [sp, #60]	; 0x3c
  4038fc:	b173      	cbz	r3, 40391c <_svfprintf_r+0x340>
  4038fe:	9b24      	ldr	r3, [sp, #144]	; 0x90
  403900:	3301      	adds	r3, #1
  403902:	f10b 0b02 	add.w	fp, fp, #2
  403906:	a91c      	add	r1, sp, #112	; 0x70
  403908:	2202      	movs	r2, #2
  40390a:	2b07      	cmp	r3, #7
  40390c:	f8cd b094 	str.w	fp, [sp, #148]	; 0x94
  403910:	9324      	str	r3, [sp, #144]	; 0x90
  403912:	e884 0006 	stmia.w	r4, {r1, r2}
  403916:	f300 83d5 	bgt.w	4040c4 <_svfprintf_r+0xae8>
  40391a:	3408      	adds	r4, #8
  40391c:	f1b9 0f80 	cmp.w	r9, #128	; 0x80
  403920:	f000 8311 	beq.w	403f46 <_svfprintf_r+0x96a>
  403924:	9b11      	ldr	r3, [sp, #68]	; 0x44
  403926:	9a0d      	ldr	r2, [sp, #52]	; 0x34
  403928:	ebc2 0a03 	rsb	sl, r2, r3
  40392c:	f1ba 0f00 	cmp.w	sl, #0
  403930:	dd3c      	ble.n	4039ac <_svfprintf_r+0x3d0>
  403932:	f1ba 0f10 	cmp.w	sl, #16
  403936:	9a24      	ldr	r2, [sp, #144]	; 0x90
  403938:	f8df 9468 	ldr.w	r9, [pc, #1128]	; 403da4 <_svfprintf_r+0x7c8>
  40393c:	dd2b      	ble.n	403996 <_svfprintf_r+0x3ba>
  40393e:	4649      	mov	r1, r9
  403940:	465b      	mov	r3, fp
  403942:	46a9      	mov	r9, r5
  403944:	f04f 0810 	mov.w	r8, #16
  403948:	f8dd b020 	ldr.w	fp, [sp, #32]
  40394c:	460d      	mov	r5, r1
  40394e:	e006      	b.n	40395e <_svfprintf_r+0x382>
  403950:	f1aa 0a10 	sub.w	sl, sl, #16
  403954:	f1ba 0f10 	cmp.w	sl, #16
  403958:	f104 0408 	add.w	r4, r4, #8
  40395c:	dd17      	ble.n	40398e <_svfprintf_r+0x3b2>
  40395e:	3201      	adds	r2, #1
  403960:	3310      	adds	r3, #16
  403962:	2a07      	cmp	r2, #7
  403964:	9325      	str	r3, [sp, #148]	; 0x94
  403966:	9224      	str	r2, [sp, #144]	; 0x90
  403968:	e884 0120 	stmia.w	r4, {r5, r8}
  40396c:	ddf0      	ble.n	403950 <_svfprintf_r+0x374>
  40396e:	4658      	mov	r0, fp
  403970:	4631      	mov	r1, r6
  403972:	aa23      	add	r2, sp, #140	; 0x8c
  403974:	f003 fab4 	bl	406ee0 <__ssprint_r>
  403978:	2800      	cmp	r0, #0
  40397a:	f47f aef5 	bne.w	403768 <_svfprintf_r+0x18c>
  40397e:	f1aa 0a10 	sub.w	sl, sl, #16
  403982:	f1ba 0f10 	cmp.w	sl, #16
  403986:	9b25      	ldr	r3, [sp, #148]	; 0x94
  403988:	9a24      	ldr	r2, [sp, #144]	; 0x90
  40398a:	463c      	mov	r4, r7
  40398c:	dce7      	bgt.n	40395e <_svfprintf_r+0x382>
  40398e:	469b      	mov	fp, r3
  403990:	462b      	mov	r3, r5
  403992:	464d      	mov	r5, r9
  403994:	4699      	mov	r9, r3
  403996:	3201      	adds	r2, #1
  403998:	44d3      	add	fp, sl
  40399a:	2a07      	cmp	r2, #7
  40399c:	f8cd b094 	str.w	fp, [sp, #148]	; 0x94
  4039a0:	9224      	str	r2, [sp, #144]	; 0x90
  4039a2:	e884 0600 	stmia.w	r4, {r9, sl}
  4039a6:	f300 8375 	bgt.w	404094 <_svfprintf_r+0xab8>
  4039aa:	3408      	adds	r4, #8
  4039ac:	9b07      	ldr	r3, [sp, #28]
  4039ae:	05d9      	lsls	r1, r3, #23
  4039b0:	f100 826c 	bmi.w	403e8c <_svfprintf_r+0x8b0>
  4039b4:	9b24      	ldr	r3, [sp, #144]	; 0x90
  4039b6:	990d      	ldr	r1, [sp, #52]	; 0x34
  4039b8:	9a10      	ldr	r2, [sp, #64]	; 0x40
  4039ba:	6022      	str	r2, [r4, #0]
  4039bc:	3301      	adds	r3, #1
  4039be:	448b      	add	fp, r1
  4039c0:	2b07      	cmp	r3, #7
  4039c2:	f8cd b094 	str.w	fp, [sp, #148]	; 0x94
  4039c6:	6061      	str	r1, [r4, #4]
  4039c8:	9324      	str	r3, [sp, #144]	; 0x90
  4039ca:	f300 8346 	bgt.w	40405a <_svfprintf_r+0xa7e>
  4039ce:	3408      	adds	r4, #8
  4039d0:	9b07      	ldr	r3, [sp, #28]
  4039d2:	075a      	lsls	r2, r3, #29
  4039d4:	d541      	bpl.n	403a5a <_svfprintf_r+0x47e>
  4039d6:	9b0c      	ldr	r3, [sp, #48]	; 0x30
  4039d8:	9a09      	ldr	r2, [sp, #36]	; 0x24
  4039da:	1a9d      	subs	r5, r3, r2
  4039dc:	2d00      	cmp	r5, #0
  4039de:	dd3c      	ble.n	403a5a <_svfprintf_r+0x47e>
  4039e0:	2d10      	cmp	r5, #16
  4039e2:	9b24      	ldr	r3, [sp, #144]	; 0x90
  4039e4:	f8df a3b8 	ldr.w	sl, [pc, #952]	; 403da0 <_svfprintf_r+0x7c4>
  4039e8:	dd23      	ble.n	403a32 <_svfprintf_r+0x456>
  4039ea:	f04f 0810 	mov.w	r8, #16
  4039ee:	465a      	mov	r2, fp
  4039f0:	f8dd 9020 	ldr.w	r9, [sp, #32]
  4039f4:	e004      	b.n	403a00 <_svfprintf_r+0x424>
  4039f6:	3d10      	subs	r5, #16
  4039f8:	2d10      	cmp	r5, #16
  4039fa:	f104 0408 	add.w	r4, r4, #8
  4039fe:	dd17      	ble.n	403a30 <_svfprintf_r+0x454>
  403a00:	3301      	adds	r3, #1
  403a02:	3210      	adds	r2, #16
  403a04:	2b07      	cmp	r3, #7
  403a06:	9225      	str	r2, [sp, #148]	; 0x94
  403a08:	9324      	str	r3, [sp, #144]	; 0x90
  403a0a:	f8c4 a000 	str.w	sl, [r4]
  403a0e:	f8c4 8004 	str.w	r8, [r4, #4]
  403a12:	ddf0      	ble.n	4039f6 <_svfprintf_r+0x41a>
  403a14:	4648      	mov	r0, r9
  403a16:	4631      	mov	r1, r6
  403a18:	aa23      	add	r2, sp, #140	; 0x8c
  403a1a:	f003 fa61 	bl	406ee0 <__ssprint_r>
  403a1e:	2800      	cmp	r0, #0
  403a20:	f47f aea2 	bne.w	403768 <_svfprintf_r+0x18c>
  403a24:	3d10      	subs	r5, #16
  403a26:	2d10      	cmp	r5, #16
  403a28:	9a25      	ldr	r2, [sp, #148]	; 0x94
  403a2a:	9b24      	ldr	r3, [sp, #144]	; 0x90
  403a2c:	463c      	mov	r4, r7
  403a2e:	dce7      	bgt.n	403a00 <_svfprintf_r+0x424>
  403a30:	4693      	mov	fp, r2
  403a32:	3301      	adds	r3, #1
  403a34:	44ab      	add	fp, r5
  403a36:	2b07      	cmp	r3, #7
  403a38:	f8cd b094 	str.w	fp, [sp, #148]	; 0x94
  403a3c:	9324      	str	r3, [sp, #144]	; 0x90
  403a3e:	f8c4 a000 	str.w	sl, [r4]
  403a42:	6065      	str	r5, [r4, #4]
  403a44:	dd09      	ble.n	403a5a <_svfprintf_r+0x47e>
  403a46:	9808      	ldr	r0, [sp, #32]
  403a48:	4631      	mov	r1, r6
  403a4a:	aa23      	add	r2, sp, #140	; 0x8c
  403a4c:	f003 fa48 	bl	406ee0 <__ssprint_r>
  403a50:	2800      	cmp	r0, #0
  403a52:	f47f ae89 	bne.w	403768 <_svfprintf_r+0x18c>
  403a56:	f8dd b094 	ldr.w	fp, [sp, #148]	; 0x94
  403a5a:	9b0b      	ldr	r3, [sp, #44]	; 0x2c
  403a5c:	9a09      	ldr	r2, [sp, #36]	; 0x24
  403a5e:	990c      	ldr	r1, [sp, #48]	; 0x30
  403a60:	428a      	cmp	r2, r1
  403a62:	bfac      	ite	ge
  403a64:	189b      	addge	r3, r3, r2
  403a66:	185b      	addlt	r3, r3, r1
  403a68:	930b      	str	r3, [sp, #44]	; 0x2c
  403a6a:	f1bb 0f00 	cmp.w	fp, #0
  403a6e:	f47f ae73 	bne.w	403758 <_svfprintf_r+0x17c>
  403a72:	2300      	movs	r3, #0
  403a74:	9324      	str	r3, [sp, #144]	; 0x90
  403a76:	463c      	mov	r4, r7
  403a78:	e5d5      	b.n	403626 <_svfprintf_r+0x4a>
  403a7a:	4619      	mov	r1, r3
  403a7c:	9807      	ldr	r0, [sp, #28]
  403a7e:	781d      	ldrb	r5, [r3, #0]
  403a80:	f040 0004 	orr.w	r0, r0, #4
  403a84:	9007      	str	r0, [sp, #28]
  403a86:	e5fc      	b.n	403682 <_svfprintf_r+0xa6>
  403a88:	930a      	str	r3, [sp, #40]	; 0x28
  403a8a:	9b07      	ldr	r3, [sp, #28]
  403a8c:	f013 0320 	ands.w	r3, r3, #32
  403a90:	f000 810e 	beq.w	403cb0 <_svfprintf_r+0x6d4>
  403a94:	9b0e      	ldr	r3, [sp, #56]	; 0x38
  403a96:	f103 0907 	add.w	r9, r3, #7
  403a9a:	f029 0307 	bic.w	r3, r9, #7
  403a9e:	f103 0208 	add.w	r2, r3, #8
  403aa2:	e9d3 8900 	ldrd	r8, r9, [r3]
  403aa6:	920e      	str	r2, [sp, #56]	; 0x38
  403aa8:	2300      	movs	r3, #0
  403aaa:	e67c      	b.n	4037a6 <_svfprintf_r+0x1ca>
  403aac:	781d      	ldrb	r5, [r3, #0]
  403aae:	4619      	mov	r1, r3
  403ab0:	222b      	movs	r2, #43	; 0x2b
  403ab2:	e5e6      	b.n	403682 <_svfprintf_r+0xa6>
  403ab4:	781d      	ldrb	r5, [r3, #0]
  403ab6:	2d2a      	cmp	r5, #42	; 0x2a
  403ab8:	f103 0101 	add.w	r1, r3, #1
  403abc:	f000 87ad 	beq.w	404a1a <_svfprintf_r+0x143e>
  403ac0:	f1a5 0030 	sub.w	r0, r5, #48	; 0x30
  403ac4:	2809      	cmp	r0, #9
  403ac6:	460b      	mov	r3, r1
  403ac8:	f04f 0a00 	mov.w	sl, #0
  403acc:	f63f adda 	bhi.w	403684 <_svfprintf_r+0xa8>
  403ad0:	f813 5b01 	ldrb.w	r5, [r3], #1
  403ad4:	eb0a 0a8a 	add.w	sl, sl, sl, lsl #2
  403ad8:	eb00 0a4a 	add.w	sl, r0, sl, lsl #1
  403adc:	f1a5 0030 	sub.w	r0, r5, #48	; 0x30
  403ae0:	2809      	cmp	r0, #9
  403ae2:	d9f5      	bls.n	403ad0 <_svfprintf_r+0x4f4>
  403ae4:	ea4a 7aea 	orr.w	sl, sl, sl, asr #31
  403ae8:	e5cc      	b.n	403684 <_svfprintf_r+0xa8>
  403aea:	930a      	str	r3, [sp, #40]	; 0x28
  403aec:	9b07      	ldr	r3, [sp, #28]
  403aee:	f88d 206f 	strb.w	r2, [sp, #111]	; 0x6f
  403af2:	069b      	lsls	r3, r3, #26
  403af4:	f140 80a1 	bpl.w	403c3a <_svfprintf_r+0x65e>
  403af8:	9b0e      	ldr	r3, [sp, #56]	; 0x38
  403afa:	f103 0907 	add.w	r9, r3, #7
  403afe:	f029 0907 	bic.w	r9, r9, #7
  403b02:	e9d9 2300 	ldrd	r2, r3, [r9]
  403b06:	f109 0108 	add.w	r1, r9, #8
  403b0a:	910e      	str	r1, [sp, #56]	; 0x38
  403b0c:	4690      	mov	r8, r2
  403b0e:	4699      	mov	r9, r3
  403b10:	2a00      	cmp	r2, #0
  403b12:	f173 0300 	sbcs.w	r3, r3, #0
  403b16:	f2c0 840b 	blt.w	404330 <_svfprintf_r+0xd54>
  403b1a:	f89d c06f 	ldrb.w	ip, [sp, #111]	; 0x6f
  403b1e:	f8cd a044 	str.w	sl, [sp, #68]	; 0x44
  403b22:	2301      	movs	r3, #1
  403b24:	e645      	b.n	4037b2 <_svfprintf_r+0x1d6>
  403b26:	930a      	str	r3, [sp, #40]	; 0x28
  403b28:	4b9b      	ldr	r3, [pc, #620]	; (403d98 <_svfprintf_r+0x7bc>)
  403b2a:	9316      	str	r3, [sp, #88]	; 0x58
  403b2c:	9b07      	ldr	r3, [sp, #28]
  403b2e:	f88d 206f 	strb.w	r2, [sp, #111]	; 0x6f
  403b32:	069b      	lsls	r3, r3, #26
  403b34:	f140 80f3 	bpl.w	403d1e <_svfprintf_r+0x742>
  403b38:	9b0e      	ldr	r3, [sp, #56]	; 0x38
  403b3a:	f103 0907 	add.w	r9, r3, #7
  403b3e:	f029 0307 	bic.w	r3, r9, #7
  403b42:	e9d3 8900 	ldrd	r8, r9, [r3]
  403b46:	f103 0208 	add.w	r2, r3, #8
  403b4a:	920e      	str	r2, [sp, #56]	; 0x38
  403b4c:	9b07      	ldr	r3, [sp, #28]
  403b4e:	07d9      	lsls	r1, r3, #31
  403b50:	f140 80f5 	bpl.w	403d3e <_svfprintf_r+0x762>
  403b54:	ea58 0309 	orrs.w	r3, r8, r9
  403b58:	f000 80f1 	beq.w	403d3e <_svfprintf_r+0x762>
  403b5c:	9a07      	ldr	r2, [sp, #28]
  403b5e:	f88d 5071 	strb.w	r5, [sp, #113]	; 0x71
  403b62:	2330      	movs	r3, #48	; 0x30
  403b64:	f042 0202 	orr.w	r2, r2, #2
  403b68:	f88d 3070 	strb.w	r3, [sp, #112]	; 0x70
  403b6c:	9207      	str	r2, [sp, #28]
  403b6e:	2302      	movs	r3, #2
  403b70:	e619      	b.n	4037a6 <_svfprintf_r+0x1ca>
  403b72:	781d      	ldrb	r5, [r3, #0]
  403b74:	4619      	mov	r1, r3
  403b76:	2a00      	cmp	r2, #0
  403b78:	f47f ad83 	bne.w	403682 <_svfprintf_r+0xa6>
  403b7c:	2220      	movs	r2, #32
  403b7e:	e580      	b.n	403682 <_svfprintf_r+0xa6>
  403b80:	9907      	ldr	r1, [sp, #28]
  403b82:	f041 0120 	orr.w	r1, r1, #32
  403b86:	9107      	str	r1, [sp, #28]
  403b88:	781d      	ldrb	r5, [r3, #0]
  403b8a:	4619      	mov	r1, r3
  403b8c:	e579      	b.n	403682 <_svfprintf_r+0xa6>
  403b8e:	930a      	str	r3, [sp, #40]	; 0x28
  403b90:	9b07      	ldr	r3, [sp, #28]
  403b92:	f88d 206f 	strb.w	r2, [sp, #111]	; 0x6f
  403b96:	069a      	lsls	r2, r3, #26
  403b98:	f140 84a1 	bpl.w	4044de <_svfprintf_r+0xf02>
  403b9c:	990b      	ldr	r1, [sp, #44]	; 0x2c
  403b9e:	9a0e      	ldr	r2, [sp, #56]	; 0x38
  403ba0:	ea4f 79e1 	mov.w	r9, r1, asr #31
  403ba4:	6813      	ldr	r3, [r2, #0]
  403ba6:	4608      	mov	r0, r1
  403ba8:	4688      	mov	r8, r1
  403baa:	3204      	adds	r2, #4
  403bac:	4649      	mov	r1, r9
  403bae:	920e      	str	r2, [sp, #56]	; 0x38
  403bb0:	e9c3 0100 	strd	r0, r1, [r3]
  403bb4:	e537      	b.n	403626 <_svfprintf_r+0x4a>
  403bb6:	9a0e      	ldr	r2, [sp, #56]	; 0x38
  403bb8:	930a      	str	r3, [sp, #40]	; 0x28
  403bba:	6813      	ldr	r3, [r2, #0]
  403bbc:	9310      	str	r3, [sp, #64]	; 0x40
  403bbe:	f04f 0b00 	mov.w	fp, #0
  403bc2:	f88d b06f 	strb.w	fp, [sp, #111]	; 0x6f
  403bc6:	f102 0904 	add.w	r9, r2, #4
  403bca:	2b00      	cmp	r3, #0
  403bcc:	f000 863b 	beq.w	404846 <_svfprintf_r+0x126a>
  403bd0:	f1ba 0f00 	cmp.w	sl, #0
  403bd4:	9810      	ldr	r0, [sp, #64]	; 0x40
  403bd6:	f2c0 85e9 	blt.w	4047ac <_svfprintf_r+0x11d0>
  403bda:	4659      	mov	r1, fp
  403bdc:	4652      	mov	r2, sl
  403bde:	f002 fb0b 	bl	4061f8 <memchr>
  403be2:	2800      	cmp	r0, #0
  403be4:	f000 866c 	beq.w	4048c0 <_svfprintf_r+0x12e4>
  403be8:	9b10      	ldr	r3, [sp, #64]	; 0x40
  403bea:	f8cd b044 	str.w	fp, [sp, #68]	; 0x44
  403bee:	1ac3      	subs	r3, r0, r3
  403bf0:	930d      	str	r3, [sp, #52]	; 0x34
  403bf2:	f8cd 9038 	str.w	r9, [sp, #56]	; 0x38
  403bf6:	ea23 73e3 	bic.w	r3, r3, r3, asr #31
  403bfa:	9309      	str	r3, [sp, #36]	; 0x24
  403bfc:	f8cd b048 	str.w	fp, [sp, #72]	; 0x48
  403c00:	f89d c06f 	ldrb.w	ip, [sp, #111]	; 0x6f
  403c04:	e60a      	b.n	40381c <_svfprintf_r+0x240>
  403c06:	f1a5 0030 	sub.w	r0, r5, #48	; 0x30
  403c0a:	2100      	movs	r1, #0
  403c0c:	f813 5b01 	ldrb.w	r5, [r3], #1
  403c10:	eb01 0181 	add.w	r1, r1, r1, lsl #2
  403c14:	eb00 0141 	add.w	r1, r0, r1, lsl #1
  403c18:	f1a5 0030 	sub.w	r0, r5, #48	; 0x30
  403c1c:	2809      	cmp	r0, #9
  403c1e:	d9f5      	bls.n	403c0c <_svfprintf_r+0x630>
  403c20:	910c      	str	r1, [sp, #48]	; 0x30
  403c22:	e52f      	b.n	403684 <_svfprintf_r+0xa8>
  403c24:	930a      	str	r3, [sp, #40]	; 0x28
  403c26:	9b07      	ldr	r3, [sp, #28]
  403c28:	f88d 206f 	strb.w	r2, [sp, #111]	; 0x6f
  403c2c:	f043 0310 	orr.w	r3, r3, #16
  403c30:	9307      	str	r3, [sp, #28]
  403c32:	9b07      	ldr	r3, [sp, #28]
  403c34:	069b      	lsls	r3, r3, #26
  403c36:	f53f af5f 	bmi.w	403af8 <_svfprintf_r+0x51c>
  403c3a:	9b07      	ldr	r3, [sp, #28]
  403c3c:	06d8      	lsls	r0, r3, #27
  403c3e:	f100 8368 	bmi.w	404312 <_svfprintf_r+0xd36>
  403c42:	9b07      	ldr	r3, [sp, #28]
  403c44:	0659      	lsls	r1, r3, #25
  403c46:	f140 8364 	bpl.w	404312 <_svfprintf_r+0xd36>
  403c4a:	990e      	ldr	r1, [sp, #56]	; 0x38
  403c4c:	f9b1 8000 	ldrsh.w	r8, [r1]
  403c50:	3104      	adds	r1, #4
  403c52:	ea4f 79e8 	mov.w	r9, r8, asr #31
  403c56:	4642      	mov	r2, r8
  403c58:	464b      	mov	r3, r9
  403c5a:	910e      	str	r1, [sp, #56]	; 0x38
  403c5c:	e758      	b.n	403b10 <_svfprintf_r+0x534>
  403c5e:	781d      	ldrb	r5, [r3, #0]
  403c60:	9907      	ldr	r1, [sp, #28]
  403c62:	2d6c      	cmp	r5, #108	; 0x6c
  403c64:	f000 84cb 	beq.w	4045fe <_svfprintf_r+0x1022>
  403c68:	f041 0110 	orr.w	r1, r1, #16
  403c6c:	9107      	str	r1, [sp, #28]
  403c6e:	4619      	mov	r1, r3
  403c70:	e507      	b.n	403682 <_svfprintf_r+0xa6>
  403c72:	9d0e      	ldr	r5, [sp, #56]	; 0x38
  403c74:	6829      	ldr	r1, [r5, #0]
  403c76:	910c      	str	r1, [sp, #48]	; 0x30
  403c78:	4608      	mov	r0, r1
  403c7a:	2800      	cmp	r0, #0
  403c7c:	4629      	mov	r1, r5
  403c7e:	f101 0104 	add.w	r1, r1, #4
  403c82:	f2c0 84b5 	blt.w	4045f0 <_svfprintf_r+0x1014>
  403c86:	910e      	str	r1, [sp, #56]	; 0x38
  403c88:	781d      	ldrb	r5, [r3, #0]
  403c8a:	4619      	mov	r1, r3
  403c8c:	e4f9      	b.n	403682 <_svfprintf_r+0xa6>
  403c8e:	9907      	ldr	r1, [sp, #28]
  403c90:	f041 0140 	orr.w	r1, r1, #64	; 0x40
  403c94:	9107      	str	r1, [sp, #28]
  403c96:	781d      	ldrb	r5, [r3, #0]
  403c98:	4619      	mov	r1, r3
  403c9a:	e4f2      	b.n	403682 <_svfprintf_r+0xa6>
  403c9c:	930a      	str	r3, [sp, #40]	; 0x28
  403c9e:	9b07      	ldr	r3, [sp, #28]
  403ca0:	f043 0310 	orr.w	r3, r3, #16
  403ca4:	9307      	str	r3, [sp, #28]
  403ca6:	9b07      	ldr	r3, [sp, #28]
  403ca8:	f013 0320 	ands.w	r3, r3, #32
  403cac:	f47f aef2 	bne.w	403a94 <_svfprintf_r+0x4b8>
  403cb0:	9a07      	ldr	r2, [sp, #28]
  403cb2:	f012 0210 	ands.w	r2, r2, #16
  403cb6:	f040 8319 	bne.w	4042ec <_svfprintf_r+0xd10>
  403cba:	9b07      	ldr	r3, [sp, #28]
  403cbc:	f013 0340 	ands.w	r3, r3, #64	; 0x40
  403cc0:	f000 8314 	beq.w	4042ec <_svfprintf_r+0xd10>
  403cc4:	990e      	ldr	r1, [sp, #56]	; 0x38
  403cc6:	4613      	mov	r3, r2
  403cc8:	460a      	mov	r2, r1
  403cca:	3204      	adds	r2, #4
  403ccc:	f8b1 8000 	ldrh.w	r8, [r1]
  403cd0:	920e      	str	r2, [sp, #56]	; 0x38
  403cd2:	f04f 0900 	mov.w	r9, #0
  403cd6:	e566      	b.n	4037a6 <_svfprintf_r+0x1ca>
  403cd8:	930a      	str	r3, [sp, #40]	; 0x28
  403cda:	9b07      	ldr	r3, [sp, #28]
  403cdc:	f043 0310 	orr.w	r3, r3, #16
  403ce0:	9307      	str	r3, [sp, #28]
  403ce2:	9b07      	ldr	r3, [sp, #28]
  403ce4:	0698      	lsls	r0, r3, #26
  403ce6:	f53f ad53 	bmi.w	403790 <_svfprintf_r+0x1b4>
  403cea:	9b07      	ldr	r3, [sp, #28]
  403cec:	06d9      	lsls	r1, r3, #27
  403cee:	f100 8306 	bmi.w	4042fe <_svfprintf_r+0xd22>
  403cf2:	9b07      	ldr	r3, [sp, #28]
  403cf4:	065a      	lsls	r2, r3, #25
  403cf6:	f140 8302 	bpl.w	4042fe <_svfprintf_r+0xd22>
  403cfa:	9a0e      	ldr	r2, [sp, #56]	; 0x38
  403cfc:	f8b2 8000 	ldrh.w	r8, [r2]
  403d00:	3204      	adds	r2, #4
  403d02:	f04f 0900 	mov.w	r9, #0
  403d06:	2301      	movs	r3, #1
  403d08:	920e      	str	r2, [sp, #56]	; 0x38
  403d0a:	e54c      	b.n	4037a6 <_svfprintf_r+0x1ca>
  403d0c:	930a      	str	r3, [sp, #40]	; 0x28
  403d0e:	4b23      	ldr	r3, [pc, #140]	; (403d9c <_svfprintf_r+0x7c0>)
  403d10:	9316      	str	r3, [sp, #88]	; 0x58
  403d12:	9b07      	ldr	r3, [sp, #28]
  403d14:	f88d 206f 	strb.w	r2, [sp, #111]	; 0x6f
  403d18:	069b      	lsls	r3, r3, #26
  403d1a:	f53f af0d 	bmi.w	403b38 <_svfprintf_r+0x55c>
  403d1e:	9b07      	ldr	r3, [sp, #28]
  403d20:	06d8      	lsls	r0, r3, #27
  403d22:	f140 83cd 	bpl.w	4044c0 <_svfprintf_r+0xee4>
  403d26:	9a0e      	ldr	r2, [sp, #56]	; 0x38
  403d28:	4613      	mov	r3, r2
  403d2a:	681b      	ldr	r3, [r3, #0]
  403d2c:	4698      	mov	r8, r3
  403d2e:	9b07      	ldr	r3, [sp, #28]
  403d30:	3204      	adds	r2, #4
  403d32:	07d9      	lsls	r1, r3, #31
  403d34:	920e      	str	r2, [sp, #56]	; 0x38
  403d36:	f04f 0900 	mov.w	r9, #0
  403d3a:	f53f af0b 	bmi.w	403b54 <_svfprintf_r+0x578>
  403d3e:	2302      	movs	r3, #2
  403d40:	e531      	b.n	4037a6 <_svfprintf_r+0x1ca>
  403d42:	990e      	ldr	r1, [sp, #56]	; 0x38
  403d44:	930a      	str	r3, [sp, #40]	; 0x28
  403d46:	680a      	ldr	r2, [r1, #0]
  403d48:	f88d 2098 	strb.w	r2, [sp, #152]	; 0x98
  403d4c:	2300      	movs	r3, #0
  403d4e:	2201      	movs	r2, #1
  403d50:	3104      	adds	r1, #4
  403d52:	469c      	mov	ip, r3
  403d54:	9209      	str	r2, [sp, #36]	; 0x24
  403d56:	910e      	str	r1, [sp, #56]	; 0x38
  403d58:	f88d 306f 	strb.w	r3, [sp, #111]	; 0x6f
  403d5c:	ab26      	add	r3, sp, #152	; 0x98
  403d5e:	f8cd c044 	str.w	ip, [sp, #68]	; 0x44
  403d62:	f8cd c048 	str.w	ip, [sp, #72]	; 0x48
  403d66:	920d      	str	r2, [sp, #52]	; 0x34
  403d68:	9310      	str	r3, [sp, #64]	; 0x40
  403d6a:	e55d      	b.n	403828 <_svfprintf_r+0x24c>
  403d6c:	9907      	ldr	r1, [sp, #28]
  403d6e:	f041 0108 	orr.w	r1, r1, #8
  403d72:	9107      	str	r1, [sp, #28]
  403d74:	781d      	ldrb	r5, [r3, #0]
  403d76:	4619      	mov	r1, r3
  403d78:	e483      	b.n	403682 <_svfprintf_r+0xa6>
  403d7a:	9907      	ldr	r1, [sp, #28]
  403d7c:	f041 0101 	orr.w	r1, r1, #1
  403d80:	9107      	str	r1, [sp, #28]
  403d82:	781d      	ldrb	r5, [r3, #0]
  403d84:	4619      	mov	r1, r3
  403d86:	e47c      	b.n	403682 <_svfprintf_r+0xa6>
  403d88:	9907      	ldr	r1, [sp, #28]
  403d8a:	f041 0180 	orr.w	r1, r1, #128	; 0x80
  403d8e:	9107      	str	r1, [sp, #28]
  403d90:	781d      	ldrb	r5, [r3, #0]
  403d92:	4619      	mov	r1, r3
  403d94:	e475      	b.n	403682 <_svfprintf_r+0xa6>
  403d96:	bf00      	nop
  403d98:	00408044 	.word	0x00408044
  403d9c:	00408030 	.word	0x00408030
  403da0:	00408010 	.word	0x00408010
  403da4:	00408000 	.word	0x00408000
  403da8:	930a      	str	r3, [sp, #40]	; 0x28
  403daa:	9b0e      	ldr	r3, [sp, #56]	; 0x38
  403dac:	f88d 206f 	strb.w	r2, [sp, #111]	; 0x6f
  403db0:	f103 0907 	add.w	r9, r3, #7
  403db4:	f029 0307 	bic.w	r3, r9, #7
  403db8:	f103 0208 	add.w	r2, r3, #8
  403dbc:	920e      	str	r2, [sp, #56]	; 0x38
  403dbe:	681a      	ldr	r2, [r3, #0]
  403dc0:	9214      	str	r2, [sp, #80]	; 0x50
  403dc2:	685b      	ldr	r3, [r3, #4]
  403dc4:	9315      	str	r3, [sp, #84]	; 0x54
  403dc6:	9915      	ldr	r1, [sp, #84]	; 0x54
  403dc8:	9814      	ldr	r0, [sp, #80]	; 0x50
  403dca:	f003 f84b 	bl	406e64 <__fpclassifyd>
  403dce:	2801      	cmp	r0, #1
  403dd0:	46d3      	mov	fp, sl
  403dd2:	9814      	ldr	r0, [sp, #80]	; 0x50
  403dd4:	9915      	ldr	r1, [sp, #84]	; 0x54
  403dd6:	f040 8359 	bne.w	40448c <_svfprintf_r+0xeb0>
  403dda:	2200      	movs	r2, #0
  403ddc:	2300      	movs	r3, #0
  403dde:	f7ff fae3 	bl	4033a8 <__aeabi_dcmplt>
  403de2:	2800      	cmp	r0, #0
  403de4:	f040 8564 	bne.w	4048b0 <_svfprintf_r+0x12d4>
  403de8:	f89d c06f 	ldrb.w	ip, [sp, #111]	; 0x6f
  403dec:	9b07      	ldr	r3, [sp, #28]
  403dee:	4abe      	ldr	r2, [pc, #760]	; (4040e8 <_svfprintf_r+0xb0c>)
  403df0:	f8df e300 	ldr.w	lr, [pc, #768]	; 4040f4 <_svfprintf_r+0xb18>
  403df4:	f023 0380 	bic.w	r3, r3, #128	; 0x80
  403df8:	9307      	str	r3, [sp, #28]
  403dfa:	4613      	mov	r3, r2
  403dfc:	2103      	movs	r1, #3
  403dfe:	2000      	movs	r0, #0
  403e00:	2d47      	cmp	r5, #71	; 0x47
  403e02:	bfd8      	it	le
  403e04:	4673      	movle	r3, lr
  403e06:	9109      	str	r1, [sp, #36]	; 0x24
  403e08:	9011      	str	r0, [sp, #68]	; 0x44
  403e0a:	9310      	str	r3, [sp, #64]	; 0x40
  403e0c:	910d      	str	r1, [sp, #52]	; 0x34
  403e0e:	9012      	str	r0, [sp, #72]	; 0x48
  403e10:	e504      	b.n	40381c <_svfprintf_r+0x240>
  403e12:	980e      	ldr	r0, [sp, #56]	; 0x38
  403e14:	9907      	ldr	r1, [sp, #28]
  403e16:	930a      	str	r3, [sp, #40]	; 0x28
  403e18:	2230      	movs	r2, #48	; 0x30
  403e1a:	6803      	ldr	r3, [r0, #0]
  403e1c:	f88d 2070 	strb.w	r2, [sp, #112]	; 0x70
  403e20:	4602      	mov	r2, r0
  403e22:	2578      	movs	r5, #120	; 0x78
  403e24:	f041 0102 	orr.w	r1, r1, #2
  403e28:	3204      	adds	r2, #4
  403e2a:	4698      	mov	r8, r3
  403e2c:	4baf      	ldr	r3, [pc, #700]	; (4040ec <_svfprintf_r+0xb10>)
  403e2e:	9316      	str	r3, [sp, #88]	; 0x58
  403e30:	9107      	str	r1, [sp, #28]
  403e32:	920e      	str	r2, [sp, #56]	; 0x38
  403e34:	f04f 0900 	mov.w	r9, #0
  403e38:	f88d 5071 	strb.w	r5, [sp, #113]	; 0x71
  403e3c:	2302      	movs	r3, #2
  403e3e:	e4b2      	b.n	4037a6 <_svfprintf_r+0x1ca>
  403e40:	930a      	str	r3, [sp, #40]	; 0x28
  403e42:	f88d 206f 	strb.w	r2, [sp, #111]	; 0x6f
  403e46:	2d00      	cmp	r5, #0
  403e48:	f000 83c6 	beq.w	4045d8 <_svfprintf_r+0xffc>
  403e4c:	2300      	movs	r3, #0
  403e4e:	2201      	movs	r2, #1
  403e50:	469c      	mov	ip, r3
  403e52:	9209      	str	r2, [sp, #36]	; 0x24
  403e54:	f88d 5098 	strb.w	r5, [sp, #152]	; 0x98
  403e58:	e77e      	b.n	403d58 <_svfprintf_r+0x77c>
  403e5a:	f8dd b094 	ldr.w	fp, [sp, #148]	; 0x94
  403e5e:	e539      	b.n	4038d4 <_svfprintf_r+0x2f8>
  403e60:	2b01      	cmp	r3, #1
  403e62:	f47f acb8 	bne.w	4037d6 <_svfprintf_r+0x1fa>
  403e66:	f1b9 0f00 	cmp.w	r9, #0
  403e6a:	bf08      	it	eq
  403e6c:	f1b8 0f0a 	cmpeq.w	r8, #10
  403e70:	f080 821c 	bcs.w	4042ac <_svfprintf_r+0xcd0>
  403e74:	f50d 7b80 	add.w	fp, sp, #256	; 0x100
  403e78:	f108 0830 	add.w	r8, r8, #48	; 0x30
  403e7c:	f80b 8d41 	strb.w	r8, [fp, #-65]!
  403e80:	ebcb 0307 	rsb	r3, fp, r7
  403e84:	930d      	str	r3, [sp, #52]	; 0x34
  403e86:	f8cd b040 	str.w	fp, [sp, #64]	; 0x40
  403e8a:	e4bf      	b.n	40380c <_svfprintf_r+0x230>
  403e8c:	2d65      	cmp	r5, #101	; 0x65
  403e8e:	f340 80a0 	ble.w	403fd2 <_svfprintf_r+0x9f6>
  403e92:	9814      	ldr	r0, [sp, #80]	; 0x50
  403e94:	9915      	ldr	r1, [sp, #84]	; 0x54
  403e96:	2200      	movs	r2, #0
  403e98:	2300      	movs	r3, #0
  403e9a:	f7ff fa7b 	bl	403394 <__aeabi_dcmpeq>
  403e9e:	2800      	cmp	r0, #0
  403ea0:	f000 8145 	beq.w	40412e <_svfprintf_r+0xb52>
  403ea4:	9b24      	ldr	r3, [sp, #144]	; 0x90
  403ea6:	4a92      	ldr	r2, [pc, #584]	; (4040f0 <_svfprintf_r+0xb14>)
  403ea8:	6022      	str	r2, [r4, #0]
  403eaa:	3301      	adds	r3, #1
  403eac:	f10b 0b01 	add.w	fp, fp, #1
  403eb0:	2201      	movs	r2, #1
  403eb2:	2b07      	cmp	r3, #7
  403eb4:	f8cd b094 	str.w	fp, [sp, #148]	; 0x94
  403eb8:	9324      	str	r3, [sp, #144]	; 0x90
  403eba:	6062      	str	r2, [r4, #4]
  403ebc:	f300 8334 	bgt.w	404528 <_svfprintf_r+0xf4c>
  403ec0:	3408      	adds	r4, #8
  403ec2:	9b1d      	ldr	r3, [sp, #116]	; 0x74
  403ec4:	9a13      	ldr	r2, [sp, #76]	; 0x4c
  403ec6:	4293      	cmp	r3, r2
  403ec8:	db03      	blt.n	403ed2 <_svfprintf_r+0x8f6>
  403eca:	9b07      	ldr	r3, [sp, #28]
  403ecc:	07da      	lsls	r2, r3, #31
  403ece:	f57f ad7f 	bpl.w	4039d0 <_svfprintf_r+0x3f4>
  403ed2:	9b24      	ldr	r3, [sp, #144]	; 0x90
  403ed4:	9918      	ldr	r1, [sp, #96]	; 0x60
  403ed6:	9a17      	ldr	r2, [sp, #92]	; 0x5c
  403ed8:	6022      	str	r2, [r4, #0]
  403eda:	3301      	adds	r3, #1
  403edc:	448b      	add	fp, r1
  403ede:	2b07      	cmp	r3, #7
  403ee0:	f8cd b094 	str.w	fp, [sp, #148]	; 0x94
  403ee4:	6061      	str	r1, [r4, #4]
  403ee6:	9324      	str	r3, [sp, #144]	; 0x90
  403ee8:	f300 8390 	bgt.w	40460c <_svfprintf_r+0x1030>
  403eec:	3408      	adds	r4, #8
  403eee:	9b13      	ldr	r3, [sp, #76]	; 0x4c
  403ef0:	1e5d      	subs	r5, r3, #1
  403ef2:	2d00      	cmp	r5, #0
  403ef4:	f77f ad6c 	ble.w	4039d0 <_svfprintf_r+0x3f4>
  403ef8:	2d10      	cmp	r5, #16
  403efa:	9b24      	ldr	r3, [sp, #144]	; 0x90
  403efc:	f8df 91f8 	ldr.w	r9, [pc, #504]	; 4040f8 <_svfprintf_r+0xb1c>
  403f00:	f340 81ba 	ble.w	404278 <_svfprintf_r+0xc9c>
  403f04:	f04f 0810 	mov.w	r8, #16
  403f08:	465a      	mov	r2, fp
  403f0a:	f8dd a020 	ldr.w	sl, [sp, #32]
  403f0e:	e004      	b.n	403f1a <_svfprintf_r+0x93e>
  403f10:	3408      	adds	r4, #8
  403f12:	3d10      	subs	r5, #16
  403f14:	2d10      	cmp	r5, #16
  403f16:	f340 81ae 	ble.w	404276 <_svfprintf_r+0xc9a>
  403f1a:	3301      	adds	r3, #1
  403f1c:	3210      	adds	r2, #16
  403f1e:	2b07      	cmp	r3, #7
  403f20:	9225      	str	r2, [sp, #148]	; 0x94
  403f22:	9324      	str	r3, [sp, #144]	; 0x90
  403f24:	f8c4 9000 	str.w	r9, [r4]
  403f28:	f8c4 8004 	str.w	r8, [r4, #4]
  403f2c:	ddf0      	ble.n	403f10 <_svfprintf_r+0x934>
  403f2e:	4650      	mov	r0, sl
  403f30:	4631      	mov	r1, r6
  403f32:	aa23      	add	r2, sp, #140	; 0x8c
  403f34:	f002 ffd4 	bl	406ee0 <__ssprint_r>
  403f38:	2800      	cmp	r0, #0
  403f3a:	f47f ac15 	bne.w	403768 <_svfprintf_r+0x18c>
  403f3e:	9a25      	ldr	r2, [sp, #148]	; 0x94
  403f40:	9b24      	ldr	r3, [sp, #144]	; 0x90
  403f42:	463c      	mov	r4, r7
  403f44:	e7e5      	b.n	403f12 <_svfprintf_r+0x936>
  403f46:	9b0c      	ldr	r3, [sp, #48]	; 0x30
  403f48:	9a09      	ldr	r2, [sp, #36]	; 0x24
  403f4a:	ebc2 0a03 	rsb	sl, r2, r3
  403f4e:	f1ba 0f00 	cmp.w	sl, #0
  403f52:	f77f ace7 	ble.w	403924 <_svfprintf_r+0x348>
  403f56:	f1ba 0f10 	cmp.w	sl, #16
  403f5a:	9a24      	ldr	r2, [sp, #144]	; 0x90
  403f5c:	f8df 9198 	ldr.w	r9, [pc, #408]	; 4040f8 <_svfprintf_r+0xb1c>
  403f60:	dd2b      	ble.n	403fba <_svfprintf_r+0x9de>
  403f62:	4649      	mov	r1, r9
  403f64:	465b      	mov	r3, fp
  403f66:	46a9      	mov	r9, r5
  403f68:	f04f 0810 	mov.w	r8, #16
  403f6c:	f8dd b020 	ldr.w	fp, [sp, #32]
  403f70:	460d      	mov	r5, r1
  403f72:	e006      	b.n	403f82 <_svfprintf_r+0x9a6>
  403f74:	f1aa 0a10 	sub.w	sl, sl, #16
  403f78:	f1ba 0f10 	cmp.w	sl, #16
  403f7c:	f104 0408 	add.w	r4, r4, #8
  403f80:	dd17      	ble.n	403fb2 <_svfprintf_r+0x9d6>
  403f82:	3201      	adds	r2, #1
  403f84:	3310      	adds	r3, #16
  403f86:	2a07      	cmp	r2, #7
  403f88:	9325      	str	r3, [sp, #148]	; 0x94
  403f8a:	9224      	str	r2, [sp, #144]	; 0x90
  403f8c:	e884 0120 	stmia.w	r4, {r5, r8}
  403f90:	ddf0      	ble.n	403f74 <_svfprintf_r+0x998>
  403f92:	4658      	mov	r0, fp
  403f94:	4631      	mov	r1, r6
  403f96:	aa23      	add	r2, sp, #140	; 0x8c
  403f98:	f002 ffa2 	bl	406ee0 <__ssprint_r>
  403f9c:	2800      	cmp	r0, #0
  403f9e:	f47f abe3 	bne.w	403768 <_svfprintf_r+0x18c>
  403fa2:	f1aa 0a10 	sub.w	sl, sl, #16
  403fa6:	f1ba 0f10 	cmp.w	sl, #16
  403faa:	9b25      	ldr	r3, [sp, #148]	; 0x94
  403fac:	9a24      	ldr	r2, [sp, #144]	; 0x90
  403fae:	463c      	mov	r4, r7
  403fb0:	dce7      	bgt.n	403f82 <_svfprintf_r+0x9a6>
  403fb2:	469b      	mov	fp, r3
  403fb4:	462b      	mov	r3, r5
  403fb6:	464d      	mov	r5, r9
  403fb8:	4699      	mov	r9, r3
  403fba:	3201      	adds	r2, #1
  403fbc:	44d3      	add	fp, sl
  403fbe:	2a07      	cmp	r2, #7
  403fc0:	f8cd b094 	str.w	fp, [sp, #148]	; 0x94
  403fc4:	9224      	str	r2, [sp, #144]	; 0x90
  403fc6:	e884 0600 	stmia.w	r4, {r9, sl}
  403fca:	f300 8252 	bgt.w	404472 <_svfprintf_r+0xe96>
  403fce:	3408      	adds	r4, #8
  403fd0:	e4a8      	b.n	403924 <_svfprintf_r+0x348>
  403fd2:	9b13      	ldr	r3, [sp, #76]	; 0x4c
  403fd4:	9d24      	ldr	r5, [sp, #144]	; 0x90
  403fd6:	2b01      	cmp	r3, #1
  403fd8:	f340 8220 	ble.w	40441c <_svfprintf_r+0xe40>
  403fdc:	9b10      	ldr	r3, [sp, #64]	; 0x40
  403fde:	6023      	str	r3, [r4, #0]
  403fe0:	3501      	adds	r5, #1
  403fe2:	f10b 0301 	add.w	r3, fp, #1
  403fe6:	2201      	movs	r2, #1
  403fe8:	2d07      	cmp	r5, #7
  403fea:	9325      	str	r3, [sp, #148]	; 0x94
  403fec:	9524      	str	r5, [sp, #144]	; 0x90
  403fee:	6062      	str	r2, [r4, #4]
  403ff0:	f300 8226 	bgt.w	404440 <_svfprintf_r+0xe64>
  403ff4:	3408      	adds	r4, #8
  403ff6:	9918      	ldr	r1, [sp, #96]	; 0x60
  403ff8:	6061      	str	r1, [r4, #4]
  403ffa:	3501      	adds	r5, #1
  403ffc:	eb03 0b01 	add.w	fp, r3, r1
  404000:	2d07      	cmp	r5, #7
  404002:	9b17      	ldr	r3, [sp, #92]	; 0x5c
  404004:	f8cd b094 	str.w	fp, [sp, #148]	; 0x94
  404008:	9524      	str	r5, [sp, #144]	; 0x90
  40400a:	6023      	str	r3, [r4, #0]
  40400c:	f300 8224 	bgt.w	404458 <_svfprintf_r+0xe7c>
  404010:	3408      	adds	r4, #8
  404012:	2300      	movs	r3, #0
  404014:	9814      	ldr	r0, [sp, #80]	; 0x50
  404016:	9915      	ldr	r1, [sp, #84]	; 0x54
  404018:	2200      	movs	r2, #0
  40401a:	f7ff f9bb 	bl	403394 <__aeabi_dcmpeq>
  40401e:	9b13      	ldr	r3, [sp, #76]	; 0x4c
  404020:	2800      	cmp	r0, #0
  404022:	f040 80de 	bne.w	4041e2 <_svfprintf_r+0xc06>
  404026:	9a10      	ldr	r2, [sp, #64]	; 0x40
  404028:	3b01      	subs	r3, #1
  40402a:	3501      	adds	r5, #1
  40402c:	3201      	adds	r2, #1
  40402e:	449b      	add	fp, r3
  404030:	2d07      	cmp	r5, #7
  404032:	9524      	str	r5, [sp, #144]	; 0x90
  404034:	f8cd b094 	str.w	fp, [sp, #148]	; 0x94
  404038:	6022      	str	r2, [r4, #0]
  40403a:	6063      	str	r3, [r4, #4]
  40403c:	f300 810e 	bgt.w	40425c <_svfprintf_r+0xc80>
  404040:	3408      	adds	r4, #8
  404042:	9a19      	ldr	r2, [sp, #100]	; 0x64
  404044:	6062      	str	r2, [r4, #4]
  404046:	3501      	adds	r5, #1
  404048:	4493      	add	fp, r2
  40404a:	ab1f      	add	r3, sp, #124	; 0x7c
  40404c:	2d07      	cmp	r5, #7
  40404e:	f8cd b094 	str.w	fp, [sp, #148]	; 0x94
  404052:	9524      	str	r5, [sp, #144]	; 0x90
  404054:	6023      	str	r3, [r4, #0]
  404056:	f77f acba 	ble.w	4039ce <_svfprintf_r+0x3f2>
  40405a:	9808      	ldr	r0, [sp, #32]
  40405c:	4631      	mov	r1, r6
  40405e:	aa23      	add	r2, sp, #140	; 0x8c
  404060:	f002 ff3e 	bl	406ee0 <__ssprint_r>
  404064:	2800      	cmp	r0, #0
  404066:	f47f ab7f 	bne.w	403768 <_svfprintf_r+0x18c>
  40406a:	f8dd b094 	ldr.w	fp, [sp, #148]	; 0x94
  40406e:	463c      	mov	r4, r7
  404070:	e4ae      	b.n	4039d0 <_svfprintf_r+0x3f4>
  404072:	2b00      	cmp	r3, #0
  404074:	d132      	bne.n	4040dc <_svfprintf_r+0xb00>
  404076:	9b07      	ldr	r3, [sp, #28]
  404078:	07d8      	lsls	r0, r3, #31
  40407a:	d52f      	bpl.n	4040dc <_svfprintf_r+0xb00>
  40407c:	f50d 7b80 	add.w	fp, sp, #256	; 0x100
  404080:	2330      	movs	r3, #48	; 0x30
  404082:	f80b 3d41 	strb.w	r3, [fp, #-65]!
  404086:	ebcb 0307 	rsb	r3, fp, r7
  40408a:	930d      	str	r3, [sp, #52]	; 0x34
  40408c:	f8cd b040 	str.w	fp, [sp, #64]	; 0x40
  404090:	f7ff bbbc 	b.w	40380c <_svfprintf_r+0x230>
  404094:	9808      	ldr	r0, [sp, #32]
  404096:	4631      	mov	r1, r6
  404098:	aa23      	add	r2, sp, #140	; 0x8c
  40409a:	f002 ff21 	bl	406ee0 <__ssprint_r>
  40409e:	2800      	cmp	r0, #0
  4040a0:	f47f ab62 	bne.w	403768 <_svfprintf_r+0x18c>
  4040a4:	f8dd b094 	ldr.w	fp, [sp, #148]	; 0x94
  4040a8:	463c      	mov	r4, r7
  4040aa:	e47f      	b.n	4039ac <_svfprintf_r+0x3d0>
  4040ac:	9808      	ldr	r0, [sp, #32]
  4040ae:	4631      	mov	r1, r6
  4040b0:	aa23      	add	r2, sp, #140	; 0x8c
  4040b2:	f002 ff15 	bl	406ee0 <__ssprint_r>
  4040b6:	2800      	cmp	r0, #0
  4040b8:	f47f ab56 	bne.w	403768 <_svfprintf_r+0x18c>
  4040bc:	f8dd b094 	ldr.w	fp, [sp, #148]	; 0x94
  4040c0:	463c      	mov	r4, r7
  4040c2:	e41a      	b.n	4038fa <_svfprintf_r+0x31e>
  4040c4:	9808      	ldr	r0, [sp, #32]
  4040c6:	4631      	mov	r1, r6
  4040c8:	aa23      	add	r2, sp, #140	; 0x8c
  4040ca:	f002 ff09 	bl	406ee0 <__ssprint_r>
  4040ce:	2800      	cmp	r0, #0
  4040d0:	f47f ab4a 	bne.w	403768 <_svfprintf_r+0x18c>
  4040d4:	f8dd b094 	ldr.w	fp, [sp, #148]	; 0x94
  4040d8:	463c      	mov	r4, r7
  4040da:	e41f      	b.n	40391c <_svfprintf_r+0x340>
  4040dc:	f8cd a034 	str.w	sl, [sp, #52]	; 0x34
  4040e0:	9710      	str	r7, [sp, #64]	; 0x40
  4040e2:	f7ff bb93 	b.w	40380c <_svfprintf_r+0x230>
  4040e6:	bf00      	nop
  4040e8:	00408024 	.word	0x00408024
  4040ec:	00408044 	.word	0x00408044
  4040f0:	00408060 	.word	0x00408060
  4040f4:	00408020 	.word	0x00408020
  4040f8:	00408000 	.word	0x00408000
  4040fc:	9816      	ldr	r0, [sp, #88]	; 0x58
  4040fe:	46bb      	mov	fp, r7
  404100:	ea4f 1318 	mov.w	r3, r8, lsr #4
  404104:	f008 010f 	and.w	r1, r8, #15
  404108:	ea43 7309 	orr.w	r3, r3, r9, lsl #28
  40410c:	ea4f 1219 	mov.w	r2, r9, lsr #4
  404110:	4698      	mov	r8, r3
  404112:	4691      	mov	r9, r2
  404114:	5c43      	ldrb	r3, [r0, r1]
  404116:	f80b 3d01 	strb.w	r3, [fp, #-1]!
  40411a:	ea58 0309 	orrs.w	r3, r8, r9
  40411e:	d1ef      	bne.n	404100 <_svfprintf_r+0xb24>
  404120:	465b      	mov	r3, fp
  404122:	f8cd b040 	str.w	fp, [sp, #64]	; 0x40
  404126:	1afb      	subs	r3, r7, r3
  404128:	930d      	str	r3, [sp, #52]	; 0x34
  40412a:	f7ff bb6f 	b.w	40380c <_svfprintf_r+0x230>
  40412e:	9d1d      	ldr	r5, [sp, #116]	; 0x74
  404130:	2d00      	cmp	r5, #0
  404132:	f340 8205 	ble.w	404540 <_svfprintf_r+0xf64>
  404136:	9a13      	ldr	r2, [sp, #76]	; 0x4c
  404138:	9912      	ldr	r1, [sp, #72]	; 0x48
  40413a:	428a      	cmp	r2, r1
  40413c:	4613      	mov	r3, r2
  40413e:	bfa8      	it	ge
  404140:	460b      	movge	r3, r1
  404142:	461d      	mov	r5, r3
  404144:	9910      	ldr	r1, [sp, #64]	; 0x40
  404146:	2d00      	cmp	r5, #0
  404148:	eb01 0a02 	add.w	sl, r1, r2
  40414c:	dd0b      	ble.n	404166 <_svfprintf_r+0xb8a>
  40414e:	9b24      	ldr	r3, [sp, #144]	; 0x90
  404150:	6021      	str	r1, [r4, #0]
  404152:	3301      	adds	r3, #1
  404154:	44ab      	add	fp, r5
  404156:	2b07      	cmp	r3, #7
  404158:	f8cd b094 	str.w	fp, [sp, #148]	; 0x94
  40415c:	6065      	str	r5, [r4, #4]
  40415e:	9324      	str	r3, [sp, #144]	; 0x90
  404160:	f300 834d 	bgt.w	4047fe <_svfprintf_r+0x1222>
  404164:	3408      	adds	r4, #8
  404166:	9b12      	ldr	r3, [sp, #72]	; 0x48
  404168:	2d00      	cmp	r5, #0
  40416a:	bfa8      	it	ge
  40416c:	1b5b      	subge	r3, r3, r5
  40416e:	2b00      	cmp	r3, #0
  404170:	461d      	mov	r5, r3
  404172:	f340 80f5 	ble.w	404360 <_svfprintf_r+0xd84>
  404176:	2d10      	cmp	r5, #16
  404178:	9b24      	ldr	r3, [sp, #144]	; 0x90
  40417a:	f8df 95f4 	ldr.w	r9, [pc, #1524]	; 404770 <_svfprintf_r+0x1194>
  40417e:	f340 81c6 	ble.w	40450e <_svfprintf_r+0xf32>
  404182:	465a      	mov	r2, fp
  404184:	f04f 0810 	mov.w	r8, #16
  404188:	f8dd b020 	ldr.w	fp, [sp, #32]
  40418c:	e004      	b.n	404198 <_svfprintf_r+0xbbc>
  40418e:	3408      	adds	r4, #8
  404190:	3d10      	subs	r5, #16
  404192:	2d10      	cmp	r5, #16
  404194:	f340 81ba 	ble.w	40450c <_svfprintf_r+0xf30>
  404198:	3301      	adds	r3, #1
  40419a:	3210      	adds	r2, #16
  40419c:	2b07      	cmp	r3, #7
  40419e:	9225      	str	r2, [sp, #148]	; 0x94
  4041a0:	9324      	str	r3, [sp, #144]	; 0x90
  4041a2:	f8c4 9000 	str.w	r9, [r4]
  4041a6:	f8c4 8004 	str.w	r8, [r4, #4]
  4041aa:	ddf0      	ble.n	40418e <_svfprintf_r+0xbb2>
  4041ac:	4658      	mov	r0, fp
  4041ae:	4631      	mov	r1, r6
  4041b0:	aa23      	add	r2, sp, #140	; 0x8c
  4041b2:	f002 fe95 	bl	406ee0 <__ssprint_r>
  4041b6:	2800      	cmp	r0, #0
  4041b8:	f47f aad6 	bne.w	403768 <_svfprintf_r+0x18c>
  4041bc:	9a25      	ldr	r2, [sp, #148]	; 0x94
  4041be:	9b24      	ldr	r3, [sp, #144]	; 0x90
  4041c0:	463c      	mov	r4, r7
  4041c2:	e7e5      	b.n	404190 <_svfprintf_r+0xbb4>
  4041c4:	9808      	ldr	r0, [sp, #32]
  4041c6:	4631      	mov	r1, r6
  4041c8:	aa23      	add	r2, sp, #140	; 0x8c
  4041ca:	f002 fe89 	bl	406ee0 <__ssprint_r>
  4041ce:	2800      	cmp	r0, #0
  4041d0:	f47f aaca 	bne.w	403768 <_svfprintf_r+0x18c>
  4041d4:	f89d c06f 	ldrb.w	ip, [sp, #111]	; 0x6f
  4041d8:	f8dd b094 	ldr.w	fp, [sp, #148]	; 0x94
  4041dc:	463c      	mov	r4, r7
  4041de:	f7ff bb79 	b.w	4038d4 <_svfprintf_r+0x2f8>
  4041e2:	f103 38ff 	add.w	r8, r3, #4294967295
  4041e6:	f1b8 0f00 	cmp.w	r8, #0
  4041ea:	f77f af2a 	ble.w	404042 <_svfprintf_r+0xa66>
  4041ee:	f1b8 0f10 	cmp.w	r8, #16
  4041f2:	f8df 957c 	ldr.w	r9, [pc, #1404]	; 404770 <_svfprintf_r+0x1194>
  4041f6:	dd25      	ble.n	404244 <_svfprintf_r+0xc68>
  4041f8:	465b      	mov	r3, fp
  4041fa:	f04f 0a10 	mov.w	sl, #16
  4041fe:	f8dd b020 	ldr.w	fp, [sp, #32]
  404202:	e006      	b.n	404212 <_svfprintf_r+0xc36>
  404204:	f1a8 0810 	sub.w	r8, r8, #16
  404208:	f1b8 0f10 	cmp.w	r8, #16
  40420c:	f104 0408 	add.w	r4, r4, #8
  404210:	dd17      	ble.n	404242 <_svfprintf_r+0xc66>
  404212:	3501      	adds	r5, #1
  404214:	3310      	adds	r3, #16
  404216:	2d07      	cmp	r5, #7
  404218:	9325      	str	r3, [sp, #148]	; 0x94
  40421a:	9524      	str	r5, [sp, #144]	; 0x90
  40421c:	e884 0600 	stmia.w	r4, {r9, sl}
  404220:	ddf0      	ble.n	404204 <_svfprintf_r+0xc28>
  404222:	4658      	mov	r0, fp
  404224:	4631      	mov	r1, r6
  404226:	aa23      	add	r2, sp, #140	; 0x8c
  404228:	f002 fe5a 	bl	406ee0 <__ssprint_r>
  40422c:	2800      	cmp	r0, #0
  40422e:	f47f aa9b 	bne.w	403768 <_svfprintf_r+0x18c>
  404232:	f1a8 0810 	sub.w	r8, r8, #16
  404236:	f1b8 0f10 	cmp.w	r8, #16
  40423a:	9b25      	ldr	r3, [sp, #148]	; 0x94
  40423c:	9d24      	ldr	r5, [sp, #144]	; 0x90
  40423e:	463c      	mov	r4, r7
  404240:	dce7      	bgt.n	404212 <_svfprintf_r+0xc36>
  404242:	469b      	mov	fp, r3
  404244:	3501      	adds	r5, #1
  404246:	44c3      	add	fp, r8
  404248:	2d07      	cmp	r5, #7
  40424a:	f8cd b094 	str.w	fp, [sp, #148]	; 0x94
  40424e:	9524      	str	r5, [sp, #144]	; 0x90
  404250:	f8c4 9000 	str.w	r9, [r4]
  404254:	f8c4 8004 	str.w	r8, [r4, #4]
  404258:	f77f aef2 	ble.w	404040 <_svfprintf_r+0xa64>
  40425c:	9808      	ldr	r0, [sp, #32]
  40425e:	4631      	mov	r1, r6
  404260:	aa23      	add	r2, sp, #140	; 0x8c
  404262:	f002 fe3d 	bl	406ee0 <__ssprint_r>
  404266:	2800      	cmp	r0, #0
  404268:	f47f aa7e 	bne.w	403768 <_svfprintf_r+0x18c>
  40426c:	f8dd b094 	ldr.w	fp, [sp, #148]	; 0x94
  404270:	9d24      	ldr	r5, [sp, #144]	; 0x90
  404272:	463c      	mov	r4, r7
  404274:	e6e5      	b.n	404042 <_svfprintf_r+0xa66>
  404276:	4693      	mov	fp, r2
  404278:	3301      	adds	r3, #1
  40427a:	44ab      	add	fp, r5
  40427c:	2b07      	cmp	r3, #7
  40427e:	f8cd b094 	str.w	fp, [sp, #148]	; 0x94
  404282:	9324      	str	r3, [sp, #144]	; 0x90
  404284:	f8c4 9000 	str.w	r9, [r4]
  404288:	6065      	str	r5, [r4, #4]
  40428a:	f77f aba0 	ble.w	4039ce <_svfprintf_r+0x3f2>
  40428e:	e6e4      	b.n	40405a <_svfprintf_r+0xa7e>
  404290:	2b30      	cmp	r3, #48	; 0x30
  404292:	9b10      	ldr	r3, [sp, #64]	; 0x40
  404294:	f43f af47 	beq.w	404126 <_svfprintf_r+0xb4a>
  404298:	3b01      	subs	r3, #1
  40429a:	461a      	mov	r2, r3
  40429c:	9310      	str	r3, [sp, #64]	; 0x40
  40429e:	1aba      	subs	r2, r7, r2
  4042a0:	2330      	movs	r3, #48	; 0x30
  4042a2:	920d      	str	r2, [sp, #52]	; 0x34
  4042a4:	f801 3c01 	strb.w	r3, [r1, #-1]
  4042a8:	f7ff bab0 	b.w	40380c <_svfprintf_r+0x230>
  4042ac:	46bb      	mov	fp, r7
  4042ae:	f8cd c024 	str.w	ip, [sp, #36]	; 0x24
  4042b2:	4640      	mov	r0, r8
  4042b4:	4649      	mov	r1, r9
  4042b6:	220a      	movs	r2, #10
  4042b8:	2300      	movs	r3, #0
  4042ba:	f002 ff15 	bl	4070e8 <__aeabi_uldivmod>
  4042be:	3230      	adds	r2, #48	; 0x30
  4042c0:	4640      	mov	r0, r8
  4042c2:	4649      	mov	r1, r9
  4042c4:	f80b 2d01 	strb.w	r2, [fp, #-1]!
  4042c8:	2300      	movs	r3, #0
  4042ca:	220a      	movs	r2, #10
  4042cc:	f002 ff0c 	bl	4070e8 <__aeabi_uldivmod>
  4042d0:	4680      	mov	r8, r0
  4042d2:	4689      	mov	r9, r1
  4042d4:	ea58 0309 	orrs.w	r3, r8, r9
  4042d8:	d1eb      	bne.n	4042b2 <_svfprintf_r+0xcd6>
  4042da:	465b      	mov	r3, fp
  4042dc:	1afb      	subs	r3, r7, r3
  4042de:	f8dd c024 	ldr.w	ip, [sp, #36]	; 0x24
  4042e2:	f8cd b040 	str.w	fp, [sp, #64]	; 0x40
  4042e6:	930d      	str	r3, [sp, #52]	; 0x34
  4042e8:	f7ff ba90 	b.w	40380c <_svfprintf_r+0x230>
  4042ec:	990e      	ldr	r1, [sp, #56]	; 0x38
  4042ee:	680a      	ldr	r2, [r1, #0]
  4042f0:	3104      	adds	r1, #4
  4042f2:	910e      	str	r1, [sp, #56]	; 0x38
  4042f4:	4690      	mov	r8, r2
  4042f6:	f04f 0900 	mov.w	r9, #0
  4042fa:	f7ff ba54 	b.w	4037a6 <_svfprintf_r+0x1ca>
  4042fe:	990e      	ldr	r1, [sp, #56]	; 0x38
  404300:	680a      	ldr	r2, [r1, #0]
  404302:	3104      	adds	r1, #4
  404304:	2301      	movs	r3, #1
  404306:	910e      	str	r1, [sp, #56]	; 0x38
  404308:	4690      	mov	r8, r2
  40430a:	f04f 0900 	mov.w	r9, #0
  40430e:	f7ff ba4a 	b.w	4037a6 <_svfprintf_r+0x1ca>
  404312:	9a0e      	ldr	r2, [sp, #56]	; 0x38
  404314:	6813      	ldr	r3, [r2, #0]
  404316:	4698      	mov	r8, r3
  404318:	ea4f 79e3 	mov.w	r9, r3, asr #31
  40431c:	4613      	mov	r3, r2
  40431e:	3304      	adds	r3, #4
  404320:	4642      	mov	r2, r8
  404322:	930e      	str	r3, [sp, #56]	; 0x38
  404324:	2a00      	cmp	r2, #0
  404326:	464b      	mov	r3, r9
  404328:	f173 0300 	sbcs.w	r3, r3, #0
  40432c:	f6bf abf5 	bge.w	403b1a <_svfprintf_r+0x53e>
  404330:	f04f 0c2d 	mov.w	ip, #45	; 0x2d
  404334:	f1d8 0800 	rsbs	r8, r8, #0
  404338:	eb69 0949 	sbc.w	r9, r9, r9, lsl #1
  40433c:	f88d c06f 	strb.w	ip, [sp, #111]	; 0x6f
  404340:	f8cd a044 	str.w	sl, [sp, #68]	; 0x44
  404344:	2301      	movs	r3, #1
  404346:	f7ff ba34 	b.w	4037b2 <_svfprintf_r+0x1d6>
  40434a:	9808      	ldr	r0, [sp, #32]
  40434c:	4631      	mov	r1, r6
  40434e:	aa23      	add	r2, sp, #140	; 0x8c
  404350:	f002 fdc6 	bl	406ee0 <__ssprint_r>
  404354:	2800      	cmp	r0, #0
  404356:	f47f aa07 	bne.w	403768 <_svfprintf_r+0x18c>
  40435a:	f8dd b094 	ldr.w	fp, [sp, #148]	; 0x94
  40435e:	463c      	mov	r4, r7
  404360:	9a10      	ldr	r2, [sp, #64]	; 0x40
  404362:	9912      	ldr	r1, [sp, #72]	; 0x48
  404364:	9b1d      	ldr	r3, [sp, #116]	; 0x74
  404366:	440a      	add	r2, r1
  404368:	4690      	mov	r8, r2
  40436a:	9a13      	ldr	r2, [sp, #76]	; 0x4c
  40436c:	4293      	cmp	r3, r2
  40436e:	db46      	blt.n	4043fe <_svfprintf_r+0xe22>
  404370:	9a07      	ldr	r2, [sp, #28]
  404372:	07d0      	lsls	r0, r2, #31
  404374:	d443      	bmi.n	4043fe <_svfprintf_r+0xe22>
  404376:	9a13      	ldr	r2, [sp, #76]	; 0x4c
  404378:	ebc8 050a 	rsb	r5, r8, sl
  40437c:	1ad3      	subs	r3, r2, r3
  40437e:	429d      	cmp	r5, r3
  404380:	bfa8      	it	ge
  404382:	461d      	movge	r5, r3
  404384:	2d00      	cmp	r5, #0
  404386:	dd0c      	ble.n	4043a2 <_svfprintf_r+0xdc6>
  404388:	9a24      	ldr	r2, [sp, #144]	; 0x90
  40438a:	f8c4 8000 	str.w	r8, [r4]
  40438e:	3201      	adds	r2, #1
  404390:	44ab      	add	fp, r5
  404392:	2a07      	cmp	r2, #7
  404394:	f8cd b094 	str.w	fp, [sp, #148]	; 0x94
  404398:	6065      	str	r5, [r4, #4]
  40439a:	9224      	str	r2, [sp, #144]	; 0x90
  40439c:	f300 8267 	bgt.w	40486e <_svfprintf_r+0x1292>
  4043a0:	3408      	adds	r4, #8
  4043a2:	2d00      	cmp	r5, #0
  4043a4:	bfac      	ite	ge
  4043a6:	1b5d      	subge	r5, r3, r5
  4043a8:	461d      	movlt	r5, r3
  4043aa:	2d00      	cmp	r5, #0
  4043ac:	f77f ab10 	ble.w	4039d0 <_svfprintf_r+0x3f4>
  4043b0:	2d10      	cmp	r5, #16
  4043b2:	9b24      	ldr	r3, [sp, #144]	; 0x90
  4043b4:	f8df 93b8 	ldr.w	r9, [pc, #952]	; 404770 <_svfprintf_r+0x1194>
  4043b8:	f77f af5e 	ble.w	404278 <_svfprintf_r+0xc9c>
  4043bc:	f04f 0810 	mov.w	r8, #16
  4043c0:	465a      	mov	r2, fp
  4043c2:	f8dd a020 	ldr.w	sl, [sp, #32]
  4043c6:	e004      	b.n	4043d2 <_svfprintf_r+0xdf6>
  4043c8:	3408      	adds	r4, #8
  4043ca:	3d10      	subs	r5, #16
  4043cc:	2d10      	cmp	r5, #16
  4043ce:	f77f af52 	ble.w	404276 <_svfprintf_r+0xc9a>
  4043d2:	3301      	adds	r3, #1
  4043d4:	3210      	adds	r2, #16
  4043d6:	2b07      	cmp	r3, #7
  4043d8:	9225      	str	r2, [sp, #148]	; 0x94
  4043da:	9324      	str	r3, [sp, #144]	; 0x90
  4043dc:	f8c4 9000 	str.w	r9, [r4]
  4043e0:	f8c4 8004 	str.w	r8, [r4, #4]
  4043e4:	ddf0      	ble.n	4043c8 <_svfprintf_r+0xdec>
  4043e6:	4650      	mov	r0, sl
  4043e8:	4631      	mov	r1, r6
  4043ea:	aa23      	add	r2, sp, #140	; 0x8c
  4043ec:	f002 fd78 	bl	406ee0 <__ssprint_r>
  4043f0:	2800      	cmp	r0, #0
  4043f2:	f47f a9b9 	bne.w	403768 <_svfprintf_r+0x18c>
  4043f6:	9a25      	ldr	r2, [sp, #148]	; 0x94
  4043f8:	9b24      	ldr	r3, [sp, #144]	; 0x90
  4043fa:	463c      	mov	r4, r7
  4043fc:	e7e5      	b.n	4043ca <_svfprintf_r+0xdee>
  4043fe:	9a24      	ldr	r2, [sp, #144]	; 0x90
  404400:	9818      	ldr	r0, [sp, #96]	; 0x60
  404402:	9917      	ldr	r1, [sp, #92]	; 0x5c
  404404:	6021      	str	r1, [r4, #0]
  404406:	3201      	adds	r2, #1
  404408:	4483      	add	fp, r0
  40440a:	2a07      	cmp	r2, #7
  40440c:	f8cd b094 	str.w	fp, [sp, #148]	; 0x94
  404410:	6060      	str	r0, [r4, #4]
  404412:	9224      	str	r2, [sp, #144]	; 0x90
  404414:	f300 820a 	bgt.w	40482c <_svfprintf_r+0x1250>
  404418:	3408      	adds	r4, #8
  40441a:	e7ac      	b.n	404376 <_svfprintf_r+0xd9a>
  40441c:	9b07      	ldr	r3, [sp, #28]
  40441e:	07d9      	lsls	r1, r3, #31
  404420:	f53f addc 	bmi.w	403fdc <_svfprintf_r+0xa00>
  404424:	9b10      	ldr	r3, [sp, #64]	; 0x40
  404426:	6023      	str	r3, [r4, #0]
  404428:	3501      	adds	r5, #1
  40442a:	f10b 0b01 	add.w	fp, fp, #1
  40442e:	2301      	movs	r3, #1
  404430:	2d07      	cmp	r5, #7
  404432:	f8cd b094 	str.w	fp, [sp, #148]	; 0x94
  404436:	9524      	str	r5, [sp, #144]	; 0x90
  404438:	6063      	str	r3, [r4, #4]
  40443a:	f77f ae01 	ble.w	404040 <_svfprintf_r+0xa64>
  40443e:	e70d      	b.n	40425c <_svfprintf_r+0xc80>
  404440:	9808      	ldr	r0, [sp, #32]
  404442:	4631      	mov	r1, r6
  404444:	aa23      	add	r2, sp, #140	; 0x8c
  404446:	f002 fd4b 	bl	406ee0 <__ssprint_r>
  40444a:	2800      	cmp	r0, #0
  40444c:	f47f a98c 	bne.w	403768 <_svfprintf_r+0x18c>
  404450:	9b25      	ldr	r3, [sp, #148]	; 0x94
  404452:	9d24      	ldr	r5, [sp, #144]	; 0x90
  404454:	463c      	mov	r4, r7
  404456:	e5ce      	b.n	403ff6 <_svfprintf_r+0xa1a>
  404458:	9808      	ldr	r0, [sp, #32]
  40445a:	4631      	mov	r1, r6
  40445c:	aa23      	add	r2, sp, #140	; 0x8c
  40445e:	f002 fd3f 	bl	406ee0 <__ssprint_r>
  404462:	2800      	cmp	r0, #0
  404464:	f47f a980 	bne.w	403768 <_svfprintf_r+0x18c>
  404468:	f8dd b094 	ldr.w	fp, [sp, #148]	; 0x94
  40446c:	9d24      	ldr	r5, [sp, #144]	; 0x90
  40446e:	463c      	mov	r4, r7
  404470:	e5cf      	b.n	404012 <_svfprintf_r+0xa36>
  404472:	9808      	ldr	r0, [sp, #32]
  404474:	4631      	mov	r1, r6
  404476:	aa23      	add	r2, sp, #140	; 0x8c
  404478:	f002 fd32 	bl	406ee0 <__ssprint_r>
  40447c:	2800      	cmp	r0, #0
  40447e:	f47f a973 	bne.w	403768 <_svfprintf_r+0x18c>
  404482:	f8dd b094 	ldr.w	fp, [sp, #148]	; 0x94
  404486:	463c      	mov	r4, r7
  404488:	f7ff ba4c 	b.w	403924 <_svfprintf_r+0x348>
  40448c:	f002 fcea 	bl	406e64 <__fpclassifyd>
  404490:	2800      	cmp	r0, #0
  404492:	f040 80c7 	bne.w	404624 <_svfprintf_r+0x1048>
  404496:	4686      	mov	lr, r0
  404498:	4ab2      	ldr	r2, [pc, #712]	; (404764 <_svfprintf_r+0x1188>)
  40449a:	4bb3      	ldr	r3, [pc, #716]	; (404768 <_svfprintf_r+0x118c>)
  40449c:	9011      	str	r0, [sp, #68]	; 0x44
  40449e:	9807      	ldr	r0, [sp, #28]
  4044a0:	f89d c06f 	ldrb.w	ip, [sp, #111]	; 0x6f
  4044a4:	f8cd e048 	str.w	lr, [sp, #72]	; 0x48
  4044a8:	2103      	movs	r1, #3
  4044aa:	f020 0080 	bic.w	r0, r0, #128	; 0x80
  4044ae:	2d47      	cmp	r5, #71	; 0x47
  4044b0:	bfd8      	it	le
  4044b2:	461a      	movle	r2, r3
  4044b4:	9109      	str	r1, [sp, #36]	; 0x24
  4044b6:	9007      	str	r0, [sp, #28]
  4044b8:	9210      	str	r2, [sp, #64]	; 0x40
  4044ba:	910d      	str	r1, [sp, #52]	; 0x34
  4044bc:	f7ff b9ae 	b.w	40381c <_svfprintf_r+0x240>
  4044c0:	9b07      	ldr	r3, [sp, #28]
  4044c2:	9a0e      	ldr	r2, [sp, #56]	; 0x38
  4044c4:	f013 0f40 	tst.w	r3, #64	; 0x40
  4044c8:	4613      	mov	r3, r2
  4044ca:	f43f ac2e 	beq.w	403d2a <_svfprintf_r+0x74e>
  4044ce:	3304      	adds	r3, #4
  4044d0:	f8b2 8000 	ldrh.w	r8, [r2]
  4044d4:	930e      	str	r3, [sp, #56]	; 0x38
  4044d6:	f04f 0900 	mov.w	r9, #0
  4044da:	f7ff bb37 	b.w	403b4c <_svfprintf_r+0x570>
  4044de:	9b07      	ldr	r3, [sp, #28]
  4044e0:	06db      	lsls	r3, r3, #27
  4044e2:	d40b      	bmi.n	4044fc <_svfprintf_r+0xf20>
  4044e4:	9b07      	ldr	r3, [sp, #28]
  4044e6:	065d      	lsls	r5, r3, #25
  4044e8:	d508      	bpl.n	4044fc <_svfprintf_r+0xf20>
  4044ea:	9a0e      	ldr	r2, [sp, #56]	; 0x38
  4044ec:	6813      	ldr	r3, [r2, #0]
  4044ee:	3204      	adds	r2, #4
  4044f0:	920e      	str	r2, [sp, #56]	; 0x38
  4044f2:	f8bd 202c 	ldrh.w	r2, [sp, #44]	; 0x2c
  4044f6:	801a      	strh	r2, [r3, #0]
  4044f8:	f7ff b895 	b.w	403626 <_svfprintf_r+0x4a>
  4044fc:	9a0e      	ldr	r2, [sp, #56]	; 0x38
  4044fe:	6813      	ldr	r3, [r2, #0]
  404500:	3204      	adds	r2, #4
  404502:	920e      	str	r2, [sp, #56]	; 0x38
  404504:	9a0b      	ldr	r2, [sp, #44]	; 0x2c
  404506:	601a      	str	r2, [r3, #0]
  404508:	f7ff b88d 	b.w	403626 <_svfprintf_r+0x4a>
  40450c:	4693      	mov	fp, r2
  40450e:	3301      	adds	r3, #1
  404510:	44ab      	add	fp, r5
  404512:	2b07      	cmp	r3, #7
  404514:	f8cd b094 	str.w	fp, [sp, #148]	; 0x94
  404518:	9324      	str	r3, [sp, #144]	; 0x90
  40451a:	f8c4 9000 	str.w	r9, [r4]
  40451e:	6065      	str	r5, [r4, #4]
  404520:	f73f af13 	bgt.w	40434a <_svfprintf_r+0xd6e>
  404524:	3408      	adds	r4, #8
  404526:	e71b      	b.n	404360 <_svfprintf_r+0xd84>
  404528:	9808      	ldr	r0, [sp, #32]
  40452a:	4631      	mov	r1, r6
  40452c:	aa23      	add	r2, sp, #140	; 0x8c
  40452e:	f002 fcd7 	bl	406ee0 <__ssprint_r>
  404532:	2800      	cmp	r0, #0
  404534:	f47f a918 	bne.w	403768 <_svfprintf_r+0x18c>
  404538:	f8dd b094 	ldr.w	fp, [sp, #148]	; 0x94
  40453c:	463c      	mov	r4, r7
  40453e:	e4c0      	b.n	403ec2 <_svfprintf_r+0x8e6>
  404540:	9b24      	ldr	r3, [sp, #144]	; 0x90
  404542:	4a8a      	ldr	r2, [pc, #552]	; (40476c <_svfprintf_r+0x1190>)
  404544:	6022      	str	r2, [r4, #0]
  404546:	3301      	adds	r3, #1
  404548:	f10b 0b01 	add.w	fp, fp, #1
  40454c:	2201      	movs	r2, #1
  40454e:	2b07      	cmp	r3, #7
  404550:	f8cd b094 	str.w	fp, [sp, #148]	; 0x94
  404554:	9324      	str	r3, [sp, #144]	; 0x90
  404556:	6062      	str	r2, [r4, #4]
  404558:	f300 80f4 	bgt.w	404744 <_svfprintf_r+0x1168>
  40455c:	3408      	adds	r4, #8
  40455e:	b92d      	cbnz	r5, 40456c <_svfprintf_r+0xf90>
  404560:	9b13      	ldr	r3, [sp, #76]	; 0x4c
  404562:	b91b      	cbnz	r3, 40456c <_svfprintf_r+0xf90>
  404564:	9b07      	ldr	r3, [sp, #28]
  404566:	07db      	lsls	r3, r3, #31
  404568:	f57f aa32 	bpl.w	4039d0 <_svfprintf_r+0x3f4>
  40456c:	9b24      	ldr	r3, [sp, #144]	; 0x90
  40456e:	9818      	ldr	r0, [sp, #96]	; 0x60
  404570:	9a17      	ldr	r2, [sp, #92]	; 0x5c
  404572:	6022      	str	r2, [r4, #0]
  404574:	3301      	adds	r3, #1
  404576:	eb0b 0100 	add.w	r1, fp, r0
  40457a:	2b07      	cmp	r3, #7
  40457c:	9125      	str	r1, [sp, #148]	; 0x94
  40457e:	6060      	str	r0, [r4, #4]
  404580:	9324      	str	r3, [sp, #144]	; 0x90
  404582:	f300 81f3 	bgt.w	40496c <_svfprintf_r+0x1390>
  404586:	f104 0208 	add.w	r2, r4, #8
  40458a:	426d      	negs	r5, r5
  40458c:	2d00      	cmp	r5, #0
  40458e:	f340 80fc 	ble.w	40478a <_svfprintf_r+0x11ae>
  404592:	2d10      	cmp	r5, #16
  404594:	f8df 91d8 	ldr.w	r9, [pc, #472]	; 404770 <_svfprintf_r+0x1194>
  404598:	f340 813d 	ble.w	404816 <_svfprintf_r+0x123a>
  40459c:	2410      	movs	r4, #16
  40459e:	f8dd 8020 	ldr.w	r8, [sp, #32]
  4045a2:	e004      	b.n	4045ae <_svfprintf_r+0xfd2>
  4045a4:	3208      	adds	r2, #8
  4045a6:	3d10      	subs	r5, #16
  4045a8:	2d10      	cmp	r5, #16
  4045aa:	f340 8134 	ble.w	404816 <_svfprintf_r+0x123a>
  4045ae:	3301      	adds	r3, #1
  4045b0:	3110      	adds	r1, #16
  4045b2:	2b07      	cmp	r3, #7
  4045b4:	9125      	str	r1, [sp, #148]	; 0x94
  4045b6:	9324      	str	r3, [sp, #144]	; 0x90
  4045b8:	f8c2 9000 	str.w	r9, [r2]
  4045bc:	6054      	str	r4, [r2, #4]
  4045be:	ddf1      	ble.n	4045a4 <_svfprintf_r+0xfc8>
  4045c0:	4640      	mov	r0, r8
  4045c2:	4631      	mov	r1, r6
  4045c4:	aa23      	add	r2, sp, #140	; 0x8c
  4045c6:	f002 fc8b 	bl	406ee0 <__ssprint_r>
  4045ca:	2800      	cmp	r0, #0
  4045cc:	f47f a8cc 	bne.w	403768 <_svfprintf_r+0x18c>
  4045d0:	9925      	ldr	r1, [sp, #148]	; 0x94
  4045d2:	9b24      	ldr	r3, [sp, #144]	; 0x90
  4045d4:	463a      	mov	r2, r7
  4045d6:	e7e6      	b.n	4045a6 <_svfprintf_r+0xfca>
  4045d8:	9b25      	ldr	r3, [sp, #148]	; 0x94
  4045da:	46b1      	mov	r9, r6
  4045dc:	2b00      	cmp	r3, #0
  4045de:	f43f a8c4 	beq.w	40376a <_svfprintf_r+0x18e>
  4045e2:	9808      	ldr	r0, [sp, #32]
  4045e4:	4631      	mov	r1, r6
  4045e6:	aa23      	add	r2, sp, #140	; 0x8c
  4045e8:	f002 fc7a 	bl	406ee0 <__ssprint_r>
  4045ec:	f7ff b8bd 	b.w	40376a <_svfprintf_r+0x18e>
  4045f0:	980c      	ldr	r0, [sp, #48]	; 0x30
  4045f2:	910e      	str	r1, [sp, #56]	; 0x38
  4045f4:	4240      	negs	r0, r0
  4045f6:	900c      	str	r0, [sp, #48]	; 0x30
  4045f8:	4619      	mov	r1, r3
  4045fa:	f7ff ba3f 	b.w	403a7c <_svfprintf_r+0x4a0>
  4045fe:	f041 0120 	orr.w	r1, r1, #32
  404602:	9107      	str	r1, [sp, #28]
  404604:	785d      	ldrb	r5, [r3, #1]
  404606:	1c59      	adds	r1, r3, #1
  404608:	f7ff b83b 	b.w	403682 <_svfprintf_r+0xa6>
  40460c:	9808      	ldr	r0, [sp, #32]
  40460e:	4631      	mov	r1, r6
  404610:	aa23      	add	r2, sp, #140	; 0x8c
  404612:	f002 fc65 	bl	406ee0 <__ssprint_r>
  404616:	2800      	cmp	r0, #0
  404618:	f47f a8a6 	bne.w	403768 <_svfprintf_r+0x18c>
  40461c:	f8dd b094 	ldr.w	fp, [sp, #148]	; 0x94
  404620:	463c      	mov	r4, r7
  404622:	e464      	b.n	403eee <_svfprintf_r+0x912>
  404624:	f025 0320 	bic.w	r3, r5, #32
  404628:	f1ba 3fff 	cmp.w	sl, #4294967295
  40462c:	930d      	str	r3, [sp, #52]	; 0x34
  40462e:	f000 8096 	beq.w	40475e <_svfprintf_r+0x1182>
  404632:	2b47      	cmp	r3, #71	; 0x47
  404634:	d105      	bne.n	404642 <_svfprintf_r+0x1066>
  404636:	f1ba 0f00 	cmp.w	sl, #0
  40463a:	bf14      	ite	ne
  40463c:	46d3      	movne	fp, sl
  40463e:	f04f 0b01 	moveq.w	fp, #1
  404642:	9b07      	ldr	r3, [sp, #28]
  404644:	f443 7380 	orr.w	r3, r3, #256	; 0x100
  404648:	9311      	str	r3, [sp, #68]	; 0x44
  40464a:	9b15      	ldr	r3, [sp, #84]	; 0x54
  40464c:	f1b3 0a00 	subs.w	sl, r3, #0
  404650:	9b14      	ldr	r3, [sp, #80]	; 0x50
  404652:	9309      	str	r3, [sp, #36]	; 0x24
  404654:	bfbb      	ittet	lt
  404656:	4653      	movlt	r3, sl
  404658:	f103 4a00 	addlt.w	sl, r3, #2147483648	; 0x80000000
  40465c:	2300      	movge	r3, #0
  40465e:	232d      	movlt	r3, #45	; 0x2d
  404660:	2d66      	cmp	r5, #102	; 0x66
  404662:	930f      	str	r3, [sp, #60]	; 0x3c
  404664:	f000 80ac 	beq.w	4047c0 <_svfprintf_r+0x11e4>
  404668:	2d46      	cmp	r5, #70	; 0x46
  40466a:	f000 80a9 	beq.w	4047c0 <_svfprintf_r+0x11e4>
  40466e:	9b0d      	ldr	r3, [sp, #52]	; 0x34
  404670:	9a09      	ldr	r2, [sp, #36]	; 0x24
  404672:	2b45      	cmp	r3, #69	; 0x45
  404674:	bf0c      	ite	eq
  404676:	f10b 0901 	addeq.w	r9, fp, #1
  40467a:	46d9      	movne	r9, fp
  40467c:	2002      	movs	r0, #2
  40467e:	a91d      	add	r1, sp, #116	; 0x74
  404680:	e88d 0201 	stmia.w	sp, {r0, r9}
  404684:	9102      	str	r1, [sp, #8]
  404686:	a81e      	add	r0, sp, #120	; 0x78
  404688:	a921      	add	r1, sp, #132	; 0x84
  40468a:	9003      	str	r0, [sp, #12]
  40468c:	4653      	mov	r3, sl
  40468e:	9104      	str	r1, [sp, #16]
  404690:	9808      	ldr	r0, [sp, #32]
  404692:	f000 fa95 	bl	404bc0 <_dtoa_r>
  404696:	2d67      	cmp	r5, #103	; 0x67
  404698:	9010      	str	r0, [sp, #64]	; 0x40
  40469a:	d002      	beq.n	4046a2 <_svfprintf_r+0x10c6>
  40469c:	2d47      	cmp	r5, #71	; 0x47
  40469e:	f040 809f 	bne.w	4047e0 <_svfprintf_r+0x1204>
  4046a2:	9b07      	ldr	r3, [sp, #28]
  4046a4:	07db      	lsls	r3, r3, #31
  4046a6:	f140 8189 	bpl.w	4049bc <_svfprintf_r+0x13e0>
  4046aa:	9b10      	ldr	r3, [sp, #64]	; 0x40
  4046ac:	eb03 0809 	add.w	r8, r3, r9
  4046b0:	9809      	ldr	r0, [sp, #36]	; 0x24
  4046b2:	4651      	mov	r1, sl
  4046b4:	2200      	movs	r2, #0
  4046b6:	2300      	movs	r3, #0
  4046b8:	f7fe fe6c 	bl	403394 <__aeabi_dcmpeq>
  4046bc:	2800      	cmp	r0, #0
  4046be:	f040 80fd 	bne.w	4048bc <_svfprintf_r+0x12e0>
  4046c2:	9b21      	ldr	r3, [sp, #132]	; 0x84
  4046c4:	4598      	cmp	r8, r3
  4046c6:	d906      	bls.n	4046d6 <_svfprintf_r+0x10fa>
  4046c8:	2130      	movs	r1, #48	; 0x30
  4046ca:	1c5a      	adds	r2, r3, #1
  4046cc:	9221      	str	r2, [sp, #132]	; 0x84
  4046ce:	7019      	strb	r1, [r3, #0]
  4046d0:	9b21      	ldr	r3, [sp, #132]	; 0x84
  4046d2:	4598      	cmp	r8, r3
  4046d4:	d8f9      	bhi.n	4046ca <_svfprintf_r+0x10ee>
  4046d6:	9a10      	ldr	r2, [sp, #64]	; 0x40
  4046d8:	1a9b      	subs	r3, r3, r2
  4046da:	9313      	str	r3, [sp, #76]	; 0x4c
  4046dc:	9b0d      	ldr	r3, [sp, #52]	; 0x34
  4046de:	2b47      	cmp	r3, #71	; 0x47
  4046e0:	9b1d      	ldr	r3, [sp, #116]	; 0x74
  4046e2:	f000 80de 	beq.w	4048a2 <_svfprintf_r+0x12c6>
  4046e6:	2d65      	cmp	r5, #101	; 0x65
  4046e8:	f340 80f8 	ble.w	4048dc <_svfprintf_r+0x1300>
  4046ec:	2d66      	cmp	r5, #102	; 0x66
  4046ee:	9312      	str	r3, [sp, #72]	; 0x48
  4046f0:	f000 8157 	beq.w	4049a2 <_svfprintf_r+0x13c6>
  4046f4:	9b13      	ldr	r3, [sp, #76]	; 0x4c
  4046f6:	9a12      	ldr	r2, [sp, #72]	; 0x48
  4046f8:	4293      	cmp	r3, r2
  4046fa:	f300 8144 	bgt.w	404986 <_svfprintf_r+0x13aa>
  4046fe:	9b07      	ldr	r3, [sp, #28]
  404700:	07d9      	lsls	r1, r3, #31
  404702:	f100 8173 	bmi.w	4049ec <_svfprintf_r+0x1410>
  404706:	ea22 73e2 	bic.w	r3, r2, r2, asr #31
  40470a:	920d      	str	r2, [sp, #52]	; 0x34
  40470c:	9a0f      	ldr	r2, [sp, #60]	; 0x3c
  40470e:	2a00      	cmp	r2, #0
  404710:	f040 80bc 	bne.w	40488c <_svfprintf_r+0x12b0>
  404714:	9309      	str	r3, [sp, #36]	; 0x24
  404716:	9b11      	ldr	r3, [sp, #68]	; 0x44
  404718:	9307      	str	r3, [sp, #28]
  40471a:	9211      	str	r2, [sp, #68]	; 0x44
  40471c:	f89d c06f 	ldrb.w	ip, [sp, #111]	; 0x6f
  404720:	f7ff b87c 	b.w	40381c <_svfprintf_r+0x240>
  404724:	9808      	ldr	r0, [sp, #32]
  404726:	2140      	movs	r1, #64	; 0x40
  404728:	f001 fad4 	bl	405cd4 <_malloc_r>
  40472c:	f8c9 0000 	str.w	r0, [r9]
  404730:	f8c9 0010 	str.w	r0, [r9, #16]
  404734:	2800      	cmp	r0, #0
  404736:	f000 818c 	beq.w	404a52 <_svfprintf_r+0x1476>
  40473a:	2340      	movs	r3, #64	; 0x40
  40473c:	f8c9 3014 	str.w	r3, [r9, #20]
  404740:	f7fe bf64 	b.w	40360c <_svfprintf_r+0x30>
  404744:	9808      	ldr	r0, [sp, #32]
  404746:	4631      	mov	r1, r6
  404748:	aa23      	add	r2, sp, #140	; 0x8c
  40474a:	f002 fbc9 	bl	406ee0 <__ssprint_r>
  40474e:	2800      	cmp	r0, #0
  404750:	f47f a80a 	bne.w	403768 <_svfprintf_r+0x18c>
  404754:	9d1d      	ldr	r5, [sp, #116]	; 0x74
  404756:	f8dd b094 	ldr.w	fp, [sp, #148]	; 0x94
  40475a:	463c      	mov	r4, r7
  40475c:	e6ff      	b.n	40455e <_svfprintf_r+0xf82>
  40475e:	f04f 0b06 	mov.w	fp, #6
  404762:	e76e      	b.n	404642 <_svfprintf_r+0x1066>
  404764:	0040802c 	.word	0x0040802c
  404768:	00408028 	.word	0x00408028
  40476c:	00408060 	.word	0x00408060
  404770:	00408000 	.word	0x00408000
  404774:	9808      	ldr	r0, [sp, #32]
  404776:	4631      	mov	r1, r6
  404778:	aa23      	add	r2, sp, #140	; 0x8c
  40477a:	f002 fbb1 	bl	406ee0 <__ssprint_r>
  40477e:	2800      	cmp	r0, #0
  404780:	f47e aff2 	bne.w	403768 <_svfprintf_r+0x18c>
  404784:	9925      	ldr	r1, [sp, #148]	; 0x94
  404786:	9b24      	ldr	r3, [sp, #144]	; 0x90
  404788:	463a      	mov	r2, r7
  40478a:	9c13      	ldr	r4, [sp, #76]	; 0x4c
  40478c:	6054      	str	r4, [r2, #4]
  40478e:	3301      	adds	r3, #1
  404790:	eb01 0b04 	add.w	fp, r1, r4
  404794:	2b07      	cmp	r3, #7
  404796:	9910      	ldr	r1, [sp, #64]	; 0x40
  404798:	f8cd b094 	str.w	fp, [sp, #148]	; 0x94
  40479c:	9324      	str	r3, [sp, #144]	; 0x90
  40479e:	6011      	str	r1, [r2, #0]
  4047a0:	f73f ac5b 	bgt.w	40405a <_svfprintf_r+0xa7e>
  4047a4:	f102 0408 	add.w	r4, r2, #8
  4047a8:	f7ff b912 	b.w	4039d0 <_svfprintf_r+0x3f4>
  4047ac:	f8cd b044 	str.w	fp, [sp, #68]	; 0x44
  4047b0:	f7fe fee6 	bl	403580 <strlen>
  4047b4:	f8cd 9038 	str.w	r9, [sp, #56]	; 0x38
  4047b8:	900d      	str	r0, [sp, #52]	; 0x34
  4047ba:	4603      	mov	r3, r0
  4047bc:	f7ff ba1b 	b.w	403bf6 <_svfprintf_r+0x61a>
  4047c0:	2003      	movs	r0, #3
  4047c2:	a91d      	add	r1, sp, #116	; 0x74
  4047c4:	e88d 0801 	stmia.w	sp, {r0, fp}
  4047c8:	9102      	str	r1, [sp, #8]
  4047ca:	a81e      	add	r0, sp, #120	; 0x78
  4047cc:	a921      	add	r1, sp, #132	; 0x84
  4047ce:	9003      	str	r0, [sp, #12]
  4047d0:	9a09      	ldr	r2, [sp, #36]	; 0x24
  4047d2:	9104      	str	r1, [sp, #16]
  4047d4:	4653      	mov	r3, sl
  4047d6:	9808      	ldr	r0, [sp, #32]
  4047d8:	f000 f9f2 	bl	404bc0 <_dtoa_r>
  4047dc:	46d9      	mov	r9, fp
  4047de:	9010      	str	r0, [sp, #64]	; 0x40
  4047e0:	9b10      	ldr	r3, [sp, #64]	; 0x40
  4047e2:	eb03 0809 	add.w	r8, r3, r9
  4047e6:	9b0d      	ldr	r3, [sp, #52]	; 0x34
  4047e8:	2b46      	cmp	r3, #70	; 0x46
  4047ea:	f47f af61 	bne.w	4046b0 <_svfprintf_r+0x10d4>
  4047ee:	9b10      	ldr	r3, [sp, #64]	; 0x40
  4047f0:	781b      	ldrb	r3, [r3, #0]
  4047f2:	2b30      	cmp	r3, #48	; 0x30
  4047f4:	f000 80e4 	beq.w	4049c0 <_svfprintf_r+0x13e4>
  4047f8:	9b1d      	ldr	r3, [sp, #116]	; 0x74
  4047fa:	4498      	add	r8, r3
  4047fc:	e758      	b.n	4046b0 <_svfprintf_r+0x10d4>
  4047fe:	9808      	ldr	r0, [sp, #32]
  404800:	4631      	mov	r1, r6
  404802:	aa23      	add	r2, sp, #140	; 0x8c
  404804:	f002 fb6c 	bl	406ee0 <__ssprint_r>
  404808:	2800      	cmp	r0, #0
  40480a:	f47e afad 	bne.w	403768 <_svfprintf_r+0x18c>
  40480e:	f8dd b094 	ldr.w	fp, [sp, #148]	; 0x94
  404812:	463c      	mov	r4, r7
  404814:	e4a7      	b.n	404166 <_svfprintf_r+0xb8a>
  404816:	3301      	adds	r3, #1
  404818:	4429      	add	r1, r5
  40481a:	2b07      	cmp	r3, #7
  40481c:	9125      	str	r1, [sp, #148]	; 0x94
  40481e:	9324      	str	r3, [sp, #144]	; 0x90
  404820:	f8c2 9000 	str.w	r9, [r2]
  404824:	6055      	str	r5, [r2, #4]
  404826:	dca5      	bgt.n	404774 <_svfprintf_r+0x1198>
  404828:	3208      	adds	r2, #8
  40482a:	e7ae      	b.n	40478a <_svfprintf_r+0x11ae>
  40482c:	9808      	ldr	r0, [sp, #32]
  40482e:	4631      	mov	r1, r6
  404830:	aa23      	add	r2, sp, #140	; 0x8c
  404832:	f002 fb55 	bl	406ee0 <__ssprint_r>
  404836:	2800      	cmp	r0, #0
  404838:	f47e af96 	bne.w	403768 <_svfprintf_r+0x18c>
  40483c:	9b1d      	ldr	r3, [sp, #116]	; 0x74
  40483e:	f8dd b094 	ldr.w	fp, [sp, #148]	; 0x94
  404842:	463c      	mov	r4, r7
  404844:	e597      	b.n	404376 <_svfprintf_r+0xd9a>
  404846:	4653      	mov	r3, sl
  404848:	2b06      	cmp	r3, #6
  40484a:	bf28      	it	cs
  40484c:	2306      	movcs	r3, #6
  40484e:	930d      	str	r3, [sp, #52]	; 0x34
  404850:	ea23 73e3 	bic.w	r3, r3, r3, asr #31
  404854:	f8dd c040 	ldr.w	ip, [sp, #64]	; 0x40
  404858:	9309      	str	r3, [sp, #36]	; 0x24
  40485a:	4b83      	ldr	r3, [pc, #524]	; (404a68 <_svfprintf_r+0x148c>)
  40485c:	f8cd 9038 	str.w	r9, [sp, #56]	; 0x38
  404860:	f8cd c044 	str.w	ip, [sp, #68]	; 0x44
  404864:	f8cd c048 	str.w	ip, [sp, #72]	; 0x48
  404868:	9310      	str	r3, [sp, #64]	; 0x40
  40486a:	f7fe bfd7 	b.w	40381c <_svfprintf_r+0x240>
  40486e:	9808      	ldr	r0, [sp, #32]
  404870:	4631      	mov	r1, r6
  404872:	aa23      	add	r2, sp, #140	; 0x8c
  404874:	f002 fb34 	bl	406ee0 <__ssprint_r>
  404878:	2800      	cmp	r0, #0
  40487a:	f47e af75 	bne.w	403768 <_svfprintf_r+0x18c>
  40487e:	9b1d      	ldr	r3, [sp, #116]	; 0x74
  404880:	9a13      	ldr	r2, [sp, #76]	; 0x4c
  404882:	f8dd b094 	ldr.w	fp, [sp, #148]	; 0x94
  404886:	1ad3      	subs	r3, r2, r3
  404888:	463c      	mov	r4, r7
  40488a:	e58a      	b.n	4043a2 <_svfprintf_r+0xdc6>
  40488c:	9309      	str	r3, [sp, #36]	; 0x24
  40488e:	9b11      	ldr	r3, [sp, #68]	; 0x44
  404890:	9307      	str	r3, [sp, #28]
  404892:	f04f 0c2d 	mov.w	ip, #45	; 0x2d
  404896:	2300      	movs	r3, #0
  404898:	f88d c06f 	strb.w	ip, [sp, #111]	; 0x6f
  40489c:	9311      	str	r3, [sp, #68]	; 0x44
  40489e:	f7fe bfc0 	b.w	403822 <_svfprintf_r+0x246>
  4048a2:	1cda      	adds	r2, r3, #3
  4048a4:	db19      	blt.n	4048da <_svfprintf_r+0x12fe>
  4048a6:	459b      	cmp	fp, r3
  4048a8:	db17      	blt.n	4048da <_svfprintf_r+0x12fe>
  4048aa:	9312      	str	r3, [sp, #72]	; 0x48
  4048ac:	2567      	movs	r5, #103	; 0x67
  4048ae:	e721      	b.n	4046f4 <_svfprintf_r+0x1118>
  4048b0:	f04f 0c2d 	mov.w	ip, #45	; 0x2d
  4048b4:	f88d c06f 	strb.w	ip, [sp, #111]	; 0x6f
  4048b8:	f7ff ba98 	b.w	403dec <_svfprintf_r+0x810>
  4048bc:	4643      	mov	r3, r8
  4048be:	e70a      	b.n	4046d6 <_svfprintf_r+0x10fa>
  4048c0:	ea2a 73ea 	bic.w	r3, sl, sl, asr #31
  4048c4:	9011      	str	r0, [sp, #68]	; 0x44
  4048c6:	f8cd 9038 	str.w	r9, [sp, #56]	; 0x38
  4048ca:	9012      	str	r0, [sp, #72]	; 0x48
  4048cc:	f89d c06f 	ldrb.w	ip, [sp, #111]	; 0x6f
  4048d0:	9309      	str	r3, [sp, #36]	; 0x24
  4048d2:	f8cd a034 	str.w	sl, [sp, #52]	; 0x34
  4048d6:	f7fe bfa1 	b.w	40381c <_svfprintf_r+0x240>
  4048da:	3d02      	subs	r5, #2
  4048dc:	3b01      	subs	r3, #1
  4048de:	2b00      	cmp	r3, #0
  4048e0:	931d      	str	r3, [sp, #116]	; 0x74
  4048e2:	bfba      	itte	lt
  4048e4:	425b      	neglt	r3, r3
  4048e6:	222d      	movlt	r2, #45	; 0x2d
  4048e8:	222b      	movge	r2, #43	; 0x2b
  4048ea:	2b09      	cmp	r3, #9
  4048ec:	f88d 507c 	strb.w	r5, [sp, #124]	; 0x7c
  4048f0:	f88d 207d 	strb.w	r2, [sp, #125]	; 0x7d
  4048f4:	dd72      	ble.n	4049dc <_svfprintf_r+0x1400>
  4048f6:	f10d 0e8b 	add.w	lr, sp, #139	; 0x8b
  4048fa:	4670      	mov	r0, lr
  4048fc:	4a5b      	ldr	r2, [pc, #364]	; (404a6c <_svfprintf_r+0x1490>)
  4048fe:	fb82 2103 	smull	r2, r1, r2, r3
  404902:	17da      	asrs	r2, r3, #31
  404904:	ebc2 02a1 	rsb	r2, r2, r1, asr #2
  404908:	eb02 0182 	add.w	r1, r2, r2, lsl #2
  40490c:	eba3 0341 	sub.w	r3, r3, r1, lsl #1
  404910:	f103 0130 	add.w	r1, r3, #48	; 0x30
  404914:	2a09      	cmp	r2, #9
  404916:	4613      	mov	r3, r2
  404918:	f800 1d01 	strb.w	r1, [r0, #-1]!
  40491c:	dcee      	bgt.n	4048fc <_svfprintf_r+0x1320>
  40491e:	4602      	mov	r2, r0
  404920:	3330      	adds	r3, #48	; 0x30
  404922:	b2d9      	uxtb	r1, r3
  404924:	f802 1d01 	strb.w	r1, [r2, #-1]!
  404928:	4596      	cmp	lr, r2
  40492a:	f240 8099 	bls.w	404a60 <_svfprintf_r+0x1484>
  40492e:	f10d 027e 	add.w	r2, sp, #126	; 0x7e
  404932:	4603      	mov	r3, r0
  404934:	e001      	b.n	40493a <_svfprintf_r+0x135e>
  404936:	f813 1b01 	ldrb.w	r1, [r3], #1
  40493a:	f802 1b01 	strb.w	r1, [r2], #1
  40493e:	4573      	cmp	r3, lr
  404940:	d1f9      	bne.n	404936 <_svfprintf_r+0x135a>
  404942:	ab23      	add	r3, sp, #140	; 0x8c
  404944:	1a1b      	subs	r3, r3, r0
  404946:	f10d 027e 	add.w	r2, sp, #126	; 0x7e
  40494a:	4413      	add	r3, r2
  40494c:	aa1f      	add	r2, sp, #124	; 0x7c
  40494e:	1a9b      	subs	r3, r3, r2
  404950:	9a13      	ldr	r2, [sp, #76]	; 0x4c
  404952:	9319      	str	r3, [sp, #100]	; 0x64
  404954:	2a01      	cmp	r2, #1
  404956:	4413      	add	r3, r2
  404958:	930d      	str	r3, [sp, #52]	; 0x34
  40495a:	dd6b      	ble.n	404a34 <_svfprintf_r+0x1458>
  40495c:	9b0d      	ldr	r3, [sp, #52]	; 0x34
  40495e:	2200      	movs	r2, #0
  404960:	3301      	adds	r3, #1
  404962:	930d      	str	r3, [sp, #52]	; 0x34
  404964:	9212      	str	r2, [sp, #72]	; 0x48
  404966:	ea23 73e3 	bic.w	r3, r3, r3, asr #31
  40496a:	e6cf      	b.n	40470c <_svfprintf_r+0x1130>
  40496c:	9808      	ldr	r0, [sp, #32]
  40496e:	4631      	mov	r1, r6
  404970:	aa23      	add	r2, sp, #140	; 0x8c
  404972:	f002 fab5 	bl	406ee0 <__ssprint_r>
  404976:	2800      	cmp	r0, #0
  404978:	f47e aef6 	bne.w	403768 <_svfprintf_r+0x18c>
  40497c:	9d1d      	ldr	r5, [sp, #116]	; 0x74
  40497e:	9925      	ldr	r1, [sp, #148]	; 0x94
  404980:	9b24      	ldr	r3, [sp, #144]	; 0x90
  404982:	463a      	mov	r2, r7
  404984:	e601      	b.n	40458a <_svfprintf_r+0xfae>
  404986:	9b12      	ldr	r3, [sp, #72]	; 0x48
  404988:	2b00      	cmp	r3, #0
  40498a:	bfd8      	it	le
  40498c:	f1c3 0802 	rsble	r8, r3, #2
  404990:	9b13      	ldr	r3, [sp, #76]	; 0x4c
  404992:	bfc8      	it	gt
  404994:	f04f 0801 	movgt.w	r8, #1
  404998:	4443      	add	r3, r8
  40499a:	930d      	str	r3, [sp, #52]	; 0x34
  40499c:	ea23 73e3 	bic.w	r3, r3, r3, asr #31
  4049a0:	e6b4      	b.n	40470c <_svfprintf_r+0x1130>
  4049a2:	2b00      	cmp	r3, #0
  4049a4:	dd30      	ble.n	404a08 <_svfprintf_r+0x142c>
  4049a6:	f1bb 0f00 	cmp.w	fp, #0
  4049aa:	d125      	bne.n	4049f8 <_svfprintf_r+0x141c>
  4049ac:	9b07      	ldr	r3, [sp, #28]
  4049ae:	07db      	lsls	r3, r3, #31
  4049b0:	d422      	bmi.n	4049f8 <_svfprintf_r+0x141c>
  4049b2:	9a12      	ldr	r2, [sp, #72]	; 0x48
  4049b4:	920d      	str	r2, [sp, #52]	; 0x34
  4049b6:	ea22 73e2 	bic.w	r3, r2, r2, asr #31
  4049ba:	e6a7      	b.n	40470c <_svfprintf_r+0x1130>
  4049bc:	9b21      	ldr	r3, [sp, #132]	; 0x84
  4049be:	e68a      	b.n	4046d6 <_svfprintf_r+0x10fa>
  4049c0:	9809      	ldr	r0, [sp, #36]	; 0x24
  4049c2:	4651      	mov	r1, sl
  4049c4:	2200      	movs	r2, #0
  4049c6:	2300      	movs	r3, #0
  4049c8:	f7fe fce4 	bl	403394 <__aeabi_dcmpeq>
  4049cc:	2800      	cmp	r0, #0
  4049ce:	f47f af13 	bne.w	4047f8 <_svfprintf_r+0x121c>
  4049d2:	f1c9 0301 	rsb	r3, r9, #1
  4049d6:	931d      	str	r3, [sp, #116]	; 0x74
  4049d8:	4498      	add	r8, r3
  4049da:	e669      	b.n	4046b0 <_svfprintf_r+0x10d4>
  4049dc:	3330      	adds	r3, #48	; 0x30
  4049de:	2230      	movs	r2, #48	; 0x30
  4049e0:	f88d 307f 	strb.w	r3, [sp, #127]	; 0x7f
  4049e4:	f88d 207e 	strb.w	r2, [sp, #126]	; 0x7e
  4049e8:	ab20      	add	r3, sp, #128	; 0x80
  4049ea:	e7af      	b.n	40494c <_svfprintf_r+0x1370>
  4049ec:	9b12      	ldr	r3, [sp, #72]	; 0x48
  4049ee:	3301      	adds	r3, #1
  4049f0:	930d      	str	r3, [sp, #52]	; 0x34
  4049f2:	ea23 73e3 	bic.w	r3, r3, r3, asr #31
  4049f6:	e689      	b.n	40470c <_svfprintf_r+0x1130>
  4049f8:	9b12      	ldr	r3, [sp, #72]	; 0x48
  4049fa:	f10b 0801 	add.w	r8, fp, #1
  4049fe:	4443      	add	r3, r8
  404a00:	930d      	str	r3, [sp, #52]	; 0x34
  404a02:	ea23 73e3 	bic.w	r3, r3, r3, asr #31
  404a06:	e681      	b.n	40470c <_svfprintf_r+0x1130>
  404a08:	f1bb 0f00 	cmp.w	fp, #0
  404a0c:	d11b      	bne.n	404a46 <_svfprintf_r+0x146a>
  404a0e:	9b07      	ldr	r3, [sp, #28]
  404a10:	07d8      	lsls	r0, r3, #31
  404a12:	d418      	bmi.n	404a46 <_svfprintf_r+0x146a>
  404a14:	2301      	movs	r3, #1
  404a16:	930d      	str	r3, [sp, #52]	; 0x34
  404a18:	e678      	b.n	40470c <_svfprintf_r+0x1130>
  404a1a:	9d0e      	ldr	r5, [sp, #56]	; 0x38
  404a1c:	f8d5 a000 	ldr.w	sl, [r5]
  404a20:	4628      	mov	r0, r5
  404a22:	3004      	adds	r0, #4
  404a24:	f1ba 0f00 	cmp.w	sl, #0
  404a28:	785d      	ldrb	r5, [r3, #1]
  404a2a:	900e      	str	r0, [sp, #56]	; 0x38
  404a2c:	f6be ae29 	bge.w	403682 <_svfprintf_r+0xa6>
  404a30:	f7fe be25 	b.w	40367e <_svfprintf_r+0xa2>
  404a34:	9b07      	ldr	r3, [sp, #28]
  404a36:	f013 0301 	ands.w	r3, r3, #1
  404a3a:	d18f      	bne.n	40495c <_svfprintf_r+0x1380>
  404a3c:	9312      	str	r3, [sp, #72]	; 0x48
  404a3e:	9b0d      	ldr	r3, [sp, #52]	; 0x34
  404a40:	ea23 73e3 	bic.w	r3, r3, r3, asr #31
  404a44:	e662      	b.n	40470c <_svfprintf_r+0x1130>
  404a46:	f10b 0302 	add.w	r3, fp, #2
  404a4a:	930d      	str	r3, [sp, #52]	; 0x34
  404a4c:	ea23 73e3 	bic.w	r3, r3, r3, asr #31
  404a50:	e65c      	b.n	40470c <_svfprintf_r+0x1130>
  404a52:	9a08      	ldr	r2, [sp, #32]
  404a54:	230c      	movs	r3, #12
  404a56:	6013      	str	r3, [r2, #0]
  404a58:	f04f 30ff 	mov.w	r0, #4294967295
  404a5c:	f7fe be8e 	b.w	40377c <_svfprintf_r+0x1a0>
  404a60:	f10d 037e 	add.w	r3, sp, #126	; 0x7e
  404a64:	e772      	b.n	40494c <_svfprintf_r+0x1370>
  404a66:	bf00      	nop
  404a68:	00408058 	.word	0x00408058
  404a6c:	66666667 	.word	0x66666667

00404a70 <register_fini>:
  404a70:	4b02      	ldr	r3, [pc, #8]	; (404a7c <register_fini+0xc>)
  404a72:	b113      	cbz	r3, 404a7a <register_fini+0xa>
  404a74:	4802      	ldr	r0, [pc, #8]	; (404a80 <register_fini+0x10>)
  404a76:	f000 b805 	b.w	404a84 <atexit>
  404a7a:	4770      	bx	lr
  404a7c:	00000000 	.word	0x00000000
  404a80:	00405a55 	.word	0x00405a55

00404a84 <atexit>:
  404a84:	4601      	mov	r1, r0
  404a86:	2000      	movs	r0, #0
  404a88:	4602      	mov	r2, r0
  404a8a:	4603      	mov	r3, r0
  404a8c:	f002 baaa 	b.w	406fe4 <__register_exitproc>

00404a90 <quorem>:
  404a90:	6902      	ldr	r2, [r0, #16]
  404a92:	690b      	ldr	r3, [r1, #16]
  404a94:	4293      	cmp	r3, r2
  404a96:	f300 808f 	bgt.w	404bb8 <quorem+0x128>
  404a9a:	e92d 4ff0 	stmdb	sp!, {r4, r5, r6, r7, r8, r9, sl, fp, lr}
  404a9e:	f103 38ff 	add.w	r8, r3, #4294967295
  404aa2:	f101 0714 	add.w	r7, r1, #20
  404aa6:	f100 0b14 	add.w	fp, r0, #20
  404aaa:	f857 2028 	ldr.w	r2, [r7, r8, lsl #2]
  404aae:	f85b 3028 	ldr.w	r3, [fp, r8, lsl #2]
  404ab2:	ea4f 0488 	mov.w	r4, r8, lsl #2
  404ab6:	b083      	sub	sp, #12
  404ab8:	3201      	adds	r2, #1
  404aba:	fbb3 f9f2 	udiv	r9, r3, r2
  404abe:	eb0b 0304 	add.w	r3, fp, r4
  404ac2:	9400      	str	r4, [sp, #0]
  404ac4:	eb07 0a04 	add.w	sl, r7, r4
  404ac8:	9301      	str	r3, [sp, #4]
  404aca:	f1b9 0f00 	cmp.w	r9, #0
  404ace:	d03b      	beq.n	404b48 <quorem+0xb8>
  404ad0:	2600      	movs	r6, #0
  404ad2:	4632      	mov	r2, r6
  404ad4:	46bc      	mov	ip, r7
  404ad6:	46de      	mov	lr, fp
  404ad8:	4634      	mov	r4, r6
  404ada:	f85c 6b04 	ldr.w	r6, [ip], #4
  404ade:	f8de 5000 	ldr.w	r5, [lr]
  404ae2:	b2b3      	uxth	r3, r6
  404ae4:	0c36      	lsrs	r6, r6, #16
  404ae6:	fb03 4409 	mla	r4, r3, r9, r4
  404aea:	fb06 f609 	mul.w	r6, r6, r9
  404aee:	eb06 4614 	add.w	r6, r6, r4, lsr #16
  404af2:	b2a3      	uxth	r3, r4
  404af4:	1ad3      	subs	r3, r2, r3
  404af6:	b2b4      	uxth	r4, r6
  404af8:	fa13 f385 	uxtah	r3, r3, r5
  404afc:	ebc4 4415 	rsb	r4, r4, r5, lsr #16
  404b00:	eb04 4423 	add.w	r4, r4, r3, asr #16
  404b04:	b29b      	uxth	r3, r3
  404b06:	ea43 4304 	orr.w	r3, r3, r4, lsl #16
  404b0a:	45e2      	cmp	sl, ip
  404b0c:	ea4f 4224 	mov.w	r2, r4, asr #16
  404b10:	f84e 3b04 	str.w	r3, [lr], #4
  404b14:	ea4f 4416 	mov.w	r4, r6, lsr #16
  404b18:	d2df      	bcs.n	404ada <quorem+0x4a>
  404b1a:	9b00      	ldr	r3, [sp, #0]
  404b1c:	f85b 3003 	ldr.w	r3, [fp, r3]
  404b20:	b993      	cbnz	r3, 404b48 <quorem+0xb8>
  404b22:	9c01      	ldr	r4, [sp, #4]
  404b24:	1f23      	subs	r3, r4, #4
  404b26:	459b      	cmp	fp, r3
  404b28:	d20c      	bcs.n	404b44 <quorem+0xb4>
  404b2a:	f854 3c04 	ldr.w	r3, [r4, #-4]
  404b2e:	b94b      	cbnz	r3, 404b44 <quorem+0xb4>
  404b30:	f1a4 0308 	sub.w	r3, r4, #8
  404b34:	e002      	b.n	404b3c <quorem+0xac>
  404b36:	681a      	ldr	r2, [r3, #0]
  404b38:	3b04      	subs	r3, #4
  404b3a:	b91a      	cbnz	r2, 404b44 <quorem+0xb4>
  404b3c:	459b      	cmp	fp, r3
  404b3e:	f108 38ff 	add.w	r8, r8, #4294967295
  404b42:	d3f8      	bcc.n	404b36 <quorem+0xa6>
  404b44:	f8c0 8010 	str.w	r8, [r0, #16]
  404b48:	4604      	mov	r4, r0
  404b4a:	f001 feab 	bl	4068a4 <__mcmp>
  404b4e:	2800      	cmp	r0, #0
  404b50:	db2e      	blt.n	404bb0 <quorem+0x120>
  404b52:	f109 0901 	add.w	r9, r9, #1
  404b56:	465d      	mov	r5, fp
  404b58:	2300      	movs	r3, #0
  404b5a:	f857 1b04 	ldr.w	r1, [r7], #4
  404b5e:	6828      	ldr	r0, [r5, #0]
  404b60:	b28a      	uxth	r2, r1
  404b62:	1a9a      	subs	r2, r3, r2
  404b64:	0c09      	lsrs	r1, r1, #16
  404b66:	fa12 f280 	uxtah	r2, r2, r0
  404b6a:	ebc1 4310 	rsb	r3, r1, r0, lsr #16
  404b6e:	eb03 4322 	add.w	r3, r3, r2, asr #16
  404b72:	b291      	uxth	r1, r2
  404b74:	ea41 4103 	orr.w	r1, r1, r3, lsl #16
  404b78:	45ba      	cmp	sl, r7
  404b7a:	f845 1b04 	str.w	r1, [r5], #4
  404b7e:	ea4f 4323 	mov.w	r3, r3, asr #16
  404b82:	d2ea      	bcs.n	404b5a <quorem+0xca>
  404b84:	f85b 2028 	ldr.w	r2, [fp, r8, lsl #2]
  404b88:	eb0b 0388 	add.w	r3, fp, r8, lsl #2
  404b8c:	b982      	cbnz	r2, 404bb0 <quorem+0x120>
  404b8e:	1f1a      	subs	r2, r3, #4
  404b90:	4593      	cmp	fp, r2
  404b92:	d20b      	bcs.n	404bac <quorem+0x11c>
  404b94:	f853 2c04 	ldr.w	r2, [r3, #-4]
  404b98:	b942      	cbnz	r2, 404bac <quorem+0x11c>
  404b9a:	3b08      	subs	r3, #8
  404b9c:	e002      	b.n	404ba4 <quorem+0x114>
  404b9e:	681a      	ldr	r2, [r3, #0]
  404ba0:	3b04      	subs	r3, #4
  404ba2:	b91a      	cbnz	r2, 404bac <quorem+0x11c>
  404ba4:	459b      	cmp	fp, r3
  404ba6:	f108 38ff 	add.w	r8, r8, #4294967295
  404baa:	d3f8      	bcc.n	404b9e <quorem+0x10e>
  404bac:	f8c4 8010 	str.w	r8, [r4, #16]
  404bb0:	4648      	mov	r0, r9
  404bb2:	b003      	add	sp, #12
  404bb4:	e8bd 8ff0 	ldmia.w	sp!, {r4, r5, r6, r7, r8, r9, sl, fp, pc}
  404bb8:	2000      	movs	r0, #0
  404bba:	4770      	bx	lr
  404bbc:	0000      	movs	r0, r0
	...

00404bc0 <_dtoa_r>:
  404bc0:	e92d 4ff0 	stmdb	sp!, {r4, r5, r6, r7, r8, r9, sl, fp, lr}
  404bc4:	6c01      	ldr	r1, [r0, #64]	; 0x40
  404bc6:	b097      	sub	sp, #92	; 0x5c
  404bc8:	4604      	mov	r4, r0
  404bca:	9d23      	ldr	r5, [sp, #140]	; 0x8c
  404bcc:	e9cd 2302 	strd	r2, r3, [sp, #8]
  404bd0:	b141      	cbz	r1, 404be4 <_dtoa_r+0x24>
  404bd2:	6c42      	ldr	r2, [r0, #68]	; 0x44
  404bd4:	604a      	str	r2, [r1, #4]
  404bd6:	2301      	movs	r3, #1
  404bd8:	4093      	lsls	r3, r2
  404bda:	608b      	str	r3, [r1, #8]
  404bdc:	f001 fc7e 	bl	4064dc <_Bfree>
  404be0:	2300      	movs	r3, #0
  404be2:	6423      	str	r3, [r4, #64]	; 0x40
  404be4:	e9dd 2302 	ldrd	r2, r3, [sp, #8]
  404be8:	2b00      	cmp	r3, #0
  404bea:	4699      	mov	r9, r3
  404bec:	db36      	blt.n	404c5c <_dtoa_r+0x9c>
  404bee:	2300      	movs	r3, #0
  404bf0:	602b      	str	r3, [r5, #0]
  404bf2:	4ba5      	ldr	r3, [pc, #660]	; (404e88 <_dtoa_r+0x2c8>)
  404bf4:	461a      	mov	r2, r3
  404bf6:	ea09 0303 	and.w	r3, r9, r3
  404bfa:	4293      	cmp	r3, r2
  404bfc:	d017      	beq.n	404c2e <_dtoa_r+0x6e>
  404bfe:	e9dd 6702 	ldrd	r6, r7, [sp, #8]
  404c02:	2200      	movs	r2, #0
  404c04:	4630      	mov	r0, r6
  404c06:	4639      	mov	r1, r7
  404c08:	2300      	movs	r3, #0
  404c0a:	f7fe fbc3 	bl	403394 <__aeabi_dcmpeq>
  404c0e:	4680      	mov	r8, r0
  404c10:	2800      	cmp	r0, #0
  404c12:	d02b      	beq.n	404c6c <_dtoa_r+0xac>
  404c14:	9a22      	ldr	r2, [sp, #136]	; 0x88
  404c16:	2301      	movs	r3, #1
  404c18:	6013      	str	r3, [r2, #0]
  404c1a:	9b24      	ldr	r3, [sp, #144]	; 0x90
  404c1c:	2b00      	cmp	r3, #0
  404c1e:	f000 80cb 	beq.w	404db8 <_dtoa_r+0x1f8>
  404c22:	489a      	ldr	r0, [pc, #616]	; (404e8c <_dtoa_r+0x2cc>)
  404c24:	6018      	str	r0, [r3, #0]
  404c26:	3801      	subs	r0, #1
  404c28:	b017      	add	sp, #92	; 0x5c
  404c2a:	e8bd 8ff0 	ldmia.w	sp!, {r4, r5, r6, r7, r8, r9, sl, fp, pc}
  404c2e:	9a22      	ldr	r2, [sp, #136]	; 0x88
  404c30:	f242 730f 	movw	r3, #9999	; 0x270f
  404c34:	6013      	str	r3, [r2, #0]
  404c36:	9b02      	ldr	r3, [sp, #8]
  404c38:	2b00      	cmp	r3, #0
  404c3a:	f000 80a6 	beq.w	404d8a <_dtoa_r+0x1ca>
  404c3e:	4894      	ldr	r0, [pc, #592]	; (404e90 <_dtoa_r+0x2d0>)
  404c40:	9b24      	ldr	r3, [sp, #144]	; 0x90
  404c42:	2b00      	cmp	r3, #0
  404c44:	d0f0      	beq.n	404c28 <_dtoa_r+0x68>
  404c46:	78c3      	ldrb	r3, [r0, #3]
  404c48:	2b00      	cmp	r3, #0
  404c4a:	f000 80b7 	beq.w	404dbc <_dtoa_r+0x1fc>
  404c4e:	f100 0308 	add.w	r3, r0, #8
  404c52:	9a24      	ldr	r2, [sp, #144]	; 0x90
  404c54:	6013      	str	r3, [r2, #0]
  404c56:	b017      	add	sp, #92	; 0x5c
  404c58:	e8bd 8ff0 	ldmia.w	sp!, {r4, r5, r6, r7, r8, r9, sl, fp, pc}
  404c5c:	9a03      	ldr	r2, [sp, #12]
  404c5e:	2301      	movs	r3, #1
  404c60:	f022 4900 	bic.w	r9, r2, #2147483648	; 0x80000000
  404c64:	602b      	str	r3, [r5, #0]
  404c66:	f8cd 900c 	str.w	r9, [sp, #12]
  404c6a:	e7c2      	b.n	404bf2 <_dtoa_r+0x32>
  404c6c:	aa15      	add	r2, sp, #84	; 0x54
  404c6e:	ab14      	add	r3, sp, #80	; 0x50
  404c70:	e88d 000c 	stmia.w	sp, {r2, r3}
  404c74:	4620      	mov	r0, r4
  404c76:	4632      	mov	r2, r6
  404c78:	463b      	mov	r3, r7
  404c7a:	f001 fea1 	bl	4069c0 <__d2b>
  404c7e:	ea5f 5519 	movs.w	r5, r9, lsr #20
  404c82:	4683      	mov	fp, r0
  404c84:	f040 808a 	bne.w	404d9c <_dtoa_r+0x1dc>
  404c88:	f8dd 8050 	ldr.w	r8, [sp, #80]	; 0x50
  404c8c:	9d15      	ldr	r5, [sp, #84]	; 0x54
  404c8e:	f46f 6382 	mvn.w	r3, #1040	; 0x410
  404c92:	4445      	add	r5, r8
  404c94:	429d      	cmp	r5, r3
  404c96:	f2c0 8297 	blt.w	4051c8 <_dtoa_r+0x608>
  404c9a:	4a7e      	ldr	r2, [pc, #504]	; (404e94 <_dtoa_r+0x2d4>)
  404c9c:	1b52      	subs	r2, r2, r5
  404c9e:	fa09 f902 	lsl.w	r9, r9, r2
  404ca2:	9a02      	ldr	r2, [sp, #8]
  404ca4:	f205 4312 	addw	r3, r5, #1042	; 0x412
  404ca8:	fa22 f003 	lsr.w	r0, r2, r3
  404cac:	ea49 0000 	orr.w	r0, r9, r0
  404cb0:	f7fe f892 	bl	402dd8 <__aeabi_ui2d>
  404cb4:	2301      	movs	r3, #1
  404cb6:	3d01      	subs	r5, #1
  404cb8:	f1a1 71f8 	sub.w	r1, r1, #32505856	; 0x1f00000
  404cbc:	930d      	str	r3, [sp, #52]	; 0x34
  404cbe:	2200      	movs	r2, #0
  404cc0:	4b75      	ldr	r3, [pc, #468]	; (404e98 <_dtoa_r+0x2d8>)
  404cc2:	f7fd ff4b 	bl	402b5c <__aeabi_dsub>
  404cc6:	a36a      	add	r3, pc, #424	; (adr r3, 404e70 <_dtoa_r+0x2b0>)
  404cc8:	e9d3 2300 	ldrd	r2, r3, [r3]
  404ccc:	f7fe f8fa 	bl	402ec4 <__aeabi_dmul>
  404cd0:	a369      	add	r3, pc, #420	; (adr r3, 404e78 <_dtoa_r+0x2b8>)
  404cd2:	e9d3 2300 	ldrd	r2, r3, [r3]
  404cd6:	f7fd ff43 	bl	402b60 <__adddf3>
  404cda:	4606      	mov	r6, r0
  404cdc:	4628      	mov	r0, r5
  404cde:	460f      	mov	r7, r1
  404ce0:	f7fe f88a 	bl	402df8 <__aeabi_i2d>
  404ce4:	a366      	add	r3, pc, #408	; (adr r3, 404e80 <_dtoa_r+0x2c0>)
  404ce6:	e9d3 2300 	ldrd	r2, r3, [r3]
  404cea:	f7fe f8eb 	bl	402ec4 <__aeabi_dmul>
  404cee:	4602      	mov	r2, r0
  404cf0:	460b      	mov	r3, r1
  404cf2:	4630      	mov	r0, r6
  404cf4:	4639      	mov	r1, r7
  404cf6:	f7fd ff33 	bl	402b60 <__adddf3>
  404cfa:	4606      	mov	r6, r0
  404cfc:	460f      	mov	r7, r1
  404cfe:	f7fe fb7b 	bl	4033f8 <__aeabi_d2iz>
  404d02:	4639      	mov	r1, r7
  404d04:	9004      	str	r0, [sp, #16]
  404d06:	2200      	movs	r2, #0
  404d08:	4630      	mov	r0, r6
  404d0a:	2300      	movs	r3, #0
  404d0c:	f7fe fb4c 	bl	4033a8 <__aeabi_dcmplt>
  404d10:	2800      	cmp	r0, #0
  404d12:	f040 81a6 	bne.w	405062 <_dtoa_r+0x4a2>
  404d16:	9b04      	ldr	r3, [sp, #16]
  404d18:	2b16      	cmp	r3, #22
  404d1a:	f200 819f 	bhi.w	40505c <_dtoa_r+0x49c>
  404d1e:	9a04      	ldr	r2, [sp, #16]
  404d20:	4b5e      	ldr	r3, [pc, #376]	; (404e9c <_dtoa_r+0x2dc>)
  404d22:	eb03 03c2 	add.w	r3, r3, r2, lsl #3
  404d26:	e9d3 0100 	ldrd	r0, r1, [r3]
  404d2a:	e9dd 2302 	ldrd	r2, r3, [sp, #8]
  404d2e:	f7fe fb59 	bl	4033e4 <__aeabi_dcmpgt>
  404d32:	2800      	cmp	r0, #0
  404d34:	f000 824e 	beq.w	4051d4 <_dtoa_r+0x614>
  404d38:	9b04      	ldr	r3, [sp, #16]
  404d3a:	3b01      	subs	r3, #1
  404d3c:	9304      	str	r3, [sp, #16]
  404d3e:	2300      	movs	r3, #0
  404d40:	930b      	str	r3, [sp, #44]	; 0x2c
  404d42:	ebc5 0508 	rsb	r5, r5, r8
  404d46:	f1b5 0a01 	subs.w	sl, r5, #1
  404d4a:	f100 81a1 	bmi.w	405090 <_dtoa_r+0x4d0>
  404d4e:	2300      	movs	r3, #0
  404d50:	9305      	str	r3, [sp, #20]
  404d52:	9b04      	ldr	r3, [sp, #16]
  404d54:	2b00      	cmp	r3, #0
  404d56:	f2c0 8192 	blt.w	40507e <_dtoa_r+0x4be>
  404d5a:	449a      	add	sl, r3
  404d5c:	930a      	str	r3, [sp, #40]	; 0x28
  404d5e:	2300      	movs	r3, #0
  404d60:	9308      	str	r3, [sp, #32]
  404d62:	9b20      	ldr	r3, [sp, #128]	; 0x80
  404d64:	2b09      	cmp	r3, #9
  404d66:	d82b      	bhi.n	404dc0 <_dtoa_r+0x200>
  404d68:	2b05      	cmp	r3, #5
  404d6a:	f340 8670 	ble.w	405a4e <_dtoa_r+0xe8e>
  404d6e:	3b04      	subs	r3, #4
  404d70:	9320      	str	r3, [sp, #128]	; 0x80
  404d72:	2500      	movs	r5, #0
  404d74:	9b20      	ldr	r3, [sp, #128]	; 0x80
  404d76:	3b02      	subs	r3, #2
  404d78:	2b03      	cmp	r3, #3
  404d7a:	f200 864e 	bhi.w	405a1a <_dtoa_r+0xe5a>
  404d7e:	e8df f013 	tbh	[pc, r3, lsl #1]
  404d82:	03cc      	.short	0x03cc
  404d84:	02b203be 	.word	0x02b203be
  404d88:	0663      	.short	0x0663
  404d8a:	4b41      	ldr	r3, [pc, #260]	; (404e90 <_dtoa_r+0x2d0>)
  404d8c:	4a44      	ldr	r2, [pc, #272]	; (404ea0 <_dtoa_r+0x2e0>)
  404d8e:	f3c9 0013 	ubfx	r0, r9, #0, #20
  404d92:	2800      	cmp	r0, #0
  404d94:	bf14      	ite	ne
  404d96:	4618      	movne	r0, r3
  404d98:	4610      	moveq	r0, r2
  404d9a:	e751      	b.n	404c40 <_dtoa_r+0x80>
  404d9c:	f3c7 0313 	ubfx	r3, r7, #0, #20
  404da0:	f043 517f 	orr.w	r1, r3, #1069547520	; 0x3fc00000
  404da4:	f8cd 8034 	str.w	r8, [sp, #52]	; 0x34
  404da8:	4630      	mov	r0, r6
  404daa:	f2a5 35ff 	subw	r5, r5, #1023	; 0x3ff
  404dae:	f441 1140 	orr.w	r1, r1, #3145728	; 0x300000
  404db2:	f8dd 8050 	ldr.w	r8, [sp, #80]	; 0x50
  404db6:	e782      	b.n	404cbe <_dtoa_r+0xfe>
  404db8:	483a      	ldr	r0, [pc, #232]	; (404ea4 <_dtoa_r+0x2e4>)
  404dba:	e735      	b.n	404c28 <_dtoa_r+0x68>
  404dbc:	1cc3      	adds	r3, r0, #3
  404dbe:	e748      	b.n	404c52 <_dtoa_r+0x92>
  404dc0:	2100      	movs	r1, #0
  404dc2:	6461      	str	r1, [r4, #68]	; 0x44
  404dc4:	4620      	mov	r0, r4
  404dc6:	9120      	str	r1, [sp, #128]	; 0x80
  404dc8:	f001 fb62 	bl	406490 <_Balloc>
  404dcc:	f04f 33ff 	mov.w	r3, #4294967295
  404dd0:	9306      	str	r3, [sp, #24]
  404dd2:	9a20      	ldr	r2, [sp, #128]	; 0x80
  404dd4:	930c      	str	r3, [sp, #48]	; 0x30
  404dd6:	2301      	movs	r3, #1
  404dd8:	9007      	str	r0, [sp, #28]
  404dda:	9221      	str	r2, [sp, #132]	; 0x84
  404ddc:	6420      	str	r0, [r4, #64]	; 0x40
  404dde:	9309      	str	r3, [sp, #36]	; 0x24
  404de0:	9b15      	ldr	r3, [sp, #84]	; 0x54
  404de2:	2b00      	cmp	r3, #0
  404de4:	f2c0 80d2 	blt.w	404f8c <_dtoa_r+0x3cc>
  404de8:	9a04      	ldr	r2, [sp, #16]
  404dea:	2a0e      	cmp	r2, #14
  404dec:	f300 80ce 	bgt.w	404f8c <_dtoa_r+0x3cc>
  404df0:	4b2a      	ldr	r3, [pc, #168]	; (404e9c <_dtoa_r+0x2dc>)
  404df2:	eb03 03c2 	add.w	r3, r3, r2, lsl #3
  404df6:	e9d3 8900 	ldrd	r8, r9, [r3]
  404dfa:	9b21      	ldr	r3, [sp, #132]	; 0x84
  404dfc:	2b00      	cmp	r3, #0
  404dfe:	f2c0 838f 	blt.w	405520 <_dtoa_r+0x960>
  404e02:	e9dd 6702 	ldrd	r6, r7, [sp, #8]
  404e06:	4642      	mov	r2, r8
  404e08:	464b      	mov	r3, r9
  404e0a:	4630      	mov	r0, r6
  404e0c:	4639      	mov	r1, r7
  404e0e:	f7fe f983 	bl	403118 <__aeabi_ddiv>
  404e12:	f7fe faf1 	bl	4033f8 <__aeabi_d2iz>
  404e16:	4682      	mov	sl, r0
  404e18:	f7fd ffee 	bl	402df8 <__aeabi_i2d>
  404e1c:	4642      	mov	r2, r8
  404e1e:	464b      	mov	r3, r9
  404e20:	f7fe f850 	bl	402ec4 <__aeabi_dmul>
  404e24:	460b      	mov	r3, r1
  404e26:	4602      	mov	r2, r0
  404e28:	4639      	mov	r1, r7
  404e2a:	4630      	mov	r0, r6
  404e2c:	f7fd fe96 	bl	402b5c <__aeabi_dsub>
  404e30:	9d07      	ldr	r5, [sp, #28]
  404e32:	f10a 0330 	add.w	r3, sl, #48	; 0x30
  404e36:	702b      	strb	r3, [r5, #0]
  404e38:	9b06      	ldr	r3, [sp, #24]
  404e3a:	2b01      	cmp	r3, #1
  404e3c:	4606      	mov	r6, r0
  404e3e:	460f      	mov	r7, r1
  404e40:	f105 0501 	add.w	r5, r5, #1
  404e44:	d062      	beq.n	404f0c <_dtoa_r+0x34c>
  404e46:	2200      	movs	r2, #0
  404e48:	4b17      	ldr	r3, [pc, #92]	; (404ea8 <_dtoa_r+0x2e8>)
  404e4a:	f7fe f83b 	bl	402ec4 <__aeabi_dmul>
  404e4e:	2200      	movs	r2, #0
  404e50:	2300      	movs	r3, #0
  404e52:	4606      	mov	r6, r0
  404e54:	460f      	mov	r7, r1
  404e56:	f7fe fa9d 	bl	403394 <__aeabi_dcmpeq>
  404e5a:	2800      	cmp	r0, #0
  404e5c:	f040 8083 	bne.w	404f66 <_dtoa_r+0x3a6>
  404e60:	f8cd b008 	str.w	fp, [sp, #8]
  404e64:	9405      	str	r4, [sp, #20]
  404e66:	f8dd b01c 	ldr.w	fp, [sp, #28]
  404e6a:	9c06      	ldr	r4, [sp, #24]
  404e6c:	e029      	b.n	404ec2 <_dtoa_r+0x302>
  404e6e:	bf00      	nop
  404e70:	636f4361 	.word	0x636f4361
  404e74:	3fd287a7 	.word	0x3fd287a7
  404e78:	8b60c8b3 	.word	0x8b60c8b3
  404e7c:	3fc68a28 	.word	0x3fc68a28
  404e80:	509f79fb 	.word	0x509f79fb
  404e84:	3fd34413 	.word	0x3fd34413
  404e88:	7ff00000 	.word	0x7ff00000
  404e8c:	00408061 	.word	0x00408061
  404e90:	00408070 	.word	0x00408070
  404e94:	fffffc0e 	.word	0xfffffc0e
  404e98:	3ff80000 	.word	0x3ff80000
  404e9c:	00408080 	.word	0x00408080
  404ea0:	00408064 	.word	0x00408064
  404ea4:	00408060 	.word	0x00408060
  404ea8:	40240000 	.word	0x40240000
  404eac:	f7fe f80a 	bl	402ec4 <__aeabi_dmul>
  404eb0:	2200      	movs	r2, #0
  404eb2:	2300      	movs	r3, #0
  404eb4:	4606      	mov	r6, r0
  404eb6:	460f      	mov	r7, r1
  404eb8:	f7fe fa6c 	bl	403394 <__aeabi_dcmpeq>
  404ebc:	2800      	cmp	r0, #0
  404ebe:	f040 83de 	bne.w	40567e <_dtoa_r+0xabe>
  404ec2:	4642      	mov	r2, r8
  404ec4:	464b      	mov	r3, r9
  404ec6:	4630      	mov	r0, r6
  404ec8:	4639      	mov	r1, r7
  404eca:	f7fe f925 	bl	403118 <__aeabi_ddiv>
  404ece:	f7fe fa93 	bl	4033f8 <__aeabi_d2iz>
  404ed2:	4682      	mov	sl, r0
  404ed4:	f7fd ff90 	bl	402df8 <__aeabi_i2d>
  404ed8:	4642      	mov	r2, r8
  404eda:	464b      	mov	r3, r9
  404edc:	f7fd fff2 	bl	402ec4 <__aeabi_dmul>
  404ee0:	4602      	mov	r2, r0
  404ee2:	460b      	mov	r3, r1
  404ee4:	4630      	mov	r0, r6
  404ee6:	4639      	mov	r1, r7
  404ee8:	f7fd fe38 	bl	402b5c <__aeabi_dsub>
  404eec:	f10a 0e30 	add.w	lr, sl, #48	; 0x30
  404ef0:	f805 eb01 	strb.w	lr, [r5], #1
  404ef4:	ebcb 0e05 	rsb	lr, fp, r5
  404ef8:	4574      	cmp	r4, lr
  404efa:	4606      	mov	r6, r0
  404efc:	460f      	mov	r7, r1
  404efe:	f04f 0200 	mov.w	r2, #0
  404f02:	4bb5      	ldr	r3, [pc, #724]	; (4051d8 <_dtoa_r+0x618>)
  404f04:	d1d2      	bne.n	404eac <_dtoa_r+0x2ec>
  404f06:	f8dd b008 	ldr.w	fp, [sp, #8]
  404f0a:	9c05      	ldr	r4, [sp, #20]
  404f0c:	4632      	mov	r2, r6
  404f0e:	463b      	mov	r3, r7
  404f10:	4630      	mov	r0, r6
  404f12:	4639      	mov	r1, r7
  404f14:	f7fd fe24 	bl	402b60 <__adddf3>
  404f18:	4606      	mov	r6, r0
  404f1a:	460f      	mov	r7, r1
  404f1c:	4640      	mov	r0, r8
  404f1e:	4649      	mov	r1, r9
  404f20:	4632      	mov	r2, r6
  404f22:	463b      	mov	r3, r7
  404f24:	f7fe fa40 	bl	4033a8 <__aeabi_dcmplt>
  404f28:	b948      	cbnz	r0, 404f3e <_dtoa_r+0x37e>
  404f2a:	4640      	mov	r0, r8
  404f2c:	4649      	mov	r1, r9
  404f2e:	4632      	mov	r2, r6
  404f30:	463b      	mov	r3, r7
  404f32:	f7fe fa2f 	bl	403394 <__aeabi_dcmpeq>
  404f36:	b1b0      	cbz	r0, 404f66 <_dtoa_r+0x3a6>
  404f38:	f01a 0f01 	tst.w	sl, #1
  404f3c:	d013      	beq.n	404f66 <_dtoa_r+0x3a6>
  404f3e:	f815 8c01 	ldrb.w	r8, [r5, #-1]
  404f42:	9907      	ldr	r1, [sp, #28]
  404f44:	1e6b      	subs	r3, r5, #1
  404f46:	e004      	b.n	404f52 <_dtoa_r+0x392>
  404f48:	428b      	cmp	r3, r1
  404f4a:	f000 8440 	beq.w	4057ce <_dtoa_r+0xc0e>
  404f4e:	f813 8d01 	ldrb.w	r8, [r3, #-1]!
  404f52:	f1b8 0f39 	cmp.w	r8, #57	; 0x39
  404f56:	f103 0501 	add.w	r5, r3, #1
  404f5a:	461a      	mov	r2, r3
  404f5c:	d0f4      	beq.n	404f48 <_dtoa_r+0x388>
  404f5e:	f108 0301 	add.w	r3, r8, #1
  404f62:	b2db      	uxtb	r3, r3
  404f64:	7013      	strb	r3, [r2, #0]
  404f66:	4620      	mov	r0, r4
  404f68:	4659      	mov	r1, fp
  404f6a:	f001 fab7 	bl	4064dc <_Bfree>
  404f6e:	2200      	movs	r2, #0
  404f70:	9b04      	ldr	r3, [sp, #16]
  404f72:	702a      	strb	r2, [r5, #0]
  404f74:	9a22      	ldr	r2, [sp, #136]	; 0x88
  404f76:	3301      	adds	r3, #1
  404f78:	6013      	str	r3, [r2, #0]
  404f7a:	9b24      	ldr	r3, [sp, #144]	; 0x90
  404f7c:	2b00      	cmp	r3, #0
  404f7e:	f000 8345 	beq.w	40560c <_dtoa_r+0xa4c>
  404f82:	9807      	ldr	r0, [sp, #28]
  404f84:	601d      	str	r5, [r3, #0]
  404f86:	b017      	add	sp, #92	; 0x5c
  404f88:	e8bd 8ff0 	ldmia.w	sp!, {r4, r5, r6, r7, r8, r9, sl, fp, pc}
  404f8c:	9a09      	ldr	r2, [sp, #36]	; 0x24
  404f8e:	2a00      	cmp	r2, #0
  404f90:	f000 8084 	beq.w	40509c <_dtoa_r+0x4dc>
  404f94:	9a20      	ldr	r2, [sp, #128]	; 0x80
  404f96:	2a01      	cmp	r2, #1
  404f98:	f340 8304 	ble.w	4055a4 <_dtoa_r+0x9e4>
  404f9c:	9b06      	ldr	r3, [sp, #24]
  404f9e:	1e5f      	subs	r7, r3, #1
  404fa0:	9b08      	ldr	r3, [sp, #32]
  404fa2:	42bb      	cmp	r3, r7
  404fa4:	f2c0 83a9 	blt.w	4056fa <_dtoa_r+0xb3a>
  404fa8:	1bdf      	subs	r7, r3, r7
  404faa:	9b06      	ldr	r3, [sp, #24]
  404fac:	2b00      	cmp	r3, #0
  404fae:	f2c0 849c 	blt.w	4058ea <_dtoa_r+0xd2a>
  404fb2:	9d05      	ldr	r5, [sp, #20]
  404fb4:	9b06      	ldr	r3, [sp, #24]
  404fb6:	9a05      	ldr	r2, [sp, #20]
  404fb8:	4620      	mov	r0, r4
  404fba:	441a      	add	r2, r3
  404fbc:	2101      	movs	r1, #1
  404fbe:	9205      	str	r2, [sp, #20]
  404fc0:	449a      	add	sl, r3
  404fc2:	f001 fb25 	bl	406610 <__i2b>
  404fc6:	4606      	mov	r6, r0
  404fc8:	b165      	cbz	r5, 404fe4 <_dtoa_r+0x424>
  404fca:	f1ba 0f00 	cmp.w	sl, #0
  404fce:	dd09      	ble.n	404fe4 <_dtoa_r+0x424>
  404fd0:	45aa      	cmp	sl, r5
  404fd2:	9a05      	ldr	r2, [sp, #20]
  404fd4:	4653      	mov	r3, sl
  404fd6:	bfa8      	it	ge
  404fd8:	462b      	movge	r3, r5
  404fda:	1ad2      	subs	r2, r2, r3
  404fdc:	9205      	str	r2, [sp, #20]
  404fde:	1aed      	subs	r5, r5, r3
  404fe0:	ebc3 0a0a 	rsb	sl, r3, sl
  404fe4:	9b08      	ldr	r3, [sp, #32]
  404fe6:	2b00      	cmp	r3, #0
  404fe8:	dd1a      	ble.n	405020 <_dtoa_r+0x460>
  404fea:	9b09      	ldr	r3, [sp, #36]	; 0x24
  404fec:	2b00      	cmp	r3, #0
  404fee:	f000 837d 	beq.w	4056ec <_dtoa_r+0xb2c>
  404ff2:	2f00      	cmp	r7, #0
  404ff4:	dd10      	ble.n	405018 <_dtoa_r+0x458>
  404ff6:	4631      	mov	r1, r6
  404ff8:	463a      	mov	r2, r7
  404ffa:	4620      	mov	r0, r4
  404ffc:	f001 fbac 	bl	406758 <__pow5mult>
  405000:	4606      	mov	r6, r0
  405002:	465a      	mov	r2, fp
  405004:	4631      	mov	r1, r6
  405006:	4620      	mov	r0, r4
  405008:	f001 fb0c 	bl	406624 <__multiply>
  40500c:	4659      	mov	r1, fp
  40500e:	4680      	mov	r8, r0
  405010:	4620      	mov	r0, r4
  405012:	f001 fa63 	bl	4064dc <_Bfree>
  405016:	46c3      	mov	fp, r8
  405018:	9b08      	ldr	r3, [sp, #32]
  40501a:	1bda      	subs	r2, r3, r7
  40501c:	f040 82a2 	bne.w	405564 <_dtoa_r+0x9a4>
  405020:	4620      	mov	r0, r4
  405022:	2101      	movs	r1, #1
  405024:	f001 faf4 	bl	406610 <__i2b>
  405028:	9b0a      	ldr	r3, [sp, #40]	; 0x28
  40502a:	2b00      	cmp	r3, #0
  40502c:	4680      	mov	r8, r0
  40502e:	dd39      	ble.n	4050a4 <_dtoa_r+0x4e4>
  405030:	4601      	mov	r1, r0
  405032:	461a      	mov	r2, r3
  405034:	4620      	mov	r0, r4
  405036:	f001 fb8f 	bl	406758 <__pow5mult>
  40503a:	9b20      	ldr	r3, [sp, #128]	; 0x80
  40503c:	2b01      	cmp	r3, #1
  40503e:	4680      	mov	r8, r0
  405040:	f340 8296 	ble.w	405570 <_dtoa_r+0x9b0>
  405044:	f04f 0900 	mov.w	r9, #0
  405048:	f8d8 3010 	ldr.w	r3, [r8, #16]
  40504c:	eb08 0383 	add.w	r3, r8, r3, lsl #2
  405050:	6918      	ldr	r0, [r3, #16]
  405052:	f001 fa8f 	bl	406574 <__hi0bits>
  405056:	f1c0 0020 	rsb	r0, r0, #32
  40505a:	e02d      	b.n	4050b8 <_dtoa_r+0x4f8>
  40505c:	2301      	movs	r3, #1
  40505e:	930b      	str	r3, [sp, #44]	; 0x2c
  405060:	e66f      	b.n	404d42 <_dtoa_r+0x182>
  405062:	9804      	ldr	r0, [sp, #16]
  405064:	f7fd fec8 	bl	402df8 <__aeabi_i2d>
  405068:	4632      	mov	r2, r6
  40506a:	463b      	mov	r3, r7
  40506c:	f7fe f992 	bl	403394 <__aeabi_dcmpeq>
  405070:	2800      	cmp	r0, #0
  405072:	f47f ae50 	bne.w	404d16 <_dtoa_r+0x156>
  405076:	9b04      	ldr	r3, [sp, #16]
  405078:	3b01      	subs	r3, #1
  40507a:	9304      	str	r3, [sp, #16]
  40507c:	e64b      	b.n	404d16 <_dtoa_r+0x156>
  40507e:	9a05      	ldr	r2, [sp, #20]
  405080:	9b04      	ldr	r3, [sp, #16]
  405082:	1ad2      	subs	r2, r2, r3
  405084:	425b      	negs	r3, r3
  405086:	9308      	str	r3, [sp, #32]
  405088:	2300      	movs	r3, #0
  40508a:	9205      	str	r2, [sp, #20]
  40508c:	930a      	str	r3, [sp, #40]	; 0x28
  40508e:	e668      	b.n	404d62 <_dtoa_r+0x1a2>
  405090:	f1ca 0300 	rsb	r3, sl, #0
  405094:	9305      	str	r3, [sp, #20]
  405096:	f04f 0a00 	mov.w	sl, #0
  40509a:	e65a      	b.n	404d52 <_dtoa_r+0x192>
  40509c:	9f08      	ldr	r7, [sp, #32]
  40509e:	9d05      	ldr	r5, [sp, #20]
  4050a0:	9e09      	ldr	r6, [sp, #36]	; 0x24
  4050a2:	e791      	b.n	404fc8 <_dtoa_r+0x408>
  4050a4:	9b20      	ldr	r3, [sp, #128]	; 0x80
  4050a6:	2b01      	cmp	r3, #1
  4050a8:	f340 82b3 	ble.w	405612 <_dtoa_r+0xa52>
  4050ac:	f04f 0900 	mov.w	r9, #0
  4050b0:	9b0a      	ldr	r3, [sp, #40]	; 0x28
  4050b2:	2b00      	cmp	r3, #0
  4050b4:	d1c8      	bne.n	405048 <_dtoa_r+0x488>
  4050b6:	2001      	movs	r0, #1
  4050b8:	4450      	add	r0, sl
  4050ba:	f010 001f 	ands.w	r0, r0, #31
  4050be:	f000 8081 	beq.w	4051c4 <_dtoa_r+0x604>
  4050c2:	f1c0 0320 	rsb	r3, r0, #32
  4050c6:	2b04      	cmp	r3, #4
  4050c8:	f340 84b8 	ble.w	405a3c <_dtoa_r+0xe7c>
  4050cc:	f1c0 001c 	rsb	r0, r0, #28
  4050d0:	9b05      	ldr	r3, [sp, #20]
  4050d2:	4403      	add	r3, r0
  4050d4:	9305      	str	r3, [sp, #20]
  4050d6:	4405      	add	r5, r0
  4050d8:	4482      	add	sl, r0
  4050da:	9b05      	ldr	r3, [sp, #20]
  4050dc:	2b00      	cmp	r3, #0
  4050de:	dd05      	ble.n	4050ec <_dtoa_r+0x52c>
  4050e0:	4659      	mov	r1, fp
  4050e2:	461a      	mov	r2, r3
  4050e4:	4620      	mov	r0, r4
  4050e6:	f001 fb87 	bl	4067f8 <__lshift>
  4050ea:	4683      	mov	fp, r0
  4050ec:	f1ba 0f00 	cmp.w	sl, #0
  4050f0:	dd05      	ble.n	4050fe <_dtoa_r+0x53e>
  4050f2:	4641      	mov	r1, r8
  4050f4:	4652      	mov	r2, sl
  4050f6:	4620      	mov	r0, r4
  4050f8:	f001 fb7e 	bl	4067f8 <__lshift>
  4050fc:	4680      	mov	r8, r0
  4050fe:	9b0b      	ldr	r3, [sp, #44]	; 0x2c
  405100:	2b00      	cmp	r3, #0
  405102:	f040 8268 	bne.w	4055d6 <_dtoa_r+0xa16>
  405106:	9b06      	ldr	r3, [sp, #24]
  405108:	2b00      	cmp	r3, #0
  40510a:	f340 8295 	ble.w	405638 <_dtoa_r+0xa78>
  40510e:	9b09      	ldr	r3, [sp, #36]	; 0x24
  405110:	2b00      	cmp	r3, #0
  405112:	d171      	bne.n	4051f8 <_dtoa_r+0x638>
  405114:	f8dd 901c 	ldr.w	r9, [sp, #28]
  405118:	9f06      	ldr	r7, [sp, #24]
  40511a:	464d      	mov	r5, r9
  40511c:	e002      	b.n	405124 <_dtoa_r+0x564>
  40511e:	f001 f9e7 	bl	4064f0 <__multadd>
  405122:	4683      	mov	fp, r0
  405124:	4641      	mov	r1, r8
  405126:	4658      	mov	r0, fp
  405128:	f7ff fcb2 	bl	404a90 <quorem>
  40512c:	f100 0c30 	add.w	ip, r0, #48	; 0x30
  405130:	f805 cb01 	strb.w	ip, [r5], #1
  405134:	ebc9 0305 	rsb	r3, r9, r5
  405138:	42bb      	cmp	r3, r7
  40513a:	4620      	mov	r0, r4
  40513c:	4659      	mov	r1, fp
  40513e:	f04f 020a 	mov.w	r2, #10
  405142:	f04f 0300 	mov.w	r3, #0
  405146:	dbea      	blt.n	40511e <_dtoa_r+0x55e>
  405148:	9b07      	ldr	r3, [sp, #28]
  40514a:	9a06      	ldr	r2, [sp, #24]
  40514c:	2a01      	cmp	r2, #1
  40514e:	bfac      	ite	ge
  405150:	189b      	addge	r3, r3, r2
  405152:	3301      	addlt	r3, #1
  405154:	461d      	mov	r5, r3
  405156:	f04f 0a00 	mov.w	sl, #0
  40515a:	4659      	mov	r1, fp
  40515c:	2201      	movs	r2, #1
  40515e:	4620      	mov	r0, r4
  405160:	f8cd c008 	str.w	ip, [sp, #8]
  405164:	f001 fb48 	bl	4067f8 <__lshift>
  405168:	4641      	mov	r1, r8
  40516a:	4683      	mov	fp, r0
  40516c:	f001 fb9a 	bl	4068a4 <__mcmp>
  405170:	2800      	cmp	r0, #0
  405172:	f8dd c008 	ldr.w	ip, [sp, #8]
  405176:	f340 82f6 	ble.w	405766 <_dtoa_r+0xba6>
  40517a:	f815 2c01 	ldrb.w	r2, [r5, #-1]
  40517e:	9907      	ldr	r1, [sp, #28]
  405180:	1e6b      	subs	r3, r5, #1
  405182:	e004      	b.n	40518e <_dtoa_r+0x5ce>
  405184:	428b      	cmp	r3, r1
  405186:	f000 8273 	beq.w	405670 <_dtoa_r+0xab0>
  40518a:	f813 2d01 	ldrb.w	r2, [r3, #-1]!
  40518e:	2a39      	cmp	r2, #57	; 0x39
  405190:	f103 0501 	add.w	r5, r3, #1
  405194:	d0f6      	beq.n	405184 <_dtoa_r+0x5c4>
  405196:	3201      	adds	r2, #1
  405198:	701a      	strb	r2, [r3, #0]
  40519a:	4641      	mov	r1, r8
  40519c:	4620      	mov	r0, r4
  40519e:	f001 f99d 	bl	4064dc <_Bfree>
  4051a2:	2e00      	cmp	r6, #0
  4051a4:	f43f aedf 	beq.w	404f66 <_dtoa_r+0x3a6>
  4051a8:	f1ba 0f00 	cmp.w	sl, #0
  4051ac:	d005      	beq.n	4051ba <_dtoa_r+0x5fa>
  4051ae:	45b2      	cmp	sl, r6
  4051b0:	d003      	beq.n	4051ba <_dtoa_r+0x5fa>
  4051b2:	4651      	mov	r1, sl
  4051b4:	4620      	mov	r0, r4
  4051b6:	f001 f991 	bl	4064dc <_Bfree>
  4051ba:	4631      	mov	r1, r6
  4051bc:	4620      	mov	r0, r4
  4051be:	f001 f98d 	bl	4064dc <_Bfree>
  4051c2:	e6d0      	b.n	404f66 <_dtoa_r+0x3a6>
  4051c4:	201c      	movs	r0, #28
  4051c6:	e783      	b.n	4050d0 <_dtoa_r+0x510>
  4051c8:	4b04      	ldr	r3, [pc, #16]	; (4051dc <_dtoa_r+0x61c>)
  4051ca:	9a02      	ldr	r2, [sp, #8]
  4051cc:	1b5b      	subs	r3, r3, r5
  4051ce:	fa02 f003 	lsl.w	r0, r2, r3
  4051d2:	e56d      	b.n	404cb0 <_dtoa_r+0xf0>
  4051d4:	900b      	str	r0, [sp, #44]	; 0x2c
  4051d6:	e5b4      	b.n	404d42 <_dtoa_r+0x182>
  4051d8:	40240000 	.word	0x40240000
  4051dc:	fffffbee 	.word	0xfffffbee
  4051e0:	4631      	mov	r1, r6
  4051e2:	2300      	movs	r3, #0
  4051e4:	4620      	mov	r0, r4
  4051e6:	220a      	movs	r2, #10
  4051e8:	f001 f982 	bl	4064f0 <__multadd>
  4051ec:	9b0c      	ldr	r3, [sp, #48]	; 0x30
  4051ee:	2b00      	cmp	r3, #0
  4051f0:	4606      	mov	r6, r0
  4051f2:	f340 840c 	ble.w	405a0e <_dtoa_r+0xe4e>
  4051f6:	9306      	str	r3, [sp, #24]
  4051f8:	2d00      	cmp	r5, #0
  4051fa:	dd05      	ble.n	405208 <_dtoa_r+0x648>
  4051fc:	4631      	mov	r1, r6
  4051fe:	462a      	mov	r2, r5
  405200:	4620      	mov	r0, r4
  405202:	f001 faf9 	bl	4067f8 <__lshift>
  405206:	4606      	mov	r6, r0
  405208:	f1b9 0f00 	cmp.w	r9, #0
  40520c:	f040 82e9 	bne.w	4057e2 <_dtoa_r+0xc22>
  405210:	46b1      	mov	r9, r6
  405212:	9b06      	ldr	r3, [sp, #24]
  405214:	9a07      	ldr	r2, [sp, #28]
  405216:	3b01      	subs	r3, #1
  405218:	18d3      	adds	r3, r2, r3
  40521a:	9308      	str	r3, [sp, #32]
  40521c:	9b02      	ldr	r3, [sp, #8]
  40521e:	f003 0301 	and.w	r3, r3, #1
  405222:	9309      	str	r3, [sp, #36]	; 0x24
  405224:	4617      	mov	r7, r2
  405226:	4641      	mov	r1, r8
  405228:	4658      	mov	r0, fp
  40522a:	f7ff fc31 	bl	404a90 <quorem>
  40522e:	4631      	mov	r1, r6
  405230:	4605      	mov	r5, r0
  405232:	4658      	mov	r0, fp
  405234:	f001 fb36 	bl	4068a4 <__mcmp>
  405238:	464a      	mov	r2, r9
  40523a:	4682      	mov	sl, r0
  40523c:	4641      	mov	r1, r8
  40523e:	4620      	mov	r0, r4
  405240:	f001 fb54 	bl	4068ec <__mdiff>
  405244:	68c2      	ldr	r2, [r0, #12]
  405246:	4603      	mov	r3, r0
  405248:	f105 0c30 	add.w	ip, r5, #48	; 0x30
  40524c:	2a00      	cmp	r2, #0
  40524e:	f040 81b8 	bne.w	4055c2 <_dtoa_r+0xa02>
  405252:	4619      	mov	r1, r3
  405254:	4658      	mov	r0, fp
  405256:	f8cd c018 	str.w	ip, [sp, #24]
  40525a:	9305      	str	r3, [sp, #20]
  40525c:	f001 fb22 	bl	4068a4 <__mcmp>
  405260:	9b05      	ldr	r3, [sp, #20]
  405262:	9002      	str	r0, [sp, #8]
  405264:	4619      	mov	r1, r3
  405266:	4620      	mov	r0, r4
  405268:	f001 f938 	bl	4064dc <_Bfree>
  40526c:	9a02      	ldr	r2, [sp, #8]
  40526e:	f8dd c018 	ldr.w	ip, [sp, #24]
  405272:	b92a      	cbnz	r2, 405280 <_dtoa_r+0x6c0>
  405274:	9b20      	ldr	r3, [sp, #128]	; 0x80
  405276:	b91b      	cbnz	r3, 405280 <_dtoa_r+0x6c0>
  405278:	9b09      	ldr	r3, [sp, #36]	; 0x24
  40527a:	2b00      	cmp	r3, #0
  40527c:	f000 83a7 	beq.w	4059ce <_dtoa_r+0xe0e>
  405280:	f1ba 0f00 	cmp.w	sl, #0
  405284:	f2c0 8251 	blt.w	40572a <_dtoa_r+0xb6a>
  405288:	d105      	bne.n	405296 <_dtoa_r+0x6d6>
  40528a:	9b20      	ldr	r3, [sp, #128]	; 0x80
  40528c:	b91b      	cbnz	r3, 405296 <_dtoa_r+0x6d6>
  40528e:	9b09      	ldr	r3, [sp, #36]	; 0x24
  405290:	2b00      	cmp	r3, #0
  405292:	f000 824a 	beq.w	40572a <_dtoa_r+0xb6a>
  405296:	2a00      	cmp	r2, #0
  405298:	f300 82b7 	bgt.w	40580a <_dtoa_r+0xc4a>
  40529c:	9b08      	ldr	r3, [sp, #32]
  40529e:	f887 c000 	strb.w	ip, [r7]
  4052a2:	f107 0a01 	add.w	sl, r7, #1
  4052a6:	429f      	cmp	r7, r3
  4052a8:	4655      	mov	r5, sl
  4052aa:	f000 82ba 	beq.w	405822 <_dtoa_r+0xc62>
  4052ae:	4659      	mov	r1, fp
  4052b0:	220a      	movs	r2, #10
  4052b2:	2300      	movs	r3, #0
  4052b4:	4620      	mov	r0, r4
  4052b6:	f001 f91b 	bl	4064f0 <__multadd>
  4052ba:	454e      	cmp	r6, r9
  4052bc:	4683      	mov	fp, r0
  4052be:	4631      	mov	r1, r6
  4052c0:	4620      	mov	r0, r4
  4052c2:	f04f 020a 	mov.w	r2, #10
  4052c6:	f04f 0300 	mov.w	r3, #0
  4052ca:	f000 8174 	beq.w	4055b6 <_dtoa_r+0x9f6>
  4052ce:	f001 f90f 	bl	4064f0 <__multadd>
  4052d2:	4649      	mov	r1, r9
  4052d4:	4606      	mov	r6, r0
  4052d6:	220a      	movs	r2, #10
  4052d8:	4620      	mov	r0, r4
  4052da:	2300      	movs	r3, #0
  4052dc:	f001 f908 	bl	4064f0 <__multadd>
  4052e0:	4657      	mov	r7, sl
  4052e2:	4681      	mov	r9, r0
  4052e4:	e79f      	b.n	405226 <_dtoa_r+0x666>
  4052e6:	2301      	movs	r3, #1
  4052e8:	9309      	str	r3, [sp, #36]	; 0x24
  4052ea:	9b21      	ldr	r3, [sp, #132]	; 0x84
  4052ec:	2b00      	cmp	r3, #0
  4052ee:	f340 8213 	ble.w	405718 <_dtoa_r+0xb58>
  4052f2:	461f      	mov	r7, r3
  4052f4:	461e      	mov	r6, r3
  4052f6:	930c      	str	r3, [sp, #48]	; 0x30
  4052f8:	9306      	str	r3, [sp, #24]
  4052fa:	2100      	movs	r1, #0
  4052fc:	2f17      	cmp	r7, #23
  4052fe:	6461      	str	r1, [r4, #68]	; 0x44
  405300:	d90a      	bls.n	405318 <_dtoa_r+0x758>
  405302:	2201      	movs	r2, #1
  405304:	2304      	movs	r3, #4
  405306:	005b      	lsls	r3, r3, #1
  405308:	f103 0014 	add.w	r0, r3, #20
  40530c:	4287      	cmp	r7, r0
  40530e:	4611      	mov	r1, r2
  405310:	f102 0201 	add.w	r2, r2, #1
  405314:	d2f7      	bcs.n	405306 <_dtoa_r+0x746>
  405316:	6461      	str	r1, [r4, #68]	; 0x44
  405318:	4620      	mov	r0, r4
  40531a:	f001 f8b9 	bl	406490 <_Balloc>
  40531e:	2e0e      	cmp	r6, #14
  405320:	9007      	str	r0, [sp, #28]
  405322:	6420      	str	r0, [r4, #64]	; 0x40
  405324:	f63f ad5c 	bhi.w	404de0 <_dtoa_r+0x220>
  405328:	2d00      	cmp	r5, #0
  40532a:	f43f ad59 	beq.w	404de0 <_dtoa_r+0x220>
  40532e:	e9dd 2302 	ldrd	r2, r3, [sp, #8]
  405332:	9904      	ldr	r1, [sp, #16]
  405334:	2900      	cmp	r1, #0
  405336:	e9cd 230e 	strd	r2, r3, [sp, #56]	; 0x38
  40533a:	f340 8221 	ble.w	405780 <_dtoa_r+0xbc0>
  40533e:	4bb7      	ldr	r3, [pc, #732]	; (40561c <_dtoa_r+0xa5c>)
  405340:	f001 020f 	and.w	r2, r1, #15
  405344:	110d      	asrs	r5, r1, #4
  405346:	eb03 03c2 	add.w	r3, r3, r2, lsl #3
  40534a:	06e9      	lsls	r1, r5, #27
  40534c:	e9d3 6700 	ldrd	r6, r7, [r3]
  405350:	f140 81db 	bpl.w	40570a <_dtoa_r+0xb4a>
  405354:	4bb2      	ldr	r3, [pc, #712]	; (405620 <_dtoa_r+0xa60>)
  405356:	e9dd 010e 	ldrd	r0, r1, [sp, #56]	; 0x38
  40535a:	e9d3 2308 	ldrd	r2, r3, [r3, #32]
  40535e:	f7fd fedb 	bl	403118 <__aeabi_ddiv>
  405362:	e9cd 0102 	strd	r0, r1, [sp, #8]
  405366:	f005 050f 	and.w	r5, r5, #15
  40536a:	f04f 0803 	mov.w	r8, #3
  40536e:	b18d      	cbz	r5, 405394 <_dtoa_r+0x7d4>
  405370:	f8df 92ac 	ldr.w	r9, [pc, #684]	; 405620 <_dtoa_r+0xa60>
  405374:	4630      	mov	r0, r6
  405376:	4639      	mov	r1, r7
  405378:	07ea      	lsls	r2, r5, #31
  40537a:	d505      	bpl.n	405388 <_dtoa_r+0x7c8>
  40537c:	e9d9 2300 	ldrd	r2, r3, [r9]
  405380:	f108 0801 	add.w	r8, r8, #1
  405384:	f7fd fd9e 	bl	402ec4 <__aeabi_dmul>
  405388:	106d      	asrs	r5, r5, #1
  40538a:	f109 0908 	add.w	r9, r9, #8
  40538e:	d1f3      	bne.n	405378 <_dtoa_r+0x7b8>
  405390:	4606      	mov	r6, r0
  405392:	460f      	mov	r7, r1
  405394:	e9dd 0102 	ldrd	r0, r1, [sp, #8]
  405398:	4632      	mov	r2, r6
  40539a:	463b      	mov	r3, r7
  40539c:	f7fd febc 	bl	403118 <__aeabi_ddiv>
  4053a0:	e9cd 0102 	strd	r0, r1, [sp, #8]
  4053a4:	9b0b      	ldr	r3, [sp, #44]	; 0x2c
  4053a6:	b143      	cbz	r3, 4053ba <_dtoa_r+0x7fa>
  4053a8:	e9dd 0102 	ldrd	r0, r1, [sp, #8]
  4053ac:	2200      	movs	r2, #0
  4053ae:	4b9d      	ldr	r3, [pc, #628]	; (405624 <_dtoa_r+0xa64>)
  4053b0:	f7fd fffa 	bl	4033a8 <__aeabi_dcmplt>
  4053b4:	2800      	cmp	r0, #0
  4053b6:	f040 82ac 	bne.w	405912 <_dtoa_r+0xd52>
  4053ba:	4640      	mov	r0, r8
  4053bc:	f7fd fd1c 	bl	402df8 <__aeabi_i2d>
  4053c0:	e9dd 2302 	ldrd	r2, r3, [sp, #8]
  4053c4:	f7fd fd7e 	bl	402ec4 <__aeabi_dmul>
  4053c8:	4b97      	ldr	r3, [pc, #604]	; (405628 <_dtoa_r+0xa68>)
  4053ca:	2200      	movs	r2, #0
  4053cc:	f7fd fbc8 	bl	402b60 <__adddf3>
  4053d0:	9b06      	ldr	r3, [sp, #24]
  4053d2:	4606      	mov	r6, r0
  4053d4:	f1a1 7750 	sub.w	r7, r1, #54525952	; 0x3400000
  4053d8:	2b00      	cmp	r3, #0
  4053da:	f000 8162 	beq.w	4056a2 <_dtoa_r+0xae2>
  4053de:	9b04      	ldr	r3, [sp, #16]
  4053e0:	f8dd 9018 	ldr.w	r9, [sp, #24]
  4053e4:	9312      	str	r3, [sp, #72]	; 0x48
  4053e6:	9b09      	ldr	r3, [sp, #36]	; 0x24
  4053e8:	2b00      	cmp	r3, #0
  4053ea:	f000 8221 	beq.w	405830 <_dtoa_r+0xc70>
  4053ee:	4b8b      	ldr	r3, [pc, #556]	; (40561c <_dtoa_r+0xa5c>)
  4053f0:	498e      	ldr	r1, [pc, #568]	; (40562c <_dtoa_r+0xa6c>)
  4053f2:	eb03 03c9 	add.w	r3, r3, r9, lsl #3
  4053f6:	e953 2302 	ldrd	r2, r3, [r3, #-8]
  4053fa:	2000      	movs	r0, #0
  4053fc:	f7fd fe8c 	bl	403118 <__aeabi_ddiv>
  405400:	4632      	mov	r2, r6
  405402:	463b      	mov	r3, r7
  405404:	f7fd fbaa 	bl	402b5c <__aeabi_dsub>
  405408:	e9dd 6702 	ldrd	r6, r7, [sp, #8]
  40540c:	e9cd 0110 	strd	r0, r1, [sp, #64]	; 0x40
  405410:	4639      	mov	r1, r7
  405412:	4630      	mov	r0, r6
  405414:	f7fd fff0 	bl	4033f8 <__aeabi_d2iz>
  405418:	4605      	mov	r5, r0
  40541a:	f7fd fced 	bl	402df8 <__aeabi_i2d>
  40541e:	3530      	adds	r5, #48	; 0x30
  405420:	4602      	mov	r2, r0
  405422:	460b      	mov	r3, r1
  405424:	4630      	mov	r0, r6
  405426:	4639      	mov	r1, r7
  405428:	f7fd fb98 	bl	402b5c <__aeabi_dsub>
  40542c:	fa5f f885 	uxtb.w	r8, r5
  405430:	9d07      	ldr	r5, [sp, #28]
  405432:	e9dd 2310 	ldrd	r2, r3, [sp, #64]	; 0x40
  405436:	f885 8000 	strb.w	r8, [r5]
  40543a:	4606      	mov	r6, r0
  40543c:	460f      	mov	r7, r1
  40543e:	3501      	adds	r5, #1
  405440:	f7fd ffb2 	bl	4033a8 <__aeabi_dcmplt>
  405444:	2800      	cmp	r0, #0
  405446:	f040 82b2 	bne.w	4059ae <_dtoa_r+0xdee>
  40544a:	4632      	mov	r2, r6
  40544c:	463b      	mov	r3, r7
  40544e:	2000      	movs	r0, #0
  405450:	4974      	ldr	r1, [pc, #464]	; (405624 <_dtoa_r+0xa64>)
  405452:	f7fd fb83 	bl	402b5c <__aeabi_dsub>
  405456:	4602      	mov	r2, r0
  405458:	460b      	mov	r3, r1
  40545a:	e9dd 0110 	ldrd	r0, r1, [sp, #64]	; 0x40
  40545e:	f7fd ffc1 	bl	4033e4 <__aeabi_dcmpgt>
  405462:	2800      	cmp	r0, #0
  405464:	f040 82ac 	bne.w	4059c0 <_dtoa_r+0xe00>
  405468:	f1b9 0f01 	cmp.w	r9, #1
  40546c:	f340 8138 	ble.w	4056e0 <_dtoa_r+0xb20>
  405470:	9b07      	ldr	r3, [sp, #28]
  405472:	f8cd a04c 	str.w	sl, [sp, #76]	; 0x4c
  405476:	f8cd b008 	str.w	fp, [sp, #8]
  40547a:	4499      	add	r9, r3
  40547c:	e9dd ab10 	ldrd	sl, fp, [sp, #64]	; 0x40
  405480:	46a0      	mov	r8, r4
  405482:	e00d      	b.n	4054a0 <_dtoa_r+0x8e0>
  405484:	2000      	movs	r0, #0
  405486:	4967      	ldr	r1, [pc, #412]	; (405624 <_dtoa_r+0xa64>)
  405488:	f7fd fb68 	bl	402b5c <__aeabi_dsub>
  40548c:	4652      	mov	r2, sl
  40548e:	465b      	mov	r3, fp
  405490:	f7fd ff8a 	bl	4033a8 <__aeabi_dcmplt>
  405494:	2800      	cmp	r0, #0
  405496:	f040 828e 	bne.w	4059b6 <_dtoa_r+0xdf6>
  40549a:	454d      	cmp	r5, r9
  40549c:	f000 811b 	beq.w	4056d6 <_dtoa_r+0xb16>
  4054a0:	4650      	mov	r0, sl
  4054a2:	4659      	mov	r1, fp
  4054a4:	2200      	movs	r2, #0
  4054a6:	4b62      	ldr	r3, [pc, #392]	; (405630 <_dtoa_r+0xa70>)
  4054a8:	f7fd fd0c 	bl	402ec4 <__aeabi_dmul>
  4054ac:	2200      	movs	r2, #0
  4054ae:	4b60      	ldr	r3, [pc, #384]	; (405630 <_dtoa_r+0xa70>)
  4054b0:	4682      	mov	sl, r0
  4054b2:	468b      	mov	fp, r1
  4054b4:	4630      	mov	r0, r6
  4054b6:	4639      	mov	r1, r7
  4054b8:	f7fd fd04 	bl	402ec4 <__aeabi_dmul>
  4054bc:	460f      	mov	r7, r1
  4054be:	4606      	mov	r6, r0
  4054c0:	f7fd ff9a 	bl	4033f8 <__aeabi_d2iz>
  4054c4:	4604      	mov	r4, r0
  4054c6:	f7fd fc97 	bl	402df8 <__aeabi_i2d>
  4054ca:	4602      	mov	r2, r0
  4054cc:	460b      	mov	r3, r1
  4054ce:	4630      	mov	r0, r6
  4054d0:	4639      	mov	r1, r7
  4054d2:	f7fd fb43 	bl	402b5c <__aeabi_dsub>
  4054d6:	3430      	adds	r4, #48	; 0x30
  4054d8:	b2e4      	uxtb	r4, r4
  4054da:	4652      	mov	r2, sl
  4054dc:	465b      	mov	r3, fp
  4054de:	f805 4b01 	strb.w	r4, [r5], #1
  4054e2:	4606      	mov	r6, r0
  4054e4:	460f      	mov	r7, r1
  4054e6:	f7fd ff5f 	bl	4033a8 <__aeabi_dcmplt>
  4054ea:	4632      	mov	r2, r6
  4054ec:	463b      	mov	r3, r7
  4054ee:	2800      	cmp	r0, #0
  4054f0:	d0c8      	beq.n	405484 <_dtoa_r+0x8c4>
  4054f2:	9b12      	ldr	r3, [sp, #72]	; 0x48
  4054f4:	f8dd b008 	ldr.w	fp, [sp, #8]
  4054f8:	9304      	str	r3, [sp, #16]
  4054fa:	4644      	mov	r4, r8
  4054fc:	e533      	b.n	404f66 <_dtoa_r+0x3a6>
  4054fe:	2300      	movs	r3, #0
  405500:	9309      	str	r3, [sp, #36]	; 0x24
  405502:	9b21      	ldr	r3, [sp, #132]	; 0x84
  405504:	9a04      	ldr	r2, [sp, #16]
  405506:	4413      	add	r3, r2
  405508:	930c      	str	r3, [sp, #48]	; 0x30
  40550a:	3301      	adds	r3, #1
  40550c:	2b00      	cmp	r3, #0
  40550e:	9306      	str	r3, [sp, #24]
  405510:	f340 8109 	ble.w	405726 <_dtoa_r+0xb66>
  405514:	9e06      	ldr	r6, [sp, #24]
  405516:	4637      	mov	r7, r6
  405518:	e6ef      	b.n	4052fa <_dtoa_r+0x73a>
  40551a:	2300      	movs	r3, #0
  40551c:	9309      	str	r3, [sp, #36]	; 0x24
  40551e:	e6e4      	b.n	4052ea <_dtoa_r+0x72a>
  405520:	9b06      	ldr	r3, [sp, #24]
  405522:	2b00      	cmp	r3, #0
  405524:	f73f ac6d 	bgt.w	404e02 <_dtoa_r+0x242>
  405528:	f040 8262 	bne.w	4059f0 <_dtoa_r+0xe30>
  40552c:	4640      	mov	r0, r8
  40552e:	2200      	movs	r2, #0
  405530:	4b40      	ldr	r3, [pc, #256]	; (405634 <_dtoa_r+0xa74>)
  405532:	4649      	mov	r1, r9
  405534:	f7fd fcc6 	bl	402ec4 <__aeabi_dmul>
  405538:	e9dd 2302 	ldrd	r2, r3, [sp, #8]
  40553c:	f7fd ff48 	bl	4033d0 <__aeabi_dcmpge>
  405540:	f8dd 8018 	ldr.w	r8, [sp, #24]
  405544:	4646      	mov	r6, r8
  405546:	2800      	cmp	r0, #0
  405548:	f000 808a 	beq.w	405660 <_dtoa_r+0xaa0>
  40554c:	9b21      	ldr	r3, [sp, #132]	; 0x84
  40554e:	9d07      	ldr	r5, [sp, #28]
  405550:	43db      	mvns	r3, r3
  405552:	9304      	str	r3, [sp, #16]
  405554:	4641      	mov	r1, r8
  405556:	4620      	mov	r0, r4
  405558:	f000 ffc0 	bl	4064dc <_Bfree>
  40555c:	2e00      	cmp	r6, #0
  40555e:	f47f ae2c 	bne.w	4051ba <_dtoa_r+0x5fa>
  405562:	e500      	b.n	404f66 <_dtoa_r+0x3a6>
  405564:	4659      	mov	r1, fp
  405566:	4620      	mov	r0, r4
  405568:	f001 f8f6 	bl	406758 <__pow5mult>
  40556c:	4683      	mov	fp, r0
  40556e:	e557      	b.n	405020 <_dtoa_r+0x460>
  405570:	9b02      	ldr	r3, [sp, #8]
  405572:	2b00      	cmp	r3, #0
  405574:	f47f ad66 	bne.w	405044 <_dtoa_r+0x484>
  405578:	9b03      	ldr	r3, [sp, #12]
  40557a:	f3c3 0313 	ubfx	r3, r3, #0, #20
  40557e:	2b00      	cmp	r3, #0
  405580:	f47f ad94 	bne.w	4050ac <_dtoa_r+0x4ec>
  405584:	9b03      	ldr	r3, [sp, #12]
  405586:	f023 4700 	bic.w	r7, r3, #2147483648	; 0x80000000
  40558a:	0d3f      	lsrs	r7, r7, #20
  40558c:	053f      	lsls	r7, r7, #20
  40558e:	2f00      	cmp	r7, #0
  405590:	f000 821a 	beq.w	4059c8 <_dtoa_r+0xe08>
  405594:	9b05      	ldr	r3, [sp, #20]
  405596:	3301      	adds	r3, #1
  405598:	9305      	str	r3, [sp, #20]
  40559a:	f10a 0a01 	add.w	sl, sl, #1
  40559e:	f04f 0901 	mov.w	r9, #1
  4055a2:	e585      	b.n	4050b0 <_dtoa_r+0x4f0>
  4055a4:	9a0d      	ldr	r2, [sp, #52]	; 0x34
  4055a6:	2a00      	cmp	r2, #0
  4055a8:	f000 81a5 	beq.w	4058f6 <_dtoa_r+0xd36>
  4055ac:	f203 4333 	addw	r3, r3, #1075	; 0x433
  4055b0:	9f08      	ldr	r7, [sp, #32]
  4055b2:	9d05      	ldr	r5, [sp, #20]
  4055b4:	e4ff      	b.n	404fb6 <_dtoa_r+0x3f6>
  4055b6:	f000 ff9b 	bl	4064f0 <__multadd>
  4055ba:	4657      	mov	r7, sl
  4055bc:	4606      	mov	r6, r0
  4055be:	4681      	mov	r9, r0
  4055c0:	e631      	b.n	405226 <_dtoa_r+0x666>
  4055c2:	4601      	mov	r1, r0
  4055c4:	4620      	mov	r0, r4
  4055c6:	f8cd c008 	str.w	ip, [sp, #8]
  4055ca:	f000 ff87 	bl	4064dc <_Bfree>
  4055ce:	2201      	movs	r2, #1
  4055d0:	f8dd c008 	ldr.w	ip, [sp, #8]
  4055d4:	e654      	b.n	405280 <_dtoa_r+0x6c0>
  4055d6:	4658      	mov	r0, fp
  4055d8:	4641      	mov	r1, r8
  4055da:	f001 f963 	bl	4068a4 <__mcmp>
  4055de:	2800      	cmp	r0, #0
  4055e0:	f6bf ad91 	bge.w	405106 <_dtoa_r+0x546>
  4055e4:	9f04      	ldr	r7, [sp, #16]
  4055e6:	4659      	mov	r1, fp
  4055e8:	2300      	movs	r3, #0
  4055ea:	4620      	mov	r0, r4
  4055ec:	220a      	movs	r2, #10
  4055ee:	3f01      	subs	r7, #1
  4055f0:	9704      	str	r7, [sp, #16]
  4055f2:	f000 ff7d 	bl	4064f0 <__multadd>
  4055f6:	9b09      	ldr	r3, [sp, #36]	; 0x24
  4055f8:	4683      	mov	fp, r0
  4055fa:	2b00      	cmp	r3, #0
  4055fc:	f47f adf0 	bne.w	4051e0 <_dtoa_r+0x620>
  405600:	9b0c      	ldr	r3, [sp, #48]	; 0x30
  405602:	2b00      	cmp	r3, #0
  405604:	f340 81f8 	ble.w	4059f8 <_dtoa_r+0xe38>
  405608:	9306      	str	r3, [sp, #24]
  40560a:	e583      	b.n	405114 <_dtoa_r+0x554>
  40560c:	9807      	ldr	r0, [sp, #28]
  40560e:	f7ff bb0b 	b.w	404c28 <_dtoa_r+0x68>
  405612:	9b02      	ldr	r3, [sp, #8]
  405614:	2b00      	cmp	r3, #0
  405616:	f47f ad49 	bne.w	4050ac <_dtoa_r+0x4ec>
  40561a:	e7ad      	b.n	405578 <_dtoa_r+0x9b8>
  40561c:	00408080 	.word	0x00408080
  405620:	00408158 	.word	0x00408158
  405624:	3ff00000 	.word	0x3ff00000
  405628:	401c0000 	.word	0x401c0000
  40562c:	3fe00000 	.word	0x3fe00000
  405630:	40240000 	.word	0x40240000
  405634:	40140000 	.word	0x40140000
  405638:	9b20      	ldr	r3, [sp, #128]	; 0x80
  40563a:	2b02      	cmp	r3, #2
  40563c:	f77f ad67 	ble.w	40510e <_dtoa_r+0x54e>
  405640:	9b06      	ldr	r3, [sp, #24]
  405642:	2b00      	cmp	r3, #0
  405644:	d182      	bne.n	40554c <_dtoa_r+0x98c>
  405646:	4641      	mov	r1, r8
  405648:	2205      	movs	r2, #5
  40564a:	4620      	mov	r0, r4
  40564c:	f000 ff50 	bl	4064f0 <__multadd>
  405650:	4680      	mov	r8, r0
  405652:	4641      	mov	r1, r8
  405654:	4658      	mov	r0, fp
  405656:	f001 f925 	bl	4068a4 <__mcmp>
  40565a:	2800      	cmp	r0, #0
  40565c:	f77f af76 	ble.w	40554c <_dtoa_r+0x98c>
  405660:	9a04      	ldr	r2, [sp, #16]
  405662:	9907      	ldr	r1, [sp, #28]
  405664:	2331      	movs	r3, #49	; 0x31
  405666:	3201      	adds	r2, #1
  405668:	9204      	str	r2, [sp, #16]
  40566a:	700b      	strb	r3, [r1, #0]
  40566c:	1c4d      	adds	r5, r1, #1
  40566e:	e771      	b.n	405554 <_dtoa_r+0x994>
  405670:	9a04      	ldr	r2, [sp, #16]
  405672:	3201      	adds	r2, #1
  405674:	9204      	str	r2, [sp, #16]
  405676:	9a07      	ldr	r2, [sp, #28]
  405678:	2331      	movs	r3, #49	; 0x31
  40567a:	7013      	strb	r3, [r2, #0]
  40567c:	e58d      	b.n	40519a <_dtoa_r+0x5da>
  40567e:	f8dd b008 	ldr.w	fp, [sp, #8]
  405682:	9c05      	ldr	r4, [sp, #20]
  405684:	e46f      	b.n	404f66 <_dtoa_r+0x3a6>
  405686:	4640      	mov	r0, r8
  405688:	f7fd fbb6 	bl	402df8 <__aeabi_i2d>
  40568c:	e9dd 2302 	ldrd	r2, r3, [sp, #8]
  405690:	f7fd fc18 	bl	402ec4 <__aeabi_dmul>
  405694:	2200      	movs	r2, #0
  405696:	4bbc      	ldr	r3, [pc, #752]	; (405988 <_dtoa_r+0xdc8>)
  405698:	f7fd fa62 	bl	402b60 <__adddf3>
  40569c:	4606      	mov	r6, r0
  40569e:	f1a1 7750 	sub.w	r7, r1, #54525952	; 0x3400000
  4056a2:	e9dd 0102 	ldrd	r0, r1, [sp, #8]
  4056a6:	2200      	movs	r2, #0
  4056a8:	4bb8      	ldr	r3, [pc, #736]	; (40598c <_dtoa_r+0xdcc>)
  4056aa:	f7fd fa57 	bl	402b5c <__aeabi_dsub>
  4056ae:	4632      	mov	r2, r6
  4056b0:	463b      	mov	r3, r7
  4056b2:	e9cd 0102 	strd	r0, r1, [sp, #8]
  4056b6:	f7fd fe95 	bl	4033e4 <__aeabi_dcmpgt>
  4056ba:	4680      	mov	r8, r0
  4056bc:	2800      	cmp	r0, #0
  4056be:	f040 80b3 	bne.w	405828 <_dtoa_r+0xc68>
  4056c2:	4632      	mov	r2, r6
  4056c4:	f107 4300 	add.w	r3, r7, #2147483648	; 0x80000000
  4056c8:	e9dd 0102 	ldrd	r0, r1, [sp, #8]
  4056cc:	f7fd fe6c 	bl	4033a8 <__aeabi_dcmplt>
  4056d0:	b130      	cbz	r0, 4056e0 <_dtoa_r+0xb20>
  4056d2:	4646      	mov	r6, r8
  4056d4:	e73a      	b.n	40554c <_dtoa_r+0x98c>
  4056d6:	f8dd a04c 	ldr.w	sl, [sp, #76]	; 0x4c
  4056da:	f8dd b008 	ldr.w	fp, [sp, #8]
  4056de:	4644      	mov	r4, r8
  4056e0:	e9dd 230e 	ldrd	r2, r3, [sp, #56]	; 0x38
  4056e4:	e9cd 2302 	strd	r2, r3, [sp, #8]
  4056e8:	f7ff bb7a 	b.w	404de0 <_dtoa_r+0x220>
  4056ec:	4659      	mov	r1, fp
  4056ee:	9a08      	ldr	r2, [sp, #32]
  4056f0:	4620      	mov	r0, r4
  4056f2:	f001 f831 	bl	406758 <__pow5mult>
  4056f6:	4683      	mov	fp, r0
  4056f8:	e492      	b.n	405020 <_dtoa_r+0x460>
  4056fa:	9b08      	ldr	r3, [sp, #32]
  4056fc:	9a0a      	ldr	r2, [sp, #40]	; 0x28
  4056fe:	9708      	str	r7, [sp, #32]
  405700:	1afb      	subs	r3, r7, r3
  405702:	441a      	add	r2, r3
  405704:	920a      	str	r2, [sp, #40]	; 0x28
  405706:	2700      	movs	r7, #0
  405708:	e44f      	b.n	404faa <_dtoa_r+0x3ea>
  40570a:	e9dd 230e 	ldrd	r2, r3, [sp, #56]	; 0x38
  40570e:	f04f 0802 	mov.w	r8, #2
  405712:	e9cd 2302 	strd	r2, r3, [sp, #8]
  405716:	e62a      	b.n	40536e <_dtoa_r+0x7ae>
  405718:	2601      	movs	r6, #1
  40571a:	9621      	str	r6, [sp, #132]	; 0x84
  40571c:	960c      	str	r6, [sp, #48]	; 0x30
  40571e:	9606      	str	r6, [sp, #24]
  405720:	2100      	movs	r1, #0
  405722:	6461      	str	r1, [r4, #68]	; 0x44
  405724:	e5f8      	b.n	405318 <_dtoa_r+0x758>
  405726:	461e      	mov	r6, r3
  405728:	e7fa      	b.n	405720 <_dtoa_r+0xb60>
  40572a:	2a00      	cmp	r2, #0
  40572c:	dd15      	ble.n	40575a <_dtoa_r+0xb9a>
  40572e:	4659      	mov	r1, fp
  405730:	2201      	movs	r2, #1
  405732:	4620      	mov	r0, r4
  405734:	f8cd c008 	str.w	ip, [sp, #8]
  405738:	f001 f85e 	bl	4067f8 <__lshift>
  40573c:	4641      	mov	r1, r8
  40573e:	4683      	mov	fp, r0
  405740:	f001 f8b0 	bl	4068a4 <__mcmp>
  405744:	2800      	cmp	r0, #0
  405746:	f8dd c008 	ldr.w	ip, [sp, #8]
  40574a:	f340 814a 	ble.w	4059e2 <_dtoa_r+0xe22>
  40574e:	f1bc 0f39 	cmp.w	ip, #57	; 0x39
  405752:	f000 8106 	beq.w	405962 <_dtoa_r+0xda2>
  405756:	f10c 0c01 	add.w	ip, ip, #1
  40575a:	46b2      	mov	sl, r6
  40575c:	f887 c000 	strb.w	ip, [r7]
  405760:	1c7d      	adds	r5, r7, #1
  405762:	464e      	mov	r6, r9
  405764:	e519      	b.n	40519a <_dtoa_r+0x5da>
  405766:	d104      	bne.n	405772 <_dtoa_r+0xbb2>
  405768:	f01c 0f01 	tst.w	ip, #1
  40576c:	d001      	beq.n	405772 <_dtoa_r+0xbb2>
  40576e:	e504      	b.n	40517a <_dtoa_r+0x5ba>
  405770:	4615      	mov	r5, r2
  405772:	f815 3c01 	ldrb.w	r3, [r5, #-1]
  405776:	2b30      	cmp	r3, #48	; 0x30
  405778:	f105 32ff 	add.w	r2, r5, #4294967295
  40577c:	d0f8      	beq.n	405770 <_dtoa_r+0xbb0>
  40577e:	e50c      	b.n	40519a <_dtoa_r+0x5da>
  405780:	9b04      	ldr	r3, [sp, #16]
  405782:	425d      	negs	r5, r3
  405784:	2d00      	cmp	r5, #0
  405786:	f000 80bd 	beq.w	405904 <_dtoa_r+0xd44>
  40578a:	4b81      	ldr	r3, [pc, #516]	; (405990 <_dtoa_r+0xdd0>)
  40578c:	f005 020f 	and.w	r2, r5, #15
  405790:	eb03 03c2 	add.w	r3, r3, r2, lsl #3
  405794:	e9d3 2300 	ldrd	r2, r3, [r3]
  405798:	e9dd 010e 	ldrd	r0, r1, [sp, #56]	; 0x38
  40579c:	f7fd fb92 	bl	402ec4 <__aeabi_dmul>
  4057a0:	112d      	asrs	r5, r5, #4
  4057a2:	e9cd 0102 	strd	r0, r1, [sp, #8]
  4057a6:	f000 812c 	beq.w	405a02 <_dtoa_r+0xe42>
  4057aa:	4e7a      	ldr	r6, [pc, #488]	; (405994 <_dtoa_r+0xdd4>)
  4057ac:	f04f 0802 	mov.w	r8, #2
  4057b0:	07eb      	lsls	r3, r5, #31
  4057b2:	d505      	bpl.n	4057c0 <_dtoa_r+0xc00>
  4057b4:	e9d6 2300 	ldrd	r2, r3, [r6]
  4057b8:	f108 0801 	add.w	r8, r8, #1
  4057bc:	f7fd fb82 	bl	402ec4 <__aeabi_dmul>
  4057c0:	106d      	asrs	r5, r5, #1
  4057c2:	f106 0608 	add.w	r6, r6, #8
  4057c6:	d1f3      	bne.n	4057b0 <_dtoa_r+0xbf0>
  4057c8:	e9cd 0102 	strd	r0, r1, [sp, #8]
  4057cc:	e5ea      	b.n	4053a4 <_dtoa_r+0x7e4>
  4057ce:	9a04      	ldr	r2, [sp, #16]
  4057d0:	3201      	adds	r2, #1
  4057d2:	9204      	str	r2, [sp, #16]
  4057d4:	9a07      	ldr	r2, [sp, #28]
  4057d6:	2330      	movs	r3, #48	; 0x30
  4057d8:	7013      	strb	r3, [r2, #0]
  4057da:	2331      	movs	r3, #49	; 0x31
  4057dc:	7013      	strb	r3, [r2, #0]
  4057de:	f7ff bbc2 	b.w	404f66 <_dtoa_r+0x3a6>
  4057e2:	6871      	ldr	r1, [r6, #4]
  4057e4:	4620      	mov	r0, r4
  4057e6:	f000 fe53 	bl	406490 <_Balloc>
  4057ea:	6933      	ldr	r3, [r6, #16]
  4057ec:	1c9a      	adds	r2, r3, #2
  4057ee:	4605      	mov	r5, r0
  4057f0:	0092      	lsls	r2, r2, #2
  4057f2:	f106 010c 	add.w	r1, r6, #12
  4057f6:	300c      	adds	r0, #12
  4057f8:	f000 fd48 	bl	40628c <memcpy>
  4057fc:	4620      	mov	r0, r4
  4057fe:	4629      	mov	r1, r5
  405800:	2201      	movs	r2, #1
  405802:	f000 fff9 	bl	4067f8 <__lshift>
  405806:	4681      	mov	r9, r0
  405808:	e503      	b.n	405212 <_dtoa_r+0x652>
  40580a:	f1bc 0f39 	cmp.w	ip, #57	; 0x39
  40580e:	f000 80a8 	beq.w	405962 <_dtoa_r+0xda2>
  405812:	f10c 0c01 	add.w	ip, ip, #1
  405816:	46b2      	mov	sl, r6
  405818:	f887 c000 	strb.w	ip, [r7]
  40581c:	1c7d      	adds	r5, r7, #1
  40581e:	464e      	mov	r6, r9
  405820:	e4bb      	b.n	40519a <_dtoa_r+0x5da>
  405822:	46b2      	mov	sl, r6
  405824:	464e      	mov	r6, r9
  405826:	e498      	b.n	40515a <_dtoa_r+0x59a>
  405828:	f04f 0800 	mov.w	r8, #0
  40582c:	4646      	mov	r6, r8
  40582e:	e717      	b.n	405660 <_dtoa_r+0xaa0>
  405830:	4957      	ldr	r1, [pc, #348]	; (405990 <_dtoa_r+0xdd0>)
  405832:	f109 33ff 	add.w	r3, r9, #4294967295
  405836:	eb01 01c3 	add.w	r1, r1, r3, lsl #3
  40583a:	4632      	mov	r2, r6
  40583c:	9313      	str	r3, [sp, #76]	; 0x4c
  40583e:	e9d1 0100 	ldrd	r0, r1, [r1]
  405842:	463b      	mov	r3, r7
  405844:	f7fd fb3e 	bl	402ec4 <__aeabi_dmul>
  405848:	e9dd 6702 	ldrd	r6, r7, [sp, #8]
  40584c:	e9cd 0110 	strd	r0, r1, [sp, #64]	; 0x40
  405850:	4639      	mov	r1, r7
  405852:	4630      	mov	r0, r6
  405854:	f7fd fdd0 	bl	4033f8 <__aeabi_d2iz>
  405858:	4605      	mov	r5, r0
  40585a:	f7fd facd 	bl	402df8 <__aeabi_i2d>
  40585e:	4602      	mov	r2, r0
  405860:	460b      	mov	r3, r1
  405862:	4630      	mov	r0, r6
  405864:	4639      	mov	r1, r7
  405866:	f7fd f979 	bl	402b5c <__aeabi_dsub>
  40586a:	9a07      	ldr	r2, [sp, #28]
  40586c:	3530      	adds	r5, #48	; 0x30
  40586e:	f1b9 0f01 	cmp.w	r9, #1
  405872:	7015      	strb	r5, [r2, #0]
  405874:	4606      	mov	r6, r0
  405876:	460f      	mov	r7, r1
  405878:	f102 0501 	add.w	r5, r2, #1
  40587c:	d023      	beq.n	4058c6 <_dtoa_r+0xd06>
  40587e:	9b07      	ldr	r3, [sp, #28]
  405880:	f8cd a008 	str.w	sl, [sp, #8]
  405884:	444b      	add	r3, r9
  405886:	465e      	mov	r6, fp
  405888:	469a      	mov	sl, r3
  40588a:	46ab      	mov	fp, r5
  40588c:	2200      	movs	r2, #0
  40588e:	4b42      	ldr	r3, [pc, #264]	; (405998 <_dtoa_r+0xdd8>)
  405890:	f7fd fb18 	bl	402ec4 <__aeabi_dmul>
  405894:	4689      	mov	r9, r1
  405896:	4680      	mov	r8, r0
  405898:	f7fd fdae 	bl	4033f8 <__aeabi_d2iz>
  40589c:	4607      	mov	r7, r0
  40589e:	f7fd faab 	bl	402df8 <__aeabi_i2d>
  4058a2:	3730      	adds	r7, #48	; 0x30
  4058a4:	4602      	mov	r2, r0
  4058a6:	460b      	mov	r3, r1
  4058a8:	4640      	mov	r0, r8
  4058aa:	4649      	mov	r1, r9
  4058ac:	f7fd f956 	bl	402b5c <__aeabi_dsub>
  4058b0:	f80b 7b01 	strb.w	r7, [fp], #1
  4058b4:	45d3      	cmp	fp, sl
  4058b6:	d1e9      	bne.n	40588c <_dtoa_r+0xccc>
  4058b8:	9b13      	ldr	r3, [sp, #76]	; 0x4c
  4058ba:	f8dd a008 	ldr.w	sl, [sp, #8]
  4058be:	46b3      	mov	fp, r6
  4058c0:	460f      	mov	r7, r1
  4058c2:	4606      	mov	r6, r0
  4058c4:	441d      	add	r5, r3
  4058c6:	2200      	movs	r2, #0
  4058c8:	4b34      	ldr	r3, [pc, #208]	; (40599c <_dtoa_r+0xddc>)
  4058ca:	e9dd 0110 	ldrd	r0, r1, [sp, #64]	; 0x40
  4058ce:	f7fd f947 	bl	402b60 <__adddf3>
  4058d2:	4632      	mov	r2, r6
  4058d4:	463b      	mov	r3, r7
  4058d6:	f7fd fd67 	bl	4033a8 <__aeabi_dcmplt>
  4058da:	2800      	cmp	r0, #0
  4058dc:	d047      	beq.n	40596e <_dtoa_r+0xdae>
  4058de:	9b12      	ldr	r3, [sp, #72]	; 0x48
  4058e0:	9304      	str	r3, [sp, #16]
  4058e2:	f815 8c01 	ldrb.w	r8, [r5, #-1]
  4058e6:	f7ff bb2c 	b.w	404f42 <_dtoa_r+0x382>
  4058ea:	9b05      	ldr	r3, [sp, #20]
  4058ec:	9a06      	ldr	r2, [sp, #24]
  4058ee:	1a9d      	subs	r5, r3, r2
  4058f0:	2300      	movs	r3, #0
  4058f2:	f7ff bb60 	b.w	404fb6 <_dtoa_r+0x3f6>
  4058f6:	9b14      	ldr	r3, [sp, #80]	; 0x50
  4058f8:	9f08      	ldr	r7, [sp, #32]
  4058fa:	9d05      	ldr	r5, [sp, #20]
  4058fc:	f1c3 0336 	rsb	r3, r3, #54	; 0x36
  405900:	f7ff bb59 	b.w	404fb6 <_dtoa_r+0x3f6>
  405904:	e9dd 230e 	ldrd	r2, r3, [sp, #56]	; 0x38
  405908:	f04f 0802 	mov.w	r8, #2
  40590c:	e9cd 2302 	strd	r2, r3, [sp, #8]
  405910:	e548      	b.n	4053a4 <_dtoa_r+0x7e4>
  405912:	9b06      	ldr	r3, [sp, #24]
  405914:	2b00      	cmp	r3, #0
  405916:	f43f aeb6 	beq.w	405686 <_dtoa_r+0xac6>
  40591a:	9d0c      	ldr	r5, [sp, #48]	; 0x30
  40591c:	2d00      	cmp	r5, #0
  40591e:	f77f aedf 	ble.w	4056e0 <_dtoa_r+0xb20>
  405922:	2200      	movs	r2, #0
  405924:	4b1c      	ldr	r3, [pc, #112]	; (405998 <_dtoa_r+0xdd8>)
  405926:	e9dd 0102 	ldrd	r0, r1, [sp, #8]
  40592a:	f7fd facb 	bl	402ec4 <__aeabi_dmul>
  40592e:	4606      	mov	r6, r0
  405930:	460f      	mov	r7, r1
  405932:	f108 0001 	add.w	r0, r8, #1
  405936:	e9cd 6702 	strd	r6, r7, [sp, #8]
  40593a:	f7fd fa5d 	bl	402df8 <__aeabi_i2d>
  40593e:	4602      	mov	r2, r0
  405940:	460b      	mov	r3, r1
  405942:	4630      	mov	r0, r6
  405944:	4639      	mov	r1, r7
  405946:	f7fd fabd 	bl	402ec4 <__aeabi_dmul>
  40594a:	4b0f      	ldr	r3, [pc, #60]	; (405988 <_dtoa_r+0xdc8>)
  40594c:	2200      	movs	r2, #0
  40594e:	f7fd f907 	bl	402b60 <__adddf3>
  405952:	9b04      	ldr	r3, [sp, #16]
  405954:	3b01      	subs	r3, #1
  405956:	4606      	mov	r6, r0
  405958:	f1a1 7750 	sub.w	r7, r1, #54525952	; 0x3400000
  40595c:	9312      	str	r3, [sp, #72]	; 0x48
  40595e:	46a9      	mov	r9, r5
  405960:	e541      	b.n	4053e6 <_dtoa_r+0x826>
  405962:	2239      	movs	r2, #57	; 0x39
  405964:	46b2      	mov	sl, r6
  405966:	703a      	strb	r2, [r7, #0]
  405968:	464e      	mov	r6, r9
  40596a:	1c7d      	adds	r5, r7, #1
  40596c:	e407      	b.n	40517e <_dtoa_r+0x5be>
  40596e:	e9dd 2310 	ldrd	r2, r3, [sp, #64]	; 0x40
  405972:	2000      	movs	r0, #0
  405974:	4909      	ldr	r1, [pc, #36]	; (40599c <_dtoa_r+0xddc>)
  405976:	f7fd f8f1 	bl	402b5c <__aeabi_dsub>
  40597a:	4632      	mov	r2, r6
  40597c:	463b      	mov	r3, r7
  40597e:	f7fd fd31 	bl	4033e4 <__aeabi_dcmpgt>
  405982:	b970      	cbnz	r0, 4059a2 <_dtoa_r+0xde2>
  405984:	e6ac      	b.n	4056e0 <_dtoa_r+0xb20>
  405986:	bf00      	nop
  405988:	401c0000 	.word	0x401c0000
  40598c:	40140000 	.word	0x40140000
  405990:	00408080 	.word	0x00408080
  405994:	00408158 	.word	0x00408158
  405998:	40240000 	.word	0x40240000
  40599c:	3fe00000 	.word	0x3fe00000
  4059a0:	4615      	mov	r5, r2
  4059a2:	f815 3c01 	ldrb.w	r3, [r5, #-1]
  4059a6:	2b30      	cmp	r3, #48	; 0x30
  4059a8:	f105 32ff 	add.w	r2, r5, #4294967295
  4059ac:	d0f8      	beq.n	4059a0 <_dtoa_r+0xde0>
  4059ae:	9b12      	ldr	r3, [sp, #72]	; 0x48
  4059b0:	9304      	str	r3, [sp, #16]
  4059b2:	f7ff bad8 	b.w	404f66 <_dtoa_r+0x3a6>
  4059b6:	4643      	mov	r3, r8
  4059b8:	f8dd b008 	ldr.w	fp, [sp, #8]
  4059bc:	46a0      	mov	r8, r4
  4059be:	461c      	mov	r4, r3
  4059c0:	9b12      	ldr	r3, [sp, #72]	; 0x48
  4059c2:	9304      	str	r3, [sp, #16]
  4059c4:	f7ff babd 	b.w	404f42 <_dtoa_r+0x382>
  4059c8:	46b9      	mov	r9, r7
  4059ca:	f7ff bb71 	b.w	4050b0 <_dtoa_r+0x4f0>
  4059ce:	f1bc 0f39 	cmp.w	ip, #57	; 0x39
  4059d2:	d0c6      	beq.n	405962 <_dtoa_r+0xda2>
  4059d4:	f1ba 0f00 	cmp.w	sl, #0
  4059d8:	f77f aebf 	ble.w	40575a <_dtoa_r+0xb9a>
  4059dc:	f105 0c31 	add.w	ip, r5, #49	; 0x31
  4059e0:	e6bb      	b.n	40575a <_dtoa_r+0xb9a>
  4059e2:	f47f aeba 	bne.w	40575a <_dtoa_r+0xb9a>
  4059e6:	f01c 0f01 	tst.w	ip, #1
  4059ea:	f43f aeb6 	beq.w	40575a <_dtoa_r+0xb9a>
  4059ee:	e6ae      	b.n	40574e <_dtoa_r+0xb8e>
  4059f0:	f04f 0800 	mov.w	r8, #0
  4059f4:	4646      	mov	r6, r8
  4059f6:	e5a9      	b.n	40554c <_dtoa_r+0x98c>
  4059f8:	9b20      	ldr	r3, [sp, #128]	; 0x80
  4059fa:	2b02      	cmp	r3, #2
  4059fc:	dc04      	bgt.n	405a08 <_dtoa_r+0xe48>
  4059fe:	9b0c      	ldr	r3, [sp, #48]	; 0x30
  405a00:	e602      	b.n	405608 <_dtoa_r+0xa48>
  405a02:	f04f 0802 	mov.w	r8, #2
  405a06:	e4cd      	b.n	4053a4 <_dtoa_r+0x7e4>
  405a08:	9b0c      	ldr	r3, [sp, #48]	; 0x30
  405a0a:	9306      	str	r3, [sp, #24]
  405a0c:	e618      	b.n	405640 <_dtoa_r+0xa80>
  405a0e:	9b20      	ldr	r3, [sp, #128]	; 0x80
  405a10:	2b02      	cmp	r3, #2
  405a12:	dcf9      	bgt.n	405a08 <_dtoa_r+0xe48>
  405a14:	9b0c      	ldr	r3, [sp, #48]	; 0x30
  405a16:	f7ff bbee 	b.w	4051f6 <_dtoa_r+0x636>
  405a1a:	2500      	movs	r5, #0
  405a1c:	6465      	str	r5, [r4, #68]	; 0x44
  405a1e:	4629      	mov	r1, r5
  405a20:	4620      	mov	r0, r4
  405a22:	f000 fd35 	bl	406490 <_Balloc>
  405a26:	f04f 33ff 	mov.w	r3, #4294967295
  405a2a:	9306      	str	r3, [sp, #24]
  405a2c:	930c      	str	r3, [sp, #48]	; 0x30
  405a2e:	2301      	movs	r3, #1
  405a30:	9007      	str	r0, [sp, #28]
  405a32:	9521      	str	r5, [sp, #132]	; 0x84
  405a34:	6420      	str	r0, [r4, #64]	; 0x40
  405a36:	9309      	str	r3, [sp, #36]	; 0x24
  405a38:	f7ff b9d2 	b.w	404de0 <_dtoa_r+0x220>
  405a3c:	f43f ab4d 	beq.w	4050da <_dtoa_r+0x51a>
  405a40:	f1c0 003c 	rsb	r0, r0, #60	; 0x3c
  405a44:	f7ff bb44 	b.w	4050d0 <_dtoa_r+0x510>
  405a48:	2301      	movs	r3, #1
  405a4a:	9309      	str	r3, [sp, #36]	; 0x24
  405a4c:	e559      	b.n	405502 <_dtoa_r+0x942>
  405a4e:	2501      	movs	r5, #1
  405a50:	f7ff b990 	b.w	404d74 <_dtoa_r+0x1b4>

00405a54 <__libc_fini_array>:
  405a54:	b538      	push	{r3, r4, r5, lr}
  405a56:	4b08      	ldr	r3, [pc, #32]	; (405a78 <__libc_fini_array+0x24>)
  405a58:	4d08      	ldr	r5, [pc, #32]	; (405a7c <__libc_fini_array+0x28>)
  405a5a:	1aed      	subs	r5, r5, r3
  405a5c:	10ac      	asrs	r4, r5, #2
  405a5e:	bf18      	it	ne
  405a60:	18ed      	addne	r5, r5, r3
  405a62:	d005      	beq.n	405a70 <__libc_fini_array+0x1c>
  405a64:	3c01      	subs	r4, #1
  405a66:	f855 3d04 	ldr.w	r3, [r5, #-4]!
  405a6a:	4798      	blx	r3
  405a6c:	2c00      	cmp	r4, #0
  405a6e:	d1f9      	bne.n	405a64 <__libc_fini_array+0x10>
  405a70:	e8bd 4038 	ldmia.w	sp!, {r3, r4, r5, lr}
  405a74:	f002 bb8e 	b.w	408194 <_fini>
  405a78:	004081a0 	.word	0x004081a0
  405a7c:	004081a4 	.word	0x004081a4

00405a80 <_malloc_trim_r>:
  405a80:	b5f8      	push	{r3, r4, r5, r6, r7, lr}
  405a82:	4f23      	ldr	r7, [pc, #140]	; (405b10 <_malloc_trim_r+0x90>)
  405a84:	460c      	mov	r4, r1
  405a86:	4606      	mov	r6, r0
  405a88:	f000 fcfe 	bl	406488 <__malloc_lock>
  405a8c:	68bb      	ldr	r3, [r7, #8]
  405a8e:	685d      	ldr	r5, [r3, #4]
  405a90:	f025 0503 	bic.w	r5, r5, #3
  405a94:	1b29      	subs	r1, r5, r4
  405a96:	f601 71ef 	addw	r1, r1, #4079	; 0xfef
  405a9a:	f421 617f 	bic.w	r1, r1, #4080	; 0xff0
  405a9e:	f021 010f 	bic.w	r1, r1, #15
  405aa2:	f5a1 5480 	sub.w	r4, r1, #4096	; 0x1000
  405aa6:	f5b4 5f80 	cmp.w	r4, #4096	; 0x1000
  405aaa:	db07      	blt.n	405abc <_malloc_trim_r+0x3c>
  405aac:	4630      	mov	r0, r6
  405aae:	2100      	movs	r1, #0
  405ab0:	f001 fa04 	bl	406ebc <_sbrk_r>
  405ab4:	68bb      	ldr	r3, [r7, #8]
  405ab6:	442b      	add	r3, r5
  405ab8:	4298      	cmp	r0, r3
  405aba:	d004      	beq.n	405ac6 <_malloc_trim_r+0x46>
  405abc:	4630      	mov	r0, r6
  405abe:	f000 fce5 	bl	40648c <__malloc_unlock>
  405ac2:	2000      	movs	r0, #0
  405ac4:	bdf8      	pop	{r3, r4, r5, r6, r7, pc}
  405ac6:	4630      	mov	r0, r6
  405ac8:	4261      	negs	r1, r4
  405aca:	f001 f9f7 	bl	406ebc <_sbrk_r>
  405ace:	3001      	adds	r0, #1
  405ad0:	d00d      	beq.n	405aee <_malloc_trim_r+0x6e>
  405ad2:	4b10      	ldr	r3, [pc, #64]	; (405b14 <_malloc_trim_r+0x94>)
  405ad4:	68ba      	ldr	r2, [r7, #8]
  405ad6:	6819      	ldr	r1, [r3, #0]
  405ad8:	1b2d      	subs	r5, r5, r4
  405ada:	f045 0501 	orr.w	r5, r5, #1
  405ade:	4630      	mov	r0, r6
  405ae0:	1b09      	subs	r1, r1, r4
  405ae2:	6055      	str	r5, [r2, #4]
  405ae4:	6019      	str	r1, [r3, #0]
  405ae6:	f000 fcd1 	bl	40648c <__malloc_unlock>
  405aea:	2001      	movs	r0, #1
  405aec:	bdf8      	pop	{r3, r4, r5, r6, r7, pc}
  405aee:	4630      	mov	r0, r6
  405af0:	2100      	movs	r1, #0
  405af2:	f001 f9e3 	bl	406ebc <_sbrk_r>
  405af6:	68ba      	ldr	r2, [r7, #8]
  405af8:	1a83      	subs	r3, r0, r2
  405afa:	2b0f      	cmp	r3, #15
  405afc:	ddde      	ble.n	405abc <_malloc_trim_r+0x3c>
  405afe:	4c06      	ldr	r4, [pc, #24]	; (405b18 <_malloc_trim_r+0x98>)
  405b00:	4904      	ldr	r1, [pc, #16]	; (405b14 <_malloc_trim_r+0x94>)
  405b02:	6824      	ldr	r4, [r4, #0]
  405b04:	f043 0301 	orr.w	r3, r3, #1
  405b08:	1b00      	subs	r0, r0, r4
  405b0a:	6053      	str	r3, [r2, #4]
  405b0c:	6008      	str	r0, [r1, #0]
  405b0e:	e7d5      	b.n	405abc <_malloc_trim_r+0x3c>
  405b10:	20000474 	.word	0x20000474
  405b14:	20000cf0 	.word	0x20000cf0
  405b18:	20000880 	.word	0x20000880

00405b1c <_free_r>:
  405b1c:	2900      	cmp	r1, #0
  405b1e:	d04e      	beq.n	405bbe <_free_r+0xa2>
  405b20:	e92d 41f0 	stmdb	sp!, {r4, r5, r6, r7, r8, lr}
  405b24:	460c      	mov	r4, r1
  405b26:	4680      	mov	r8, r0
  405b28:	f000 fcae 	bl	406488 <__malloc_lock>
  405b2c:	f854 7c04 	ldr.w	r7, [r4, #-4]
  405b30:	4962      	ldr	r1, [pc, #392]	; (405cbc <_free_r+0x1a0>)
  405b32:	f027 0201 	bic.w	r2, r7, #1
  405b36:	f1a4 0508 	sub.w	r5, r4, #8
  405b3a:	18ab      	adds	r3, r5, r2
  405b3c:	688e      	ldr	r6, [r1, #8]
  405b3e:	6858      	ldr	r0, [r3, #4]
  405b40:	429e      	cmp	r6, r3
  405b42:	f020 0003 	bic.w	r0, r0, #3
  405b46:	d05a      	beq.n	405bfe <_free_r+0xe2>
  405b48:	07fe      	lsls	r6, r7, #31
  405b4a:	6058      	str	r0, [r3, #4]
  405b4c:	d40b      	bmi.n	405b66 <_free_r+0x4a>
  405b4e:	f854 7c08 	ldr.w	r7, [r4, #-8]
  405b52:	1bed      	subs	r5, r5, r7
  405b54:	f101 0e08 	add.w	lr, r1, #8
  405b58:	68ac      	ldr	r4, [r5, #8]
  405b5a:	4574      	cmp	r4, lr
  405b5c:	443a      	add	r2, r7
  405b5e:	d067      	beq.n	405c30 <_free_r+0x114>
  405b60:	68ef      	ldr	r7, [r5, #12]
  405b62:	60e7      	str	r7, [r4, #12]
  405b64:	60bc      	str	r4, [r7, #8]
  405b66:	181c      	adds	r4, r3, r0
  405b68:	6864      	ldr	r4, [r4, #4]
  405b6a:	07e4      	lsls	r4, r4, #31
  405b6c:	d40c      	bmi.n	405b88 <_free_r+0x6c>
  405b6e:	4f54      	ldr	r7, [pc, #336]	; (405cc0 <_free_r+0x1a4>)
  405b70:	689c      	ldr	r4, [r3, #8]
  405b72:	42bc      	cmp	r4, r7
  405b74:	4402      	add	r2, r0
  405b76:	d07c      	beq.n	405c72 <_free_r+0x156>
  405b78:	68d8      	ldr	r0, [r3, #12]
  405b7a:	60e0      	str	r0, [r4, #12]
  405b7c:	f042 0301 	orr.w	r3, r2, #1
  405b80:	6084      	str	r4, [r0, #8]
  405b82:	606b      	str	r3, [r5, #4]
  405b84:	50aa      	str	r2, [r5, r2]
  405b86:	e003      	b.n	405b90 <_free_r+0x74>
  405b88:	f042 0301 	orr.w	r3, r2, #1
  405b8c:	606b      	str	r3, [r5, #4]
  405b8e:	50aa      	str	r2, [r5, r2]
  405b90:	f5b2 7f00 	cmp.w	r2, #512	; 0x200
  405b94:	d214      	bcs.n	405bc0 <_free_r+0xa4>
  405b96:	08d2      	lsrs	r2, r2, #3
  405b98:	eb01 03c2 	add.w	r3, r1, r2, lsl #3
  405b9c:	6848      	ldr	r0, [r1, #4]
  405b9e:	689f      	ldr	r7, [r3, #8]
  405ba0:	60af      	str	r7, [r5, #8]
  405ba2:	1092      	asrs	r2, r2, #2
  405ba4:	2401      	movs	r4, #1
  405ba6:	fa04 f202 	lsl.w	r2, r4, r2
  405baa:	4310      	orrs	r0, r2
  405bac:	60eb      	str	r3, [r5, #12]
  405bae:	6048      	str	r0, [r1, #4]
  405bb0:	609d      	str	r5, [r3, #8]
  405bb2:	60fd      	str	r5, [r7, #12]
  405bb4:	4640      	mov	r0, r8
  405bb6:	e8bd 41f0 	ldmia.w	sp!, {r4, r5, r6, r7, r8, lr}
  405bba:	f000 bc67 	b.w	40648c <__malloc_unlock>
  405bbe:	4770      	bx	lr
  405bc0:	0a53      	lsrs	r3, r2, #9
  405bc2:	2b04      	cmp	r3, #4
  405bc4:	d847      	bhi.n	405c56 <_free_r+0x13a>
  405bc6:	0993      	lsrs	r3, r2, #6
  405bc8:	f103 0438 	add.w	r4, r3, #56	; 0x38
  405bcc:	0060      	lsls	r0, r4, #1
  405bce:	eb01 0080 	add.w	r0, r1, r0, lsl #2
  405bd2:	493a      	ldr	r1, [pc, #232]	; (405cbc <_free_r+0x1a0>)
  405bd4:	6883      	ldr	r3, [r0, #8]
  405bd6:	4283      	cmp	r3, r0
  405bd8:	d043      	beq.n	405c62 <_free_r+0x146>
  405bda:	6859      	ldr	r1, [r3, #4]
  405bdc:	f021 0103 	bic.w	r1, r1, #3
  405be0:	4291      	cmp	r1, r2
  405be2:	d902      	bls.n	405bea <_free_r+0xce>
  405be4:	689b      	ldr	r3, [r3, #8]
  405be6:	4298      	cmp	r0, r3
  405be8:	d1f7      	bne.n	405bda <_free_r+0xbe>
  405bea:	68da      	ldr	r2, [r3, #12]
  405bec:	60ea      	str	r2, [r5, #12]
  405bee:	60ab      	str	r3, [r5, #8]
  405bf0:	4640      	mov	r0, r8
  405bf2:	6095      	str	r5, [r2, #8]
  405bf4:	60dd      	str	r5, [r3, #12]
  405bf6:	e8bd 41f0 	ldmia.w	sp!, {r4, r5, r6, r7, r8, lr}
  405bfa:	f000 bc47 	b.w	40648c <__malloc_unlock>
  405bfe:	07ff      	lsls	r7, r7, #31
  405c00:	4402      	add	r2, r0
  405c02:	d407      	bmi.n	405c14 <_free_r+0xf8>
  405c04:	f854 3c08 	ldr.w	r3, [r4, #-8]
  405c08:	1aed      	subs	r5, r5, r3
  405c0a:	441a      	add	r2, r3
  405c0c:	68a8      	ldr	r0, [r5, #8]
  405c0e:	68eb      	ldr	r3, [r5, #12]
  405c10:	60c3      	str	r3, [r0, #12]
  405c12:	6098      	str	r0, [r3, #8]
  405c14:	4b2b      	ldr	r3, [pc, #172]	; (405cc4 <_free_r+0x1a8>)
  405c16:	681b      	ldr	r3, [r3, #0]
  405c18:	f042 0001 	orr.w	r0, r2, #1
  405c1c:	429a      	cmp	r2, r3
  405c1e:	6068      	str	r0, [r5, #4]
  405c20:	608d      	str	r5, [r1, #8]
  405c22:	d3c7      	bcc.n	405bb4 <_free_r+0x98>
  405c24:	4b28      	ldr	r3, [pc, #160]	; (405cc8 <_free_r+0x1ac>)
  405c26:	4640      	mov	r0, r8
  405c28:	6819      	ldr	r1, [r3, #0]
  405c2a:	f7ff ff29 	bl	405a80 <_malloc_trim_r>
  405c2e:	e7c1      	b.n	405bb4 <_free_r+0x98>
  405c30:	1819      	adds	r1, r3, r0
  405c32:	6849      	ldr	r1, [r1, #4]
  405c34:	07c9      	lsls	r1, r1, #31
  405c36:	d409      	bmi.n	405c4c <_free_r+0x130>
  405c38:	68d9      	ldr	r1, [r3, #12]
  405c3a:	689b      	ldr	r3, [r3, #8]
  405c3c:	4402      	add	r2, r0
  405c3e:	f042 0001 	orr.w	r0, r2, #1
  405c42:	60d9      	str	r1, [r3, #12]
  405c44:	608b      	str	r3, [r1, #8]
  405c46:	6068      	str	r0, [r5, #4]
  405c48:	50aa      	str	r2, [r5, r2]
  405c4a:	e7b3      	b.n	405bb4 <_free_r+0x98>
  405c4c:	f042 0301 	orr.w	r3, r2, #1
  405c50:	606b      	str	r3, [r5, #4]
  405c52:	50aa      	str	r2, [r5, r2]
  405c54:	e7ae      	b.n	405bb4 <_free_r+0x98>
  405c56:	2b14      	cmp	r3, #20
  405c58:	d814      	bhi.n	405c84 <_free_r+0x168>
  405c5a:	f103 045b 	add.w	r4, r3, #91	; 0x5b
  405c5e:	0060      	lsls	r0, r4, #1
  405c60:	e7b5      	b.n	405bce <_free_r+0xb2>
  405c62:	684a      	ldr	r2, [r1, #4]
  405c64:	10a4      	asrs	r4, r4, #2
  405c66:	2001      	movs	r0, #1
  405c68:	40a0      	lsls	r0, r4
  405c6a:	4302      	orrs	r2, r0
  405c6c:	604a      	str	r2, [r1, #4]
  405c6e:	461a      	mov	r2, r3
  405c70:	e7bc      	b.n	405bec <_free_r+0xd0>
  405c72:	f042 0301 	orr.w	r3, r2, #1
  405c76:	614d      	str	r5, [r1, #20]
  405c78:	610d      	str	r5, [r1, #16]
  405c7a:	60ec      	str	r4, [r5, #12]
  405c7c:	60ac      	str	r4, [r5, #8]
  405c7e:	606b      	str	r3, [r5, #4]
  405c80:	50aa      	str	r2, [r5, r2]
  405c82:	e797      	b.n	405bb4 <_free_r+0x98>
  405c84:	2b54      	cmp	r3, #84	; 0x54
  405c86:	d804      	bhi.n	405c92 <_free_r+0x176>
  405c88:	0b13      	lsrs	r3, r2, #12
  405c8a:	f103 046e 	add.w	r4, r3, #110	; 0x6e
  405c8e:	0060      	lsls	r0, r4, #1
  405c90:	e79d      	b.n	405bce <_free_r+0xb2>
  405c92:	f5b3 7faa 	cmp.w	r3, #340	; 0x154
  405c96:	d804      	bhi.n	405ca2 <_free_r+0x186>
  405c98:	0bd3      	lsrs	r3, r2, #15
  405c9a:	f103 0477 	add.w	r4, r3, #119	; 0x77
  405c9e:	0060      	lsls	r0, r4, #1
  405ca0:	e795      	b.n	405bce <_free_r+0xb2>
  405ca2:	f240 5054 	movw	r0, #1364	; 0x554
  405ca6:	4283      	cmp	r3, r0
  405ca8:	d804      	bhi.n	405cb4 <_free_r+0x198>
  405caa:	0c93      	lsrs	r3, r2, #18
  405cac:	f103 047c 	add.w	r4, r3, #124	; 0x7c
  405cb0:	0060      	lsls	r0, r4, #1
  405cb2:	e78c      	b.n	405bce <_free_r+0xb2>
  405cb4:	20fc      	movs	r0, #252	; 0xfc
  405cb6:	247e      	movs	r4, #126	; 0x7e
  405cb8:	e789      	b.n	405bce <_free_r+0xb2>
  405cba:	bf00      	nop
  405cbc:	20000474 	.word	0x20000474
  405cc0:	2000047c 	.word	0x2000047c
  405cc4:	2000087c 	.word	0x2000087c
  405cc8:	20000cec 	.word	0x20000cec

00405ccc <_localeconv_r>:
  405ccc:	4800      	ldr	r0, [pc, #0]	; (405cd0 <_localeconv_r+0x4>)
  405cce:	4770      	bx	lr
  405cd0:	2000043c 	.word	0x2000043c

00405cd4 <_malloc_r>:
  405cd4:	e92d 4ff0 	stmdb	sp!, {r4, r5, r6, r7, r8, r9, sl, fp, lr}
  405cd8:	f101 050b 	add.w	r5, r1, #11
  405cdc:	2d16      	cmp	r5, #22
  405cde:	b083      	sub	sp, #12
  405ce0:	4606      	mov	r6, r0
  405ce2:	d927      	bls.n	405d34 <_malloc_r+0x60>
  405ce4:	f035 0507 	bics.w	r5, r5, #7
  405ce8:	f100 80b6 	bmi.w	405e58 <_malloc_r+0x184>
  405cec:	42a9      	cmp	r1, r5
  405cee:	f200 80b3 	bhi.w	405e58 <_malloc_r+0x184>
  405cf2:	f000 fbc9 	bl	406488 <__malloc_lock>
  405cf6:	f5b5 7ffc 	cmp.w	r5, #504	; 0x1f8
  405cfa:	d222      	bcs.n	405d42 <_malloc_r+0x6e>
  405cfc:	4fc2      	ldr	r7, [pc, #776]	; (406008 <_malloc_r+0x334>)
  405cfe:	08e8      	lsrs	r0, r5, #3
  405d00:	eb07 03c0 	add.w	r3, r7, r0, lsl #3
  405d04:	68dc      	ldr	r4, [r3, #12]
  405d06:	429c      	cmp	r4, r3
  405d08:	f000 81c8 	beq.w	40609c <_malloc_r+0x3c8>
  405d0c:	6863      	ldr	r3, [r4, #4]
  405d0e:	68e1      	ldr	r1, [r4, #12]
  405d10:	68a5      	ldr	r5, [r4, #8]
  405d12:	f023 0303 	bic.w	r3, r3, #3
  405d16:	4423      	add	r3, r4
  405d18:	4630      	mov	r0, r6
  405d1a:	685a      	ldr	r2, [r3, #4]
  405d1c:	60e9      	str	r1, [r5, #12]
  405d1e:	f042 0201 	orr.w	r2, r2, #1
  405d22:	608d      	str	r5, [r1, #8]
  405d24:	605a      	str	r2, [r3, #4]
  405d26:	f000 fbb1 	bl	40648c <__malloc_unlock>
  405d2a:	3408      	adds	r4, #8
  405d2c:	4620      	mov	r0, r4
  405d2e:	b003      	add	sp, #12
  405d30:	e8bd 8ff0 	ldmia.w	sp!, {r4, r5, r6, r7, r8, r9, sl, fp, pc}
  405d34:	2910      	cmp	r1, #16
  405d36:	f200 808f 	bhi.w	405e58 <_malloc_r+0x184>
  405d3a:	f000 fba5 	bl	406488 <__malloc_lock>
  405d3e:	2510      	movs	r5, #16
  405d40:	e7dc      	b.n	405cfc <_malloc_r+0x28>
  405d42:	0a68      	lsrs	r0, r5, #9
  405d44:	f000 808f 	beq.w	405e66 <_malloc_r+0x192>
  405d48:	2804      	cmp	r0, #4
  405d4a:	f200 8154 	bhi.w	405ff6 <_malloc_r+0x322>
  405d4e:	09a8      	lsrs	r0, r5, #6
  405d50:	3038      	adds	r0, #56	; 0x38
  405d52:	0041      	lsls	r1, r0, #1
  405d54:	4fac      	ldr	r7, [pc, #688]	; (406008 <_malloc_r+0x334>)
  405d56:	eb07 0181 	add.w	r1, r7, r1, lsl #2
  405d5a:	68cc      	ldr	r4, [r1, #12]
  405d5c:	42a1      	cmp	r1, r4
  405d5e:	d106      	bne.n	405d6e <_malloc_r+0x9a>
  405d60:	e00c      	b.n	405d7c <_malloc_r+0xa8>
  405d62:	2a00      	cmp	r2, #0
  405d64:	f280 8082 	bge.w	405e6c <_malloc_r+0x198>
  405d68:	68e4      	ldr	r4, [r4, #12]
  405d6a:	42a1      	cmp	r1, r4
  405d6c:	d006      	beq.n	405d7c <_malloc_r+0xa8>
  405d6e:	6863      	ldr	r3, [r4, #4]
  405d70:	f023 0303 	bic.w	r3, r3, #3
  405d74:	1b5a      	subs	r2, r3, r5
  405d76:	2a0f      	cmp	r2, #15
  405d78:	ddf3      	ble.n	405d62 <_malloc_r+0x8e>
  405d7a:	3801      	subs	r0, #1
  405d7c:	3001      	adds	r0, #1
  405d7e:	49a2      	ldr	r1, [pc, #648]	; (406008 <_malloc_r+0x334>)
  405d80:	693c      	ldr	r4, [r7, #16]
  405d82:	f101 0e08 	add.w	lr, r1, #8
  405d86:	4574      	cmp	r4, lr
  405d88:	f000 817d 	beq.w	406086 <_malloc_r+0x3b2>
  405d8c:	6863      	ldr	r3, [r4, #4]
  405d8e:	f023 0303 	bic.w	r3, r3, #3
  405d92:	1b5a      	subs	r2, r3, r5
  405d94:	2a0f      	cmp	r2, #15
  405d96:	f300 8163 	bgt.w	406060 <_malloc_r+0x38c>
  405d9a:	2a00      	cmp	r2, #0
  405d9c:	f8c1 e014 	str.w	lr, [r1, #20]
  405da0:	f8c1 e010 	str.w	lr, [r1, #16]
  405da4:	da73      	bge.n	405e8e <_malloc_r+0x1ba>
  405da6:	f5b3 7f00 	cmp.w	r3, #512	; 0x200
  405daa:	f080 8139 	bcs.w	406020 <_malloc_r+0x34c>
  405dae:	08db      	lsrs	r3, r3, #3
  405db0:	eb01 08c3 	add.w	r8, r1, r3, lsl #3
  405db4:	ea4f 0ca3 	mov.w	ip, r3, asr #2
  405db8:	684a      	ldr	r2, [r1, #4]
  405dba:	f8d8 9008 	ldr.w	r9, [r8, #8]
  405dbe:	f8c4 9008 	str.w	r9, [r4, #8]
  405dc2:	2301      	movs	r3, #1
  405dc4:	fa03 f30c 	lsl.w	r3, r3, ip
  405dc8:	4313      	orrs	r3, r2
  405dca:	f8c4 800c 	str.w	r8, [r4, #12]
  405dce:	604b      	str	r3, [r1, #4]
  405dd0:	f8c8 4008 	str.w	r4, [r8, #8]
  405dd4:	f8c9 400c 	str.w	r4, [r9, #12]
  405dd8:	1082      	asrs	r2, r0, #2
  405dda:	2401      	movs	r4, #1
  405ddc:	4094      	lsls	r4, r2
  405dde:	429c      	cmp	r4, r3
  405de0:	d862      	bhi.n	405ea8 <_malloc_r+0x1d4>
  405de2:	4223      	tst	r3, r4
  405de4:	d106      	bne.n	405df4 <_malloc_r+0x120>
  405de6:	f020 0003 	bic.w	r0, r0, #3
  405dea:	0064      	lsls	r4, r4, #1
  405dec:	4223      	tst	r3, r4
  405dee:	f100 0004 	add.w	r0, r0, #4
  405df2:	d0fa      	beq.n	405dea <_malloc_r+0x116>
  405df4:	eb07 08c0 	add.w	r8, r7, r0, lsl #3
  405df8:	46c4      	mov	ip, r8
  405dfa:	4681      	mov	r9, r0
  405dfc:	f8dc 300c 	ldr.w	r3, [ip, #12]
  405e00:	459c      	cmp	ip, r3
  405e02:	d107      	bne.n	405e14 <_malloc_r+0x140>
  405e04:	e141      	b.n	40608a <_malloc_r+0x3b6>
  405e06:	2900      	cmp	r1, #0
  405e08:	f280 8151 	bge.w	4060ae <_malloc_r+0x3da>
  405e0c:	68db      	ldr	r3, [r3, #12]
  405e0e:	459c      	cmp	ip, r3
  405e10:	f000 813b 	beq.w	40608a <_malloc_r+0x3b6>
  405e14:	685a      	ldr	r2, [r3, #4]
  405e16:	f022 0203 	bic.w	r2, r2, #3
  405e1a:	1b51      	subs	r1, r2, r5
  405e1c:	290f      	cmp	r1, #15
  405e1e:	ddf2      	ble.n	405e06 <_malloc_r+0x132>
  405e20:	461c      	mov	r4, r3
  405e22:	f8d3 c00c 	ldr.w	ip, [r3, #12]
  405e26:	f854 8f08 	ldr.w	r8, [r4, #8]!
  405e2a:	195a      	adds	r2, r3, r5
  405e2c:	f045 0901 	orr.w	r9, r5, #1
  405e30:	f041 0501 	orr.w	r5, r1, #1
  405e34:	f8c3 9004 	str.w	r9, [r3, #4]
  405e38:	4630      	mov	r0, r6
  405e3a:	f8c8 c00c 	str.w	ip, [r8, #12]
  405e3e:	f8cc 8008 	str.w	r8, [ip, #8]
  405e42:	617a      	str	r2, [r7, #20]
  405e44:	613a      	str	r2, [r7, #16]
  405e46:	f8c2 e00c 	str.w	lr, [r2, #12]
  405e4a:	f8c2 e008 	str.w	lr, [r2, #8]
  405e4e:	6055      	str	r5, [r2, #4]
  405e50:	5051      	str	r1, [r2, r1]
  405e52:	f000 fb1b 	bl	40648c <__malloc_unlock>
  405e56:	e769      	b.n	405d2c <_malloc_r+0x58>
  405e58:	2400      	movs	r4, #0
  405e5a:	230c      	movs	r3, #12
  405e5c:	4620      	mov	r0, r4
  405e5e:	6033      	str	r3, [r6, #0]
  405e60:	b003      	add	sp, #12
  405e62:	e8bd 8ff0 	ldmia.w	sp!, {r4, r5, r6, r7, r8, r9, sl, fp, pc}
  405e66:	217e      	movs	r1, #126	; 0x7e
  405e68:	203f      	movs	r0, #63	; 0x3f
  405e6a:	e773      	b.n	405d54 <_malloc_r+0x80>
  405e6c:	4423      	add	r3, r4
  405e6e:	68e1      	ldr	r1, [r4, #12]
  405e70:	685a      	ldr	r2, [r3, #4]
  405e72:	68a5      	ldr	r5, [r4, #8]
  405e74:	f042 0201 	orr.w	r2, r2, #1
  405e78:	60e9      	str	r1, [r5, #12]
  405e7a:	4630      	mov	r0, r6
  405e7c:	608d      	str	r5, [r1, #8]
  405e7e:	605a      	str	r2, [r3, #4]
  405e80:	f000 fb04 	bl	40648c <__malloc_unlock>
  405e84:	3408      	adds	r4, #8
  405e86:	4620      	mov	r0, r4
  405e88:	b003      	add	sp, #12
  405e8a:	e8bd 8ff0 	ldmia.w	sp!, {r4, r5, r6, r7, r8, r9, sl, fp, pc}
  405e8e:	4423      	add	r3, r4
  405e90:	4630      	mov	r0, r6
  405e92:	685a      	ldr	r2, [r3, #4]
  405e94:	f042 0201 	orr.w	r2, r2, #1
  405e98:	605a      	str	r2, [r3, #4]
  405e9a:	f000 faf7 	bl	40648c <__malloc_unlock>
  405e9e:	3408      	adds	r4, #8
  405ea0:	4620      	mov	r0, r4
  405ea2:	b003      	add	sp, #12
  405ea4:	e8bd 8ff0 	ldmia.w	sp!, {r4, r5, r6, r7, r8, r9, sl, fp, pc}
  405ea8:	68bc      	ldr	r4, [r7, #8]
  405eaa:	6863      	ldr	r3, [r4, #4]
  405eac:	f023 0803 	bic.w	r8, r3, #3
  405eb0:	4545      	cmp	r5, r8
  405eb2:	d804      	bhi.n	405ebe <_malloc_r+0x1ea>
  405eb4:	ebc5 0308 	rsb	r3, r5, r8
  405eb8:	2b0f      	cmp	r3, #15
  405eba:	f300 808c 	bgt.w	405fd6 <_malloc_r+0x302>
  405ebe:	4b53      	ldr	r3, [pc, #332]	; (40600c <_malloc_r+0x338>)
  405ec0:	f8df a158 	ldr.w	sl, [pc, #344]	; 40601c <_malloc_r+0x348>
  405ec4:	681a      	ldr	r2, [r3, #0]
  405ec6:	f8da 3000 	ldr.w	r3, [sl]
  405eca:	3301      	adds	r3, #1
  405ecc:	442a      	add	r2, r5
  405ece:	eb04 0b08 	add.w	fp, r4, r8
  405ed2:	f000 8150 	beq.w	406176 <_malloc_r+0x4a2>
  405ed6:	f502 5280 	add.w	r2, r2, #4096	; 0x1000
  405eda:	320f      	adds	r2, #15
  405edc:	f422 627f 	bic.w	r2, r2, #4080	; 0xff0
  405ee0:	f022 020f 	bic.w	r2, r2, #15
  405ee4:	4611      	mov	r1, r2
  405ee6:	4630      	mov	r0, r6
  405ee8:	9201      	str	r2, [sp, #4]
  405eea:	f000 ffe7 	bl	406ebc <_sbrk_r>
  405eee:	f1b0 3fff 	cmp.w	r0, #4294967295
  405ef2:	4681      	mov	r9, r0
  405ef4:	9a01      	ldr	r2, [sp, #4]
  405ef6:	f000 8147 	beq.w	406188 <_malloc_r+0x4b4>
  405efa:	4583      	cmp	fp, r0
  405efc:	f200 80ee 	bhi.w	4060dc <_malloc_r+0x408>
  405f00:	4b43      	ldr	r3, [pc, #268]	; (406010 <_malloc_r+0x33c>)
  405f02:	6819      	ldr	r1, [r3, #0]
  405f04:	45cb      	cmp	fp, r9
  405f06:	4411      	add	r1, r2
  405f08:	6019      	str	r1, [r3, #0]
  405f0a:	f000 8142 	beq.w	406192 <_malloc_r+0x4be>
  405f0e:	f8da 0000 	ldr.w	r0, [sl]
  405f12:	f8df e108 	ldr.w	lr, [pc, #264]	; 40601c <_malloc_r+0x348>
  405f16:	3001      	adds	r0, #1
  405f18:	bf1b      	ittet	ne
  405f1a:	ebcb 0b09 	rsbne	fp, fp, r9
  405f1e:	4459      	addne	r1, fp
  405f20:	f8ce 9000 	streq.w	r9, [lr]
  405f24:	6019      	strne	r1, [r3, #0]
  405f26:	f019 0107 	ands.w	r1, r9, #7
  405f2a:	f000 8107 	beq.w	40613c <_malloc_r+0x468>
  405f2e:	f1c1 0008 	rsb	r0, r1, #8
  405f32:	f5c1 5180 	rsb	r1, r1, #4096	; 0x1000
  405f36:	4481      	add	r9, r0
  405f38:	3108      	adds	r1, #8
  405f3a:	444a      	add	r2, r9
  405f3c:	f3c2 020b 	ubfx	r2, r2, #0, #12
  405f40:	ebc2 0a01 	rsb	sl, r2, r1
  405f44:	4651      	mov	r1, sl
  405f46:	4630      	mov	r0, r6
  405f48:	9301      	str	r3, [sp, #4]
  405f4a:	f000 ffb7 	bl	406ebc <_sbrk_r>
  405f4e:	1c43      	adds	r3, r0, #1
  405f50:	9b01      	ldr	r3, [sp, #4]
  405f52:	f000 812c 	beq.w	4061ae <_malloc_r+0x4da>
  405f56:	ebc9 0200 	rsb	r2, r9, r0
  405f5a:	4452      	add	r2, sl
  405f5c:	f042 0201 	orr.w	r2, r2, #1
  405f60:	6819      	ldr	r1, [r3, #0]
  405f62:	f8c7 9008 	str.w	r9, [r7, #8]
  405f66:	4451      	add	r1, sl
  405f68:	42bc      	cmp	r4, r7
  405f6a:	f8c9 2004 	str.w	r2, [r9, #4]
  405f6e:	6019      	str	r1, [r3, #0]
  405f70:	f8df a09c 	ldr.w	sl, [pc, #156]	; 406010 <_malloc_r+0x33c>
  405f74:	d016      	beq.n	405fa4 <_malloc_r+0x2d0>
  405f76:	f1b8 0f0f 	cmp.w	r8, #15
  405f7a:	f240 80ee 	bls.w	40615a <_malloc_r+0x486>
  405f7e:	6862      	ldr	r2, [r4, #4]
  405f80:	f1a8 030c 	sub.w	r3, r8, #12
  405f84:	f023 0307 	bic.w	r3, r3, #7
  405f88:	18e0      	adds	r0, r4, r3
  405f8a:	f002 0201 	and.w	r2, r2, #1
  405f8e:	f04f 0e05 	mov.w	lr, #5
  405f92:	431a      	orrs	r2, r3
  405f94:	2b0f      	cmp	r3, #15
  405f96:	6062      	str	r2, [r4, #4]
  405f98:	f8c0 e004 	str.w	lr, [r0, #4]
  405f9c:	f8c0 e008 	str.w	lr, [r0, #8]
  405fa0:	f200 8109 	bhi.w	4061b6 <_malloc_r+0x4e2>
  405fa4:	4b1b      	ldr	r3, [pc, #108]	; (406014 <_malloc_r+0x340>)
  405fa6:	68bc      	ldr	r4, [r7, #8]
  405fa8:	681a      	ldr	r2, [r3, #0]
  405faa:	4291      	cmp	r1, r2
  405fac:	bf88      	it	hi
  405fae:	6019      	strhi	r1, [r3, #0]
  405fb0:	4b19      	ldr	r3, [pc, #100]	; (406018 <_malloc_r+0x344>)
  405fb2:	681a      	ldr	r2, [r3, #0]
  405fb4:	4291      	cmp	r1, r2
  405fb6:	6862      	ldr	r2, [r4, #4]
  405fb8:	bf88      	it	hi
  405fba:	6019      	strhi	r1, [r3, #0]
  405fbc:	f022 0203 	bic.w	r2, r2, #3
  405fc0:	4295      	cmp	r5, r2
  405fc2:	eba2 0305 	sub.w	r3, r2, r5
  405fc6:	d801      	bhi.n	405fcc <_malloc_r+0x2f8>
  405fc8:	2b0f      	cmp	r3, #15
  405fca:	dc04      	bgt.n	405fd6 <_malloc_r+0x302>
  405fcc:	4630      	mov	r0, r6
  405fce:	f000 fa5d 	bl	40648c <__malloc_unlock>
  405fd2:	2400      	movs	r4, #0
  405fd4:	e6aa      	b.n	405d2c <_malloc_r+0x58>
  405fd6:	1962      	adds	r2, r4, r5
  405fd8:	f043 0301 	orr.w	r3, r3, #1
  405fdc:	f045 0501 	orr.w	r5, r5, #1
  405fe0:	6065      	str	r5, [r4, #4]
  405fe2:	4630      	mov	r0, r6
  405fe4:	60ba      	str	r2, [r7, #8]
  405fe6:	6053      	str	r3, [r2, #4]
  405fe8:	f000 fa50 	bl	40648c <__malloc_unlock>
  405fec:	3408      	adds	r4, #8
  405fee:	4620      	mov	r0, r4
  405ff0:	b003      	add	sp, #12
  405ff2:	e8bd 8ff0 	ldmia.w	sp!, {r4, r5, r6, r7, r8, r9, sl, fp, pc}
  405ff6:	2814      	cmp	r0, #20
  405ff8:	d968      	bls.n	4060cc <_malloc_r+0x3f8>
  405ffa:	2854      	cmp	r0, #84	; 0x54
  405ffc:	f200 8097 	bhi.w	40612e <_malloc_r+0x45a>
  406000:	0b28      	lsrs	r0, r5, #12
  406002:	306e      	adds	r0, #110	; 0x6e
  406004:	0041      	lsls	r1, r0, #1
  406006:	e6a5      	b.n	405d54 <_malloc_r+0x80>
  406008:	20000474 	.word	0x20000474
  40600c:	20000cec 	.word	0x20000cec
  406010:	20000cf0 	.word	0x20000cf0
  406014:	20000ce8 	.word	0x20000ce8
  406018:	20000ce4 	.word	0x20000ce4
  40601c:	20000880 	.word	0x20000880
  406020:	0a5a      	lsrs	r2, r3, #9
  406022:	2a04      	cmp	r2, #4
  406024:	d955      	bls.n	4060d2 <_malloc_r+0x3fe>
  406026:	2a14      	cmp	r2, #20
  406028:	f200 80a7 	bhi.w	40617a <_malloc_r+0x4a6>
  40602c:	325b      	adds	r2, #91	; 0x5b
  40602e:	ea4f 0c42 	mov.w	ip, r2, lsl #1
  406032:	eb07 0c8c 	add.w	ip, r7, ip, lsl #2
  406036:	f8df 81bc 	ldr.w	r8, [pc, #444]	; 4061f4 <_malloc_r+0x520>
  40603a:	f8dc 1008 	ldr.w	r1, [ip, #8]
  40603e:	4561      	cmp	r1, ip
  406040:	d07f      	beq.n	406142 <_malloc_r+0x46e>
  406042:	684a      	ldr	r2, [r1, #4]
  406044:	f022 0203 	bic.w	r2, r2, #3
  406048:	4293      	cmp	r3, r2
  40604a:	d202      	bcs.n	406052 <_malloc_r+0x37e>
  40604c:	6889      	ldr	r1, [r1, #8]
  40604e:	458c      	cmp	ip, r1
  406050:	d1f7      	bne.n	406042 <_malloc_r+0x36e>
  406052:	68ca      	ldr	r2, [r1, #12]
  406054:	687b      	ldr	r3, [r7, #4]
  406056:	60e2      	str	r2, [r4, #12]
  406058:	60a1      	str	r1, [r4, #8]
  40605a:	6094      	str	r4, [r2, #8]
  40605c:	60cc      	str	r4, [r1, #12]
  40605e:	e6bb      	b.n	405dd8 <_malloc_r+0x104>
  406060:	1963      	adds	r3, r4, r5
  406062:	f042 0701 	orr.w	r7, r2, #1
  406066:	f045 0501 	orr.w	r5, r5, #1
  40606a:	6065      	str	r5, [r4, #4]
  40606c:	4630      	mov	r0, r6
  40606e:	614b      	str	r3, [r1, #20]
  406070:	610b      	str	r3, [r1, #16]
  406072:	f8c3 e00c 	str.w	lr, [r3, #12]
  406076:	f8c3 e008 	str.w	lr, [r3, #8]
  40607a:	605f      	str	r7, [r3, #4]
  40607c:	509a      	str	r2, [r3, r2]
  40607e:	3408      	adds	r4, #8
  406080:	f000 fa04 	bl	40648c <__malloc_unlock>
  406084:	e652      	b.n	405d2c <_malloc_r+0x58>
  406086:	684b      	ldr	r3, [r1, #4]
  406088:	e6a6      	b.n	405dd8 <_malloc_r+0x104>
  40608a:	f109 0901 	add.w	r9, r9, #1
  40608e:	f019 0f03 	tst.w	r9, #3
  406092:	f10c 0c08 	add.w	ip, ip, #8
  406096:	f47f aeb1 	bne.w	405dfc <_malloc_r+0x128>
  40609a:	e02c      	b.n	4060f6 <_malloc_r+0x422>
  40609c:	f104 0308 	add.w	r3, r4, #8
  4060a0:	6964      	ldr	r4, [r4, #20]
  4060a2:	42a3      	cmp	r3, r4
  4060a4:	bf08      	it	eq
  4060a6:	3002      	addeq	r0, #2
  4060a8:	f43f ae69 	beq.w	405d7e <_malloc_r+0xaa>
  4060ac:	e62e      	b.n	405d0c <_malloc_r+0x38>
  4060ae:	441a      	add	r2, r3
  4060b0:	461c      	mov	r4, r3
  4060b2:	6851      	ldr	r1, [r2, #4]
  4060b4:	68db      	ldr	r3, [r3, #12]
  4060b6:	f854 5f08 	ldr.w	r5, [r4, #8]!
  4060ba:	f041 0101 	orr.w	r1, r1, #1
  4060be:	6051      	str	r1, [r2, #4]
  4060c0:	4630      	mov	r0, r6
  4060c2:	60eb      	str	r3, [r5, #12]
  4060c4:	609d      	str	r5, [r3, #8]
  4060c6:	f000 f9e1 	bl	40648c <__malloc_unlock>
  4060ca:	e62f      	b.n	405d2c <_malloc_r+0x58>
  4060cc:	305b      	adds	r0, #91	; 0x5b
  4060ce:	0041      	lsls	r1, r0, #1
  4060d0:	e640      	b.n	405d54 <_malloc_r+0x80>
  4060d2:	099a      	lsrs	r2, r3, #6
  4060d4:	3238      	adds	r2, #56	; 0x38
  4060d6:	ea4f 0c42 	mov.w	ip, r2, lsl #1
  4060da:	e7aa      	b.n	406032 <_malloc_r+0x35e>
  4060dc:	42bc      	cmp	r4, r7
  4060de:	4b45      	ldr	r3, [pc, #276]	; (4061f4 <_malloc_r+0x520>)
  4060e0:	f43f af0e 	beq.w	405f00 <_malloc_r+0x22c>
  4060e4:	689c      	ldr	r4, [r3, #8]
  4060e6:	6862      	ldr	r2, [r4, #4]
  4060e8:	f022 0203 	bic.w	r2, r2, #3
  4060ec:	e768      	b.n	405fc0 <_malloc_r+0x2ec>
  4060ee:	f8d8 8000 	ldr.w	r8, [r8]
  4060f2:	4598      	cmp	r8, r3
  4060f4:	d17c      	bne.n	4061f0 <_malloc_r+0x51c>
  4060f6:	f010 0f03 	tst.w	r0, #3
  4060fa:	f1a8 0308 	sub.w	r3, r8, #8
  4060fe:	f100 30ff 	add.w	r0, r0, #4294967295
  406102:	d1f4      	bne.n	4060ee <_malloc_r+0x41a>
  406104:	687b      	ldr	r3, [r7, #4]
  406106:	ea23 0304 	bic.w	r3, r3, r4
  40610a:	607b      	str	r3, [r7, #4]
  40610c:	0064      	lsls	r4, r4, #1
  40610e:	429c      	cmp	r4, r3
  406110:	f63f aeca 	bhi.w	405ea8 <_malloc_r+0x1d4>
  406114:	2c00      	cmp	r4, #0
  406116:	f43f aec7 	beq.w	405ea8 <_malloc_r+0x1d4>
  40611a:	4223      	tst	r3, r4
  40611c:	4648      	mov	r0, r9
  40611e:	f47f ae69 	bne.w	405df4 <_malloc_r+0x120>
  406122:	0064      	lsls	r4, r4, #1
  406124:	4223      	tst	r3, r4
  406126:	f100 0004 	add.w	r0, r0, #4
  40612a:	d0fa      	beq.n	406122 <_malloc_r+0x44e>
  40612c:	e662      	b.n	405df4 <_malloc_r+0x120>
  40612e:	f5b0 7faa 	cmp.w	r0, #340	; 0x154
  406132:	d818      	bhi.n	406166 <_malloc_r+0x492>
  406134:	0be8      	lsrs	r0, r5, #15
  406136:	3077      	adds	r0, #119	; 0x77
  406138:	0041      	lsls	r1, r0, #1
  40613a:	e60b      	b.n	405d54 <_malloc_r+0x80>
  40613c:	f44f 5180 	mov.w	r1, #4096	; 0x1000
  406140:	e6fb      	b.n	405f3a <_malloc_r+0x266>
  406142:	f8d8 3004 	ldr.w	r3, [r8, #4]
  406146:	1092      	asrs	r2, r2, #2
  406148:	f04f 0c01 	mov.w	ip, #1
  40614c:	fa0c f202 	lsl.w	r2, ip, r2
  406150:	4313      	orrs	r3, r2
  406152:	f8c8 3004 	str.w	r3, [r8, #4]
  406156:	460a      	mov	r2, r1
  406158:	e77d      	b.n	406056 <_malloc_r+0x382>
  40615a:	2301      	movs	r3, #1
  40615c:	f8c9 3004 	str.w	r3, [r9, #4]
  406160:	464c      	mov	r4, r9
  406162:	2200      	movs	r2, #0
  406164:	e72c      	b.n	405fc0 <_malloc_r+0x2ec>
  406166:	f240 5354 	movw	r3, #1364	; 0x554
  40616a:	4298      	cmp	r0, r3
  40616c:	d81c      	bhi.n	4061a8 <_malloc_r+0x4d4>
  40616e:	0ca8      	lsrs	r0, r5, #18
  406170:	307c      	adds	r0, #124	; 0x7c
  406172:	0041      	lsls	r1, r0, #1
  406174:	e5ee      	b.n	405d54 <_malloc_r+0x80>
  406176:	3210      	adds	r2, #16
  406178:	e6b4      	b.n	405ee4 <_malloc_r+0x210>
  40617a:	2a54      	cmp	r2, #84	; 0x54
  40617c:	d823      	bhi.n	4061c6 <_malloc_r+0x4f2>
  40617e:	0b1a      	lsrs	r2, r3, #12
  406180:	326e      	adds	r2, #110	; 0x6e
  406182:	ea4f 0c42 	mov.w	ip, r2, lsl #1
  406186:	e754      	b.n	406032 <_malloc_r+0x35e>
  406188:	68bc      	ldr	r4, [r7, #8]
  40618a:	6862      	ldr	r2, [r4, #4]
  40618c:	f022 0203 	bic.w	r2, r2, #3
  406190:	e716      	b.n	405fc0 <_malloc_r+0x2ec>
  406192:	f3cb 000b 	ubfx	r0, fp, #0, #12
  406196:	2800      	cmp	r0, #0
  406198:	f47f aeb9 	bne.w	405f0e <_malloc_r+0x23a>
  40619c:	4442      	add	r2, r8
  40619e:	68bb      	ldr	r3, [r7, #8]
  4061a0:	f042 0201 	orr.w	r2, r2, #1
  4061a4:	605a      	str	r2, [r3, #4]
  4061a6:	e6fd      	b.n	405fa4 <_malloc_r+0x2d0>
  4061a8:	21fc      	movs	r1, #252	; 0xfc
  4061aa:	207e      	movs	r0, #126	; 0x7e
  4061ac:	e5d2      	b.n	405d54 <_malloc_r+0x80>
  4061ae:	2201      	movs	r2, #1
  4061b0:	f04f 0a00 	mov.w	sl, #0
  4061b4:	e6d4      	b.n	405f60 <_malloc_r+0x28c>
  4061b6:	f104 0108 	add.w	r1, r4, #8
  4061ba:	4630      	mov	r0, r6
  4061bc:	f7ff fcae 	bl	405b1c <_free_r>
  4061c0:	f8da 1000 	ldr.w	r1, [sl]
  4061c4:	e6ee      	b.n	405fa4 <_malloc_r+0x2d0>
  4061c6:	f5b2 7faa 	cmp.w	r2, #340	; 0x154
  4061ca:	d804      	bhi.n	4061d6 <_malloc_r+0x502>
  4061cc:	0bda      	lsrs	r2, r3, #15
  4061ce:	3277      	adds	r2, #119	; 0x77
  4061d0:	ea4f 0c42 	mov.w	ip, r2, lsl #1
  4061d4:	e72d      	b.n	406032 <_malloc_r+0x35e>
  4061d6:	f240 5154 	movw	r1, #1364	; 0x554
  4061da:	428a      	cmp	r2, r1
  4061dc:	d804      	bhi.n	4061e8 <_malloc_r+0x514>
  4061de:	0c9a      	lsrs	r2, r3, #18
  4061e0:	327c      	adds	r2, #124	; 0x7c
  4061e2:	ea4f 0c42 	mov.w	ip, r2, lsl #1
  4061e6:	e724      	b.n	406032 <_malloc_r+0x35e>
  4061e8:	f04f 0cfc 	mov.w	ip, #252	; 0xfc
  4061ec:	227e      	movs	r2, #126	; 0x7e
  4061ee:	e720      	b.n	406032 <_malloc_r+0x35e>
  4061f0:	687b      	ldr	r3, [r7, #4]
  4061f2:	e78b      	b.n	40610c <_malloc_r+0x438>
  4061f4:	20000474 	.word	0x20000474

004061f8 <memchr>:
  4061f8:	0783      	lsls	r3, r0, #30
  4061fa:	b470      	push	{r4, r5, r6}
  4061fc:	b2c9      	uxtb	r1, r1
  4061fe:	d040      	beq.n	406282 <memchr+0x8a>
  406200:	1e54      	subs	r4, r2, #1
  406202:	2a00      	cmp	r2, #0
  406204:	d03f      	beq.n	406286 <memchr+0x8e>
  406206:	7803      	ldrb	r3, [r0, #0]
  406208:	428b      	cmp	r3, r1
  40620a:	bf18      	it	ne
  40620c:	1c43      	addne	r3, r0, #1
  40620e:	d106      	bne.n	40621e <memchr+0x26>
  406210:	e01d      	b.n	40624e <memchr+0x56>
  406212:	b1f4      	cbz	r4, 406252 <memchr+0x5a>
  406214:	7802      	ldrb	r2, [r0, #0]
  406216:	428a      	cmp	r2, r1
  406218:	f104 34ff 	add.w	r4, r4, #4294967295
  40621c:	d017      	beq.n	40624e <memchr+0x56>
  40621e:	f013 0f03 	tst.w	r3, #3
  406222:	4618      	mov	r0, r3
  406224:	f103 0301 	add.w	r3, r3, #1
  406228:	d1f3      	bne.n	406212 <memchr+0x1a>
  40622a:	2c03      	cmp	r4, #3
  40622c:	d814      	bhi.n	406258 <memchr+0x60>
  40622e:	b184      	cbz	r4, 406252 <memchr+0x5a>
  406230:	7803      	ldrb	r3, [r0, #0]
  406232:	428b      	cmp	r3, r1
  406234:	d00b      	beq.n	40624e <memchr+0x56>
  406236:	1905      	adds	r5, r0, r4
  406238:	1c43      	adds	r3, r0, #1
  40623a:	e002      	b.n	406242 <memchr+0x4a>
  40623c:	7802      	ldrb	r2, [r0, #0]
  40623e:	428a      	cmp	r2, r1
  406240:	d005      	beq.n	40624e <memchr+0x56>
  406242:	42ab      	cmp	r3, r5
  406244:	4618      	mov	r0, r3
  406246:	f103 0301 	add.w	r3, r3, #1
  40624a:	d1f7      	bne.n	40623c <memchr+0x44>
  40624c:	2000      	movs	r0, #0
  40624e:	bc70      	pop	{r4, r5, r6}
  406250:	4770      	bx	lr
  406252:	4620      	mov	r0, r4
  406254:	bc70      	pop	{r4, r5, r6}
  406256:	4770      	bx	lr
  406258:	ea41 2601 	orr.w	r6, r1, r1, lsl #8
  40625c:	4602      	mov	r2, r0
  40625e:	ea46 4606 	orr.w	r6, r6, r6, lsl #16
  406262:	4610      	mov	r0, r2
  406264:	3204      	adds	r2, #4
  406266:	6803      	ldr	r3, [r0, #0]
  406268:	4073      	eors	r3, r6
  40626a:	f1a3 3501 	sub.w	r5, r3, #16843009	; 0x1010101
  40626e:	ea25 0303 	bic.w	r3, r5, r3
  406272:	f013 3f80 	tst.w	r3, #2155905152	; 0x80808080
  406276:	d1da      	bne.n	40622e <memchr+0x36>
  406278:	3c04      	subs	r4, #4
  40627a:	2c03      	cmp	r4, #3
  40627c:	4610      	mov	r0, r2
  40627e:	d8f0      	bhi.n	406262 <memchr+0x6a>
  406280:	e7d5      	b.n	40622e <memchr+0x36>
  406282:	4614      	mov	r4, r2
  406284:	e7d1      	b.n	40622a <memchr+0x32>
  406286:	4610      	mov	r0, r2
  406288:	e7e1      	b.n	40624e <memchr+0x56>
  40628a:	bf00      	nop

0040628c <memcpy>:
  40628c:	4684      	mov	ip, r0
  40628e:	ea41 0300 	orr.w	r3, r1, r0
  406292:	f013 0303 	ands.w	r3, r3, #3
  406296:	d16d      	bne.n	406374 <memcpy+0xe8>
  406298:	3a40      	subs	r2, #64	; 0x40
  40629a:	d341      	bcc.n	406320 <memcpy+0x94>
  40629c:	f851 3b04 	ldr.w	r3, [r1], #4
  4062a0:	f840 3b04 	str.w	r3, [r0], #4
  4062a4:	f851 3b04 	ldr.w	r3, [r1], #4
  4062a8:	f840 3b04 	str.w	r3, [r0], #4
  4062ac:	f851 3b04 	ldr.w	r3, [r1], #4
  4062b0:	f840 3b04 	str.w	r3, [r0], #4
  4062b4:	f851 3b04 	ldr.w	r3, [r1], #4
  4062b8:	f840 3b04 	str.w	r3, [r0], #4
  4062bc:	f851 3b04 	ldr.w	r3, [r1], #4
  4062c0:	f840 3b04 	str.w	r3, [r0], #4
  4062c4:	f851 3b04 	ldr.w	r3, [r1], #4
  4062c8:	f840 3b04 	str.w	r3, [r0], #4
  4062cc:	f851 3b04 	ldr.w	r3, [r1], #4
  4062d0:	f840 3b04 	str.w	r3, [r0], #4
  4062d4:	f851 3b04 	ldr.w	r3, [r1], #4
  4062d8:	f840 3b04 	str.w	r3, [r0], #4
  4062dc:	f851 3b04 	ldr.w	r3, [r1], #4
  4062e0:	f840 3b04 	str.w	r3, [r0], #4
  4062e4:	f851 3b04 	ldr.w	r3, [r1], #4
  4062e8:	f840 3b04 	str.w	r3, [r0], #4
  4062ec:	f851 3b04 	ldr.w	r3, [r1], #4
  4062f0:	f840 3b04 	str.w	r3, [r0], #4
  4062f4:	f851 3b04 	ldr.w	r3, [r1], #4
  4062f8:	f840 3b04 	str.w	r3, [r0], #4
  4062fc:	f851 3b04 	ldr.w	r3, [r1], #4
  406300:	f840 3b04 	str.w	r3, [r0], #4
  406304:	f851 3b04 	ldr.w	r3, [r1], #4
  406308:	f840 3b04 	str.w	r3, [r0], #4
  40630c:	f851 3b04 	ldr.w	r3, [r1], #4
  406310:	f840 3b04 	str.w	r3, [r0], #4
  406314:	f851 3b04 	ldr.w	r3, [r1], #4
  406318:	f840 3b04 	str.w	r3, [r0], #4
  40631c:	3a40      	subs	r2, #64	; 0x40
  40631e:	d2bd      	bcs.n	40629c <memcpy+0x10>
  406320:	3230      	adds	r2, #48	; 0x30
  406322:	d311      	bcc.n	406348 <memcpy+0xbc>
  406324:	f851 3b04 	ldr.w	r3, [r1], #4
  406328:	f840 3b04 	str.w	r3, [r0], #4
  40632c:	f851 3b04 	ldr.w	r3, [r1], #4
  406330:	f840 3b04 	str.w	r3, [r0], #4
  406334:	f851 3b04 	ldr.w	r3, [r1], #4
  406338:	f840 3b04 	str.w	r3, [r0], #4
  40633c:	f851 3b04 	ldr.w	r3, [r1], #4
  406340:	f840 3b04 	str.w	r3, [r0], #4
  406344:	3a10      	subs	r2, #16
  406346:	d2ed      	bcs.n	406324 <memcpy+0x98>
  406348:	320c      	adds	r2, #12
  40634a:	d305      	bcc.n	406358 <memcpy+0xcc>
  40634c:	f851 3b04 	ldr.w	r3, [r1], #4
  406350:	f840 3b04 	str.w	r3, [r0], #4
  406354:	3a04      	subs	r2, #4
  406356:	d2f9      	bcs.n	40634c <memcpy+0xc0>
  406358:	3204      	adds	r2, #4
  40635a:	d008      	beq.n	40636e <memcpy+0xe2>
  40635c:	07d2      	lsls	r2, r2, #31
  40635e:	bf1c      	itt	ne
  406360:	f811 3b01 	ldrbne.w	r3, [r1], #1
  406364:	f800 3b01 	strbne.w	r3, [r0], #1
  406368:	d301      	bcc.n	40636e <memcpy+0xe2>
  40636a:	880b      	ldrh	r3, [r1, #0]
  40636c:	8003      	strh	r3, [r0, #0]
  40636e:	4660      	mov	r0, ip
  406370:	4770      	bx	lr
  406372:	bf00      	nop
  406374:	2a08      	cmp	r2, #8
  406376:	d313      	bcc.n	4063a0 <memcpy+0x114>
  406378:	078b      	lsls	r3, r1, #30
  40637a:	d08d      	beq.n	406298 <memcpy+0xc>
  40637c:	f010 0303 	ands.w	r3, r0, #3
  406380:	d08a      	beq.n	406298 <memcpy+0xc>
  406382:	f1c3 0304 	rsb	r3, r3, #4
  406386:	1ad2      	subs	r2, r2, r3
  406388:	07db      	lsls	r3, r3, #31
  40638a:	bf1c      	itt	ne
  40638c:	f811 3b01 	ldrbne.w	r3, [r1], #1
  406390:	f800 3b01 	strbne.w	r3, [r0], #1
  406394:	d380      	bcc.n	406298 <memcpy+0xc>
  406396:	f831 3b02 	ldrh.w	r3, [r1], #2
  40639a:	f820 3b02 	strh.w	r3, [r0], #2
  40639e:	e77b      	b.n	406298 <memcpy+0xc>
  4063a0:	3a04      	subs	r2, #4
  4063a2:	d3d9      	bcc.n	406358 <memcpy+0xcc>
  4063a4:	3a01      	subs	r2, #1
  4063a6:	f811 3b01 	ldrb.w	r3, [r1], #1
  4063aa:	f800 3b01 	strb.w	r3, [r0], #1
  4063ae:	d2f9      	bcs.n	4063a4 <memcpy+0x118>
  4063b0:	780b      	ldrb	r3, [r1, #0]
  4063b2:	7003      	strb	r3, [r0, #0]
  4063b4:	784b      	ldrb	r3, [r1, #1]
  4063b6:	7043      	strb	r3, [r0, #1]
  4063b8:	788b      	ldrb	r3, [r1, #2]
  4063ba:	7083      	strb	r3, [r0, #2]
  4063bc:	4660      	mov	r0, ip
  4063be:	4770      	bx	lr

004063c0 <memmove>:
  4063c0:	4288      	cmp	r0, r1
  4063c2:	b5f0      	push	{r4, r5, r6, r7, lr}
  4063c4:	d90d      	bls.n	4063e2 <memmove+0x22>
  4063c6:	188b      	adds	r3, r1, r2
  4063c8:	4298      	cmp	r0, r3
  4063ca:	d20a      	bcs.n	4063e2 <memmove+0x22>
  4063cc:	1881      	adds	r1, r0, r2
  4063ce:	2a00      	cmp	r2, #0
  4063d0:	d054      	beq.n	40647c <memmove+0xbc>
  4063d2:	1a9a      	subs	r2, r3, r2
  4063d4:	f813 4d01 	ldrb.w	r4, [r3, #-1]!
  4063d8:	f801 4d01 	strb.w	r4, [r1, #-1]!
  4063dc:	4293      	cmp	r3, r2
  4063de:	d1f9      	bne.n	4063d4 <memmove+0x14>
  4063e0:	bdf0      	pop	{r4, r5, r6, r7, pc}
  4063e2:	2a0f      	cmp	r2, #15
  4063e4:	d948      	bls.n	406478 <memmove+0xb8>
  4063e6:	ea40 0301 	orr.w	r3, r0, r1
  4063ea:	079b      	lsls	r3, r3, #30
  4063ec:	d147      	bne.n	40647e <memmove+0xbe>
  4063ee:	f100 0410 	add.w	r4, r0, #16
  4063f2:	f101 0310 	add.w	r3, r1, #16
  4063f6:	4615      	mov	r5, r2
  4063f8:	f853 6c10 	ldr.w	r6, [r3, #-16]
  4063fc:	f844 6c10 	str.w	r6, [r4, #-16]
  406400:	f853 6c0c 	ldr.w	r6, [r3, #-12]
  406404:	f844 6c0c 	str.w	r6, [r4, #-12]
  406408:	f853 6c08 	ldr.w	r6, [r3, #-8]
  40640c:	f844 6c08 	str.w	r6, [r4, #-8]
  406410:	3d10      	subs	r5, #16
  406412:	f853 6c04 	ldr.w	r6, [r3, #-4]
  406416:	f844 6c04 	str.w	r6, [r4, #-4]
  40641a:	2d0f      	cmp	r5, #15
  40641c:	f103 0310 	add.w	r3, r3, #16
  406420:	f104 0410 	add.w	r4, r4, #16
  406424:	d8e8      	bhi.n	4063f8 <memmove+0x38>
  406426:	f1a2 0310 	sub.w	r3, r2, #16
  40642a:	f023 030f 	bic.w	r3, r3, #15
  40642e:	f002 0e0f 	and.w	lr, r2, #15
  406432:	3310      	adds	r3, #16
  406434:	f1be 0f03 	cmp.w	lr, #3
  406438:	4419      	add	r1, r3
  40643a:	4403      	add	r3, r0
  40643c:	d921      	bls.n	406482 <memmove+0xc2>
  40643e:	1f1e      	subs	r6, r3, #4
  406440:	460d      	mov	r5, r1
  406442:	4674      	mov	r4, lr
  406444:	3c04      	subs	r4, #4
  406446:	f855 7b04 	ldr.w	r7, [r5], #4
  40644a:	f846 7f04 	str.w	r7, [r6, #4]!
  40644e:	2c03      	cmp	r4, #3
  406450:	d8f8      	bhi.n	406444 <memmove+0x84>
  406452:	f1ae 0404 	sub.w	r4, lr, #4
  406456:	f024 0403 	bic.w	r4, r4, #3
  40645a:	3404      	adds	r4, #4
  40645c:	4423      	add	r3, r4
  40645e:	4421      	add	r1, r4
  406460:	f002 0203 	and.w	r2, r2, #3
  406464:	b152      	cbz	r2, 40647c <memmove+0xbc>
  406466:	3b01      	subs	r3, #1
  406468:	440a      	add	r2, r1
  40646a:	f811 4b01 	ldrb.w	r4, [r1], #1
  40646e:	f803 4f01 	strb.w	r4, [r3, #1]!
  406472:	4291      	cmp	r1, r2
  406474:	d1f9      	bne.n	40646a <memmove+0xaa>
  406476:	bdf0      	pop	{r4, r5, r6, r7, pc}
  406478:	4603      	mov	r3, r0
  40647a:	e7f3      	b.n	406464 <memmove+0xa4>
  40647c:	bdf0      	pop	{r4, r5, r6, r7, pc}
  40647e:	4603      	mov	r3, r0
  406480:	e7f1      	b.n	406466 <memmove+0xa6>
  406482:	4672      	mov	r2, lr
  406484:	e7ee      	b.n	406464 <memmove+0xa4>
  406486:	bf00      	nop

00406488 <__malloc_lock>:
  406488:	4770      	bx	lr
  40648a:	bf00      	nop

0040648c <__malloc_unlock>:
  40648c:	4770      	bx	lr
  40648e:	bf00      	nop

00406490 <_Balloc>:
  406490:	6cc3      	ldr	r3, [r0, #76]	; 0x4c
  406492:	b570      	push	{r4, r5, r6, lr}
  406494:	4605      	mov	r5, r0
  406496:	460c      	mov	r4, r1
  406498:	b14b      	cbz	r3, 4064ae <_Balloc+0x1e>
  40649a:	f853 0024 	ldr.w	r0, [r3, r4, lsl #2]
  40649e:	b180      	cbz	r0, 4064c2 <_Balloc+0x32>
  4064a0:	6802      	ldr	r2, [r0, #0]
  4064a2:	f843 2024 	str.w	r2, [r3, r4, lsl #2]
  4064a6:	2300      	movs	r3, #0
  4064a8:	6103      	str	r3, [r0, #16]
  4064aa:	60c3      	str	r3, [r0, #12]
  4064ac:	bd70      	pop	{r4, r5, r6, pc}
  4064ae:	2104      	movs	r1, #4
  4064b0:	2221      	movs	r2, #33	; 0x21
  4064b2:	f000 fde9 	bl	407088 <_calloc_r>
  4064b6:	64e8      	str	r0, [r5, #76]	; 0x4c
  4064b8:	4603      	mov	r3, r0
  4064ba:	2800      	cmp	r0, #0
  4064bc:	d1ed      	bne.n	40649a <_Balloc+0xa>
  4064be:	2000      	movs	r0, #0
  4064c0:	bd70      	pop	{r4, r5, r6, pc}
  4064c2:	2101      	movs	r1, #1
  4064c4:	fa01 f604 	lsl.w	r6, r1, r4
  4064c8:	1d72      	adds	r2, r6, #5
  4064ca:	4628      	mov	r0, r5
  4064cc:	0092      	lsls	r2, r2, #2
  4064ce:	f000 fddb 	bl	407088 <_calloc_r>
  4064d2:	2800      	cmp	r0, #0
  4064d4:	d0f3      	beq.n	4064be <_Balloc+0x2e>
  4064d6:	6044      	str	r4, [r0, #4]
  4064d8:	6086      	str	r6, [r0, #8]
  4064da:	e7e4      	b.n	4064a6 <_Balloc+0x16>

004064dc <_Bfree>:
  4064dc:	b131      	cbz	r1, 4064ec <_Bfree+0x10>
  4064de:	6cc3      	ldr	r3, [r0, #76]	; 0x4c
  4064e0:	684a      	ldr	r2, [r1, #4]
  4064e2:	f853 0022 	ldr.w	r0, [r3, r2, lsl #2]
  4064e6:	6008      	str	r0, [r1, #0]
  4064e8:	f843 1022 	str.w	r1, [r3, r2, lsl #2]
  4064ec:	4770      	bx	lr
  4064ee:	bf00      	nop

004064f0 <__multadd>:
  4064f0:	b5f0      	push	{r4, r5, r6, r7, lr}
  4064f2:	690c      	ldr	r4, [r1, #16]
  4064f4:	b083      	sub	sp, #12
  4064f6:	460d      	mov	r5, r1
  4064f8:	4606      	mov	r6, r0
  4064fa:	f101 0e14 	add.w	lr, r1, #20
  4064fe:	2700      	movs	r7, #0
  406500:	f8de 1000 	ldr.w	r1, [lr]
  406504:	b288      	uxth	r0, r1
  406506:	0c09      	lsrs	r1, r1, #16
  406508:	fb02 3300 	mla	r3, r2, r0, r3
  40650c:	fb02 f101 	mul.w	r1, r2, r1
  406510:	eb01 4113 	add.w	r1, r1, r3, lsr #16
  406514:	3701      	adds	r7, #1
  406516:	b29b      	uxth	r3, r3
  406518:	eb03 4301 	add.w	r3, r3, r1, lsl #16
  40651c:	42bc      	cmp	r4, r7
  40651e:	f84e 3b04 	str.w	r3, [lr], #4
  406522:	ea4f 4311 	mov.w	r3, r1, lsr #16
  406526:	dceb      	bgt.n	406500 <__multadd+0x10>
  406528:	b13b      	cbz	r3, 40653a <__multadd+0x4a>
  40652a:	68aa      	ldr	r2, [r5, #8]
  40652c:	4294      	cmp	r4, r2
  40652e:	da07      	bge.n	406540 <__multadd+0x50>
  406530:	eb05 0284 	add.w	r2, r5, r4, lsl #2
  406534:	3401      	adds	r4, #1
  406536:	6153      	str	r3, [r2, #20]
  406538:	612c      	str	r4, [r5, #16]
  40653a:	4628      	mov	r0, r5
  40653c:	b003      	add	sp, #12
  40653e:	bdf0      	pop	{r4, r5, r6, r7, pc}
  406540:	6869      	ldr	r1, [r5, #4]
  406542:	9301      	str	r3, [sp, #4]
  406544:	3101      	adds	r1, #1
  406546:	4630      	mov	r0, r6
  406548:	f7ff ffa2 	bl	406490 <_Balloc>
  40654c:	692a      	ldr	r2, [r5, #16]
  40654e:	3202      	adds	r2, #2
  406550:	f105 010c 	add.w	r1, r5, #12
  406554:	4607      	mov	r7, r0
  406556:	0092      	lsls	r2, r2, #2
  406558:	300c      	adds	r0, #12
  40655a:	f7ff fe97 	bl	40628c <memcpy>
  40655e:	6cf2      	ldr	r2, [r6, #76]	; 0x4c
  406560:	6869      	ldr	r1, [r5, #4]
  406562:	9b01      	ldr	r3, [sp, #4]
  406564:	f852 0021 	ldr.w	r0, [r2, r1, lsl #2]
  406568:	6028      	str	r0, [r5, #0]
  40656a:	f842 5021 	str.w	r5, [r2, r1, lsl #2]
  40656e:	463d      	mov	r5, r7
  406570:	e7de      	b.n	406530 <__multadd+0x40>
  406572:	bf00      	nop

00406574 <__hi0bits>:
  406574:	0c03      	lsrs	r3, r0, #16
  406576:	041b      	lsls	r3, r3, #16
  406578:	b9b3      	cbnz	r3, 4065a8 <__hi0bits+0x34>
  40657a:	0400      	lsls	r0, r0, #16
  40657c:	2310      	movs	r3, #16
  40657e:	f010 4f7f 	tst.w	r0, #4278190080	; 0xff000000
  406582:	bf04      	itt	eq
  406584:	0200      	lsleq	r0, r0, #8
  406586:	3308      	addeq	r3, #8
  406588:	f010 4f70 	tst.w	r0, #4026531840	; 0xf0000000
  40658c:	bf04      	itt	eq
  40658e:	0100      	lsleq	r0, r0, #4
  406590:	3304      	addeq	r3, #4
  406592:	f010 4f40 	tst.w	r0, #3221225472	; 0xc0000000
  406596:	bf04      	itt	eq
  406598:	0080      	lsleq	r0, r0, #2
  40659a:	3302      	addeq	r3, #2
  40659c:	2800      	cmp	r0, #0
  40659e:	db07      	blt.n	4065b0 <__hi0bits+0x3c>
  4065a0:	0042      	lsls	r2, r0, #1
  4065a2:	d403      	bmi.n	4065ac <__hi0bits+0x38>
  4065a4:	2020      	movs	r0, #32
  4065a6:	4770      	bx	lr
  4065a8:	2300      	movs	r3, #0
  4065aa:	e7e8      	b.n	40657e <__hi0bits+0xa>
  4065ac:	1c58      	adds	r0, r3, #1
  4065ae:	4770      	bx	lr
  4065b0:	4618      	mov	r0, r3
  4065b2:	4770      	bx	lr

004065b4 <__lo0bits>:
  4065b4:	6803      	ldr	r3, [r0, #0]
  4065b6:	f013 0207 	ands.w	r2, r3, #7
  4065ba:	d007      	beq.n	4065cc <__lo0bits+0x18>
  4065bc:	07d9      	lsls	r1, r3, #31
  4065be:	d420      	bmi.n	406602 <__lo0bits+0x4e>
  4065c0:	079a      	lsls	r2, r3, #30
  4065c2:	d420      	bmi.n	406606 <__lo0bits+0x52>
  4065c4:	089b      	lsrs	r3, r3, #2
  4065c6:	6003      	str	r3, [r0, #0]
  4065c8:	2002      	movs	r0, #2
  4065ca:	4770      	bx	lr
  4065cc:	b299      	uxth	r1, r3
  4065ce:	b909      	cbnz	r1, 4065d4 <__lo0bits+0x20>
  4065d0:	0c1b      	lsrs	r3, r3, #16
  4065d2:	2210      	movs	r2, #16
  4065d4:	f013 0fff 	tst.w	r3, #255	; 0xff
  4065d8:	bf04      	itt	eq
  4065da:	0a1b      	lsreq	r3, r3, #8
  4065dc:	3208      	addeq	r2, #8
  4065de:	0719      	lsls	r1, r3, #28
  4065e0:	bf04      	itt	eq
  4065e2:	091b      	lsreq	r3, r3, #4
  4065e4:	3204      	addeq	r2, #4
  4065e6:	0799      	lsls	r1, r3, #30
  4065e8:	bf04      	itt	eq
  4065ea:	089b      	lsreq	r3, r3, #2
  4065ec:	3202      	addeq	r2, #2
  4065ee:	07d9      	lsls	r1, r3, #31
  4065f0:	d404      	bmi.n	4065fc <__lo0bits+0x48>
  4065f2:	085b      	lsrs	r3, r3, #1
  4065f4:	d101      	bne.n	4065fa <__lo0bits+0x46>
  4065f6:	2020      	movs	r0, #32
  4065f8:	4770      	bx	lr
  4065fa:	3201      	adds	r2, #1
  4065fc:	6003      	str	r3, [r0, #0]
  4065fe:	4610      	mov	r0, r2
  406600:	4770      	bx	lr
  406602:	2000      	movs	r0, #0
  406604:	4770      	bx	lr
  406606:	085b      	lsrs	r3, r3, #1
  406608:	6003      	str	r3, [r0, #0]
  40660a:	2001      	movs	r0, #1
  40660c:	4770      	bx	lr
  40660e:	bf00      	nop

00406610 <__i2b>:
  406610:	b510      	push	{r4, lr}
  406612:	460c      	mov	r4, r1
  406614:	2101      	movs	r1, #1
  406616:	f7ff ff3b 	bl	406490 <_Balloc>
  40661a:	2201      	movs	r2, #1
  40661c:	6144      	str	r4, [r0, #20]
  40661e:	6102      	str	r2, [r0, #16]
  406620:	bd10      	pop	{r4, pc}
  406622:	bf00      	nop

00406624 <__multiply>:
  406624:	e92d 4ff0 	stmdb	sp!, {r4, r5, r6, r7, r8, r9, sl, fp, lr}
  406628:	690f      	ldr	r7, [r1, #16]
  40662a:	6916      	ldr	r6, [r2, #16]
  40662c:	42b7      	cmp	r7, r6
  40662e:	b083      	sub	sp, #12
  406630:	460d      	mov	r5, r1
  406632:	4614      	mov	r4, r2
  406634:	f2c0 808d 	blt.w	406752 <__multiply+0x12e>
  406638:	4633      	mov	r3, r6
  40663a:	463e      	mov	r6, r7
  40663c:	461f      	mov	r7, r3
  40663e:	68ab      	ldr	r3, [r5, #8]
  406640:	6869      	ldr	r1, [r5, #4]
  406642:	eb06 0807 	add.w	r8, r6, r7
  406646:	4598      	cmp	r8, r3
  406648:	bfc8      	it	gt
  40664a:	3101      	addgt	r1, #1
  40664c:	f7ff ff20 	bl	406490 <_Balloc>
  406650:	f100 0c14 	add.w	ip, r0, #20
  406654:	eb0c 0988 	add.w	r9, ip, r8, lsl #2
  406658:	45cc      	cmp	ip, r9
  40665a:	9000      	str	r0, [sp, #0]
  40665c:	d205      	bcs.n	40666a <__multiply+0x46>
  40665e:	4663      	mov	r3, ip
  406660:	2100      	movs	r1, #0
  406662:	f843 1b04 	str.w	r1, [r3], #4
  406666:	4599      	cmp	r9, r3
  406668:	d8fb      	bhi.n	406662 <__multiply+0x3e>
  40666a:	f104 0214 	add.w	r2, r4, #20
  40666e:	eb02 0a87 	add.w	sl, r2, r7, lsl #2
  406672:	f105 0314 	add.w	r3, r5, #20
  406676:	4552      	cmp	r2, sl
  406678:	eb03 0e86 	add.w	lr, r3, r6, lsl #2
  40667c:	d254      	bcs.n	406728 <__multiply+0x104>
  40667e:	f8cd 9004 	str.w	r9, [sp, #4]
  406682:	4699      	mov	r9, r3
  406684:	f852 3b04 	ldr.w	r3, [r2], #4
  406688:	fa1f fb83 	uxth.w	fp, r3
  40668c:	f1bb 0f00 	cmp.w	fp, #0
  406690:	d020      	beq.n	4066d4 <__multiply+0xb0>
  406692:	2000      	movs	r0, #0
  406694:	464f      	mov	r7, r9
  406696:	4666      	mov	r6, ip
  406698:	4605      	mov	r5, r0
  40669a:	e000      	b.n	40669e <__multiply+0x7a>
  40669c:	461e      	mov	r6, r3
  40669e:	f857 4b04 	ldr.w	r4, [r7], #4
  4066a2:	6830      	ldr	r0, [r6, #0]
  4066a4:	b2a1      	uxth	r1, r4
  4066a6:	b283      	uxth	r3, r0
  4066a8:	fb0b 3101 	mla	r1, fp, r1, r3
  4066ac:	0c24      	lsrs	r4, r4, #16
  4066ae:	0c00      	lsrs	r0, r0, #16
  4066b0:	194b      	adds	r3, r1, r5
  4066b2:	fb0b 0004 	mla	r0, fp, r4, r0
  4066b6:	eb00 4013 	add.w	r0, r0, r3, lsr #16
  4066ba:	b299      	uxth	r1, r3
  4066bc:	4633      	mov	r3, r6
  4066be:	ea41 4100 	orr.w	r1, r1, r0, lsl #16
  4066c2:	45be      	cmp	lr, r7
  4066c4:	ea4f 4510 	mov.w	r5, r0, lsr #16
  4066c8:	f843 1b04 	str.w	r1, [r3], #4
  4066cc:	d8e6      	bhi.n	40669c <__multiply+0x78>
  4066ce:	6075      	str	r5, [r6, #4]
  4066d0:	f852 3c04 	ldr.w	r3, [r2, #-4]
  4066d4:	ea5f 4b13 	movs.w	fp, r3, lsr #16
  4066d8:	d020      	beq.n	40671c <__multiply+0xf8>
  4066da:	f8dc 3000 	ldr.w	r3, [ip]
  4066de:	4667      	mov	r7, ip
  4066e0:	4618      	mov	r0, r3
  4066e2:	464d      	mov	r5, r9
  4066e4:	2100      	movs	r1, #0
  4066e6:	e000      	b.n	4066ea <__multiply+0xc6>
  4066e8:	4637      	mov	r7, r6
  4066ea:	882c      	ldrh	r4, [r5, #0]
  4066ec:	0c00      	lsrs	r0, r0, #16
  4066ee:	fb0b 0004 	mla	r0, fp, r4, r0
  4066f2:	4401      	add	r1, r0
  4066f4:	b29c      	uxth	r4, r3
  4066f6:	463e      	mov	r6, r7
  4066f8:	ea44 4301 	orr.w	r3, r4, r1, lsl #16
  4066fc:	f846 3b04 	str.w	r3, [r6], #4
  406700:	6878      	ldr	r0, [r7, #4]
  406702:	f855 4b04 	ldr.w	r4, [r5], #4
  406706:	b283      	uxth	r3, r0
  406708:	0c24      	lsrs	r4, r4, #16
  40670a:	fb0b 3404 	mla	r4, fp, r4, r3
  40670e:	eb04 4311 	add.w	r3, r4, r1, lsr #16
  406712:	45ae      	cmp	lr, r5
  406714:	ea4f 4113 	mov.w	r1, r3, lsr #16
  406718:	d8e6      	bhi.n	4066e8 <__multiply+0xc4>
  40671a:	607b      	str	r3, [r7, #4]
  40671c:	4592      	cmp	sl, r2
  40671e:	f10c 0c04 	add.w	ip, ip, #4
  406722:	d8af      	bhi.n	406684 <__multiply+0x60>
  406724:	f8dd 9004 	ldr.w	r9, [sp, #4]
  406728:	f1b8 0f00 	cmp.w	r8, #0
  40672c:	dd0b      	ble.n	406746 <__multiply+0x122>
  40672e:	f859 3c04 	ldr.w	r3, [r9, #-4]
  406732:	f1a9 0904 	sub.w	r9, r9, #4
  406736:	b11b      	cbz	r3, 406740 <__multiply+0x11c>
  406738:	e005      	b.n	406746 <__multiply+0x122>
  40673a:	f859 3d04 	ldr.w	r3, [r9, #-4]!
  40673e:	b913      	cbnz	r3, 406746 <__multiply+0x122>
  406740:	f1b8 0801 	subs.w	r8, r8, #1
  406744:	d1f9      	bne.n	40673a <__multiply+0x116>
  406746:	9800      	ldr	r0, [sp, #0]
  406748:	f8c0 8010 	str.w	r8, [r0, #16]
  40674c:	b003      	add	sp, #12
  40674e:	e8bd 8ff0 	ldmia.w	sp!, {r4, r5, r6, r7, r8, r9, sl, fp, pc}
  406752:	4615      	mov	r5, r2
  406754:	460c      	mov	r4, r1
  406756:	e772      	b.n	40663e <__multiply+0x1a>

00406758 <__pow5mult>:
  406758:	f012 0303 	ands.w	r3, r2, #3
  40675c:	e92d 41f0 	stmdb	sp!, {r4, r5, r6, r7, r8, lr}
  406760:	4614      	mov	r4, r2
  406762:	4607      	mov	r7, r0
  406764:	460e      	mov	r6, r1
  406766:	d12d      	bne.n	4067c4 <__pow5mult+0x6c>
  406768:	10a4      	asrs	r4, r4, #2
  40676a:	d01c      	beq.n	4067a6 <__pow5mult+0x4e>
  40676c:	6cbd      	ldr	r5, [r7, #72]	; 0x48
  40676e:	b395      	cbz	r5, 4067d6 <__pow5mult+0x7e>
  406770:	07e3      	lsls	r3, r4, #31
  406772:	f04f 0800 	mov.w	r8, #0
  406776:	d406      	bmi.n	406786 <__pow5mult+0x2e>
  406778:	1064      	asrs	r4, r4, #1
  40677a:	d014      	beq.n	4067a6 <__pow5mult+0x4e>
  40677c:	6828      	ldr	r0, [r5, #0]
  40677e:	b1a8      	cbz	r0, 4067ac <__pow5mult+0x54>
  406780:	4605      	mov	r5, r0
  406782:	07e3      	lsls	r3, r4, #31
  406784:	d5f8      	bpl.n	406778 <__pow5mult+0x20>
  406786:	4638      	mov	r0, r7
  406788:	4631      	mov	r1, r6
  40678a:	462a      	mov	r2, r5
  40678c:	f7ff ff4a 	bl	406624 <__multiply>
  406790:	b1b6      	cbz	r6, 4067c0 <__pow5mult+0x68>
  406792:	6872      	ldr	r2, [r6, #4]
  406794:	6cfb      	ldr	r3, [r7, #76]	; 0x4c
  406796:	1064      	asrs	r4, r4, #1
  406798:	f853 1022 	ldr.w	r1, [r3, r2, lsl #2]
  40679c:	6031      	str	r1, [r6, #0]
  40679e:	f843 6022 	str.w	r6, [r3, r2, lsl #2]
  4067a2:	4606      	mov	r6, r0
  4067a4:	d1ea      	bne.n	40677c <__pow5mult+0x24>
  4067a6:	4630      	mov	r0, r6
  4067a8:	e8bd 81f0 	ldmia.w	sp!, {r4, r5, r6, r7, r8, pc}
  4067ac:	4629      	mov	r1, r5
  4067ae:	462a      	mov	r2, r5
  4067b0:	4638      	mov	r0, r7
  4067b2:	f7ff ff37 	bl	406624 <__multiply>
  4067b6:	6028      	str	r0, [r5, #0]
  4067b8:	f8c0 8000 	str.w	r8, [r0]
  4067bc:	4605      	mov	r5, r0
  4067be:	e7e0      	b.n	406782 <__pow5mult+0x2a>
  4067c0:	4606      	mov	r6, r0
  4067c2:	e7d9      	b.n	406778 <__pow5mult+0x20>
  4067c4:	1e5a      	subs	r2, r3, #1
  4067c6:	4d0b      	ldr	r5, [pc, #44]	; (4067f4 <__pow5mult+0x9c>)
  4067c8:	2300      	movs	r3, #0
  4067ca:	f855 2022 	ldr.w	r2, [r5, r2, lsl #2]
  4067ce:	f7ff fe8f 	bl	4064f0 <__multadd>
  4067d2:	4606      	mov	r6, r0
  4067d4:	e7c8      	b.n	406768 <__pow5mult+0x10>
  4067d6:	2101      	movs	r1, #1
  4067d8:	4638      	mov	r0, r7
  4067da:	f7ff fe59 	bl	406490 <_Balloc>
  4067de:	f240 2171 	movw	r1, #625	; 0x271
  4067e2:	2201      	movs	r2, #1
  4067e4:	2300      	movs	r3, #0
  4067e6:	6141      	str	r1, [r0, #20]
  4067e8:	6102      	str	r2, [r0, #16]
  4067ea:	4605      	mov	r5, r0
  4067ec:	64b8      	str	r0, [r7, #72]	; 0x48
  4067ee:	6003      	str	r3, [r0, #0]
  4067f0:	e7be      	b.n	406770 <__pow5mult+0x18>
  4067f2:	bf00      	nop
  4067f4:	00408148 	.word	0x00408148

004067f8 <__lshift>:
  4067f8:	e92d 47f0 	stmdb	sp!, {r4, r5, r6, r7, r8, r9, sl, lr}
  4067fc:	690f      	ldr	r7, [r1, #16]
  4067fe:	688b      	ldr	r3, [r1, #8]
  406800:	ea4f 1962 	mov.w	r9, r2, asr #5
  406804:	444f      	add	r7, r9
  406806:	1c7d      	adds	r5, r7, #1
  406808:	429d      	cmp	r5, r3
  40680a:	460e      	mov	r6, r1
  40680c:	4614      	mov	r4, r2
  40680e:	6849      	ldr	r1, [r1, #4]
  406810:	4680      	mov	r8, r0
  406812:	dd04      	ble.n	40681e <__lshift+0x26>
  406814:	005b      	lsls	r3, r3, #1
  406816:	429d      	cmp	r5, r3
  406818:	f101 0101 	add.w	r1, r1, #1
  40681c:	dcfa      	bgt.n	406814 <__lshift+0x1c>
  40681e:	4640      	mov	r0, r8
  406820:	f7ff fe36 	bl	406490 <_Balloc>
  406824:	f1b9 0f00 	cmp.w	r9, #0
  406828:	f100 0114 	add.w	r1, r0, #20
  40682c:	dd09      	ble.n	406842 <__lshift+0x4a>
  40682e:	2300      	movs	r3, #0
  406830:	469e      	mov	lr, r3
  406832:	460a      	mov	r2, r1
  406834:	3301      	adds	r3, #1
  406836:	454b      	cmp	r3, r9
  406838:	f842 eb04 	str.w	lr, [r2], #4
  40683c:	d1fa      	bne.n	406834 <__lshift+0x3c>
  40683e:	eb01 0183 	add.w	r1, r1, r3, lsl #2
  406842:	6932      	ldr	r2, [r6, #16]
  406844:	f106 0314 	add.w	r3, r6, #20
  406848:	f014 0c1f 	ands.w	ip, r4, #31
  40684c:	eb03 0e82 	add.w	lr, r3, r2, lsl #2
  406850:	d01f      	beq.n	406892 <__lshift+0x9a>
  406852:	f1cc 0920 	rsb	r9, ip, #32
  406856:	2200      	movs	r2, #0
  406858:	681c      	ldr	r4, [r3, #0]
  40685a:	fa04 f40c 	lsl.w	r4, r4, ip
  40685e:	4314      	orrs	r4, r2
  406860:	468a      	mov	sl, r1
  406862:	f841 4b04 	str.w	r4, [r1], #4
  406866:	f853 4b04 	ldr.w	r4, [r3], #4
  40686a:	459e      	cmp	lr, r3
  40686c:	fa24 f209 	lsr.w	r2, r4, r9
  406870:	d8f2      	bhi.n	406858 <__lshift+0x60>
  406872:	f8ca 2004 	str.w	r2, [sl, #4]
  406876:	b102      	cbz	r2, 40687a <__lshift+0x82>
  406878:	1cbd      	adds	r5, r7, #2
  40687a:	f8d8 304c 	ldr.w	r3, [r8, #76]	; 0x4c
  40687e:	6872      	ldr	r2, [r6, #4]
  406880:	3d01      	subs	r5, #1
  406882:	f853 1022 	ldr.w	r1, [r3, r2, lsl #2]
  406886:	6105      	str	r5, [r0, #16]
  406888:	6031      	str	r1, [r6, #0]
  40688a:	f843 6022 	str.w	r6, [r3, r2, lsl #2]
  40688e:	e8bd 87f0 	ldmia.w	sp!, {r4, r5, r6, r7, r8, r9, sl, pc}
  406892:	3904      	subs	r1, #4
  406894:	f853 2b04 	ldr.w	r2, [r3], #4
  406898:	f841 2f04 	str.w	r2, [r1, #4]!
  40689c:	459e      	cmp	lr, r3
  40689e:	d8f9      	bhi.n	406894 <__lshift+0x9c>
  4068a0:	e7eb      	b.n	40687a <__lshift+0x82>
  4068a2:	bf00      	nop

004068a4 <__mcmp>:
  4068a4:	6902      	ldr	r2, [r0, #16]
  4068a6:	690b      	ldr	r3, [r1, #16]
  4068a8:	1ad2      	subs	r2, r2, r3
  4068aa:	d113      	bne.n	4068d4 <__mcmp+0x30>
  4068ac:	009b      	lsls	r3, r3, #2
  4068ae:	3014      	adds	r0, #20
  4068b0:	3114      	adds	r1, #20
  4068b2:	4419      	add	r1, r3
  4068b4:	b410      	push	{r4}
  4068b6:	4403      	add	r3, r0
  4068b8:	e001      	b.n	4068be <__mcmp+0x1a>
  4068ba:	4298      	cmp	r0, r3
  4068bc:	d20c      	bcs.n	4068d8 <__mcmp+0x34>
  4068be:	f853 4d04 	ldr.w	r4, [r3, #-4]!
  4068c2:	f851 2d04 	ldr.w	r2, [r1, #-4]!
  4068c6:	4294      	cmp	r4, r2
  4068c8:	d0f7      	beq.n	4068ba <__mcmp+0x16>
  4068ca:	d309      	bcc.n	4068e0 <__mcmp+0x3c>
  4068cc:	2001      	movs	r0, #1
  4068ce:	f85d 4b04 	ldr.w	r4, [sp], #4
  4068d2:	4770      	bx	lr
  4068d4:	4610      	mov	r0, r2
  4068d6:	4770      	bx	lr
  4068d8:	2000      	movs	r0, #0
  4068da:	f85d 4b04 	ldr.w	r4, [sp], #4
  4068de:	4770      	bx	lr
  4068e0:	f04f 30ff 	mov.w	r0, #4294967295
  4068e4:	f85d 4b04 	ldr.w	r4, [sp], #4
  4068e8:	4770      	bx	lr
  4068ea:	bf00      	nop

004068ec <__mdiff>:
  4068ec:	e92d 41f0 	stmdb	sp!, {r4, r5, r6, r7, r8, lr}
  4068f0:	460e      	mov	r6, r1
  4068f2:	4605      	mov	r5, r0
  4068f4:	4611      	mov	r1, r2
  4068f6:	4630      	mov	r0, r6
  4068f8:	4614      	mov	r4, r2
  4068fa:	f7ff ffd3 	bl	4068a4 <__mcmp>
  4068fe:	1e07      	subs	r7, r0, #0
  406900:	d054      	beq.n	4069ac <__mdiff+0xc0>
  406902:	db4d      	blt.n	4069a0 <__mdiff+0xb4>
  406904:	f04f 0800 	mov.w	r8, #0
  406908:	6871      	ldr	r1, [r6, #4]
  40690a:	4628      	mov	r0, r5
  40690c:	f7ff fdc0 	bl	406490 <_Balloc>
  406910:	6937      	ldr	r7, [r6, #16]
  406912:	6923      	ldr	r3, [r4, #16]
  406914:	f8c0 800c 	str.w	r8, [r0, #12]
  406918:	3614      	adds	r6, #20
  40691a:	f104 0214 	add.w	r2, r4, #20
  40691e:	eb02 0c83 	add.w	ip, r2, r3, lsl #2
  406922:	f100 0514 	add.w	r5, r0, #20
  406926:	eb06 0e87 	add.w	lr, r6, r7, lsl #2
  40692a:	2300      	movs	r3, #0
  40692c:	f856 8b04 	ldr.w	r8, [r6], #4
  406930:	f852 4b04 	ldr.w	r4, [r2], #4
  406934:	fa13 f388 	uxtah	r3, r3, r8
  406938:	b2a1      	uxth	r1, r4
  40693a:	0c24      	lsrs	r4, r4, #16
  40693c:	1a59      	subs	r1, r3, r1
  40693e:	ebc4 4318 	rsb	r3, r4, r8, lsr #16
  406942:	eb03 4321 	add.w	r3, r3, r1, asr #16
  406946:	b289      	uxth	r1, r1
  406948:	ea41 4103 	orr.w	r1, r1, r3, lsl #16
  40694c:	4594      	cmp	ip, r2
  40694e:	f845 1b04 	str.w	r1, [r5], #4
  406952:	ea4f 4323 	mov.w	r3, r3, asr #16
  406956:	4634      	mov	r4, r6
  406958:	d8e8      	bhi.n	40692c <__mdiff+0x40>
  40695a:	45b6      	cmp	lr, r6
  40695c:	46ac      	mov	ip, r5
  40695e:	d915      	bls.n	40698c <__mdiff+0xa0>
  406960:	f854 2b04 	ldr.w	r2, [r4], #4
  406964:	fa13 f182 	uxtah	r1, r3, r2
  406968:	0c13      	lsrs	r3, r2, #16
  40696a:	eb03 4321 	add.w	r3, r3, r1, asr #16
  40696e:	b289      	uxth	r1, r1
  406970:	ea41 4103 	orr.w	r1, r1, r3, lsl #16
  406974:	45a6      	cmp	lr, r4
  406976:	f845 1b04 	str.w	r1, [r5], #4
  40697a:	ea4f 4323 	mov.w	r3, r3, asr #16
  40697e:	d8ef      	bhi.n	406960 <__mdiff+0x74>
  406980:	43f6      	mvns	r6, r6
  406982:	4476      	add	r6, lr
  406984:	f026 0503 	bic.w	r5, r6, #3
  406988:	3504      	adds	r5, #4
  40698a:	4465      	add	r5, ip
  40698c:	3d04      	subs	r5, #4
  40698e:	b921      	cbnz	r1, 40699a <__mdiff+0xae>
  406990:	f855 3d04 	ldr.w	r3, [r5, #-4]!
  406994:	3f01      	subs	r7, #1
  406996:	2b00      	cmp	r3, #0
  406998:	d0fa      	beq.n	406990 <__mdiff+0xa4>
  40699a:	6107      	str	r7, [r0, #16]
  40699c:	e8bd 81f0 	ldmia.w	sp!, {r4, r5, r6, r7, r8, pc}
  4069a0:	4633      	mov	r3, r6
  4069a2:	f04f 0801 	mov.w	r8, #1
  4069a6:	4626      	mov	r6, r4
  4069a8:	461c      	mov	r4, r3
  4069aa:	e7ad      	b.n	406908 <__mdiff+0x1c>
  4069ac:	4628      	mov	r0, r5
  4069ae:	4639      	mov	r1, r7
  4069b0:	f7ff fd6e 	bl	406490 <_Balloc>
  4069b4:	2301      	movs	r3, #1
  4069b6:	6147      	str	r7, [r0, #20]
  4069b8:	6103      	str	r3, [r0, #16]
  4069ba:	e8bd 81f0 	ldmia.w	sp!, {r4, r5, r6, r7, r8, pc}
  4069be:	bf00      	nop

004069c0 <__d2b>:
  4069c0:	e92d 41f0 	stmdb	sp!, {r4, r5, r6, r7, r8, lr}
  4069c4:	b082      	sub	sp, #8
  4069c6:	2101      	movs	r1, #1
  4069c8:	461c      	mov	r4, r3
  4069ca:	f3c3 570a 	ubfx	r7, r3, #20, #11
  4069ce:	4615      	mov	r5, r2
  4069d0:	9e08      	ldr	r6, [sp, #32]
  4069d2:	f7ff fd5d 	bl	406490 <_Balloc>
  4069d6:	f3c4 0413 	ubfx	r4, r4, #0, #20
  4069da:	4680      	mov	r8, r0
  4069dc:	b10f      	cbz	r7, 4069e2 <__d2b+0x22>
  4069de:	f444 1480 	orr.w	r4, r4, #1048576	; 0x100000
  4069e2:	9401      	str	r4, [sp, #4]
  4069e4:	b31d      	cbz	r5, 406a2e <__d2b+0x6e>
  4069e6:	a802      	add	r0, sp, #8
  4069e8:	f840 5d08 	str.w	r5, [r0, #-8]!
  4069ec:	f7ff fde2 	bl	4065b4 <__lo0bits>
  4069f0:	2800      	cmp	r0, #0
  4069f2:	d134      	bne.n	406a5e <__d2b+0x9e>
  4069f4:	e89d 000c 	ldmia.w	sp, {r2, r3}
  4069f8:	f8c8 2014 	str.w	r2, [r8, #20]
  4069fc:	2b00      	cmp	r3, #0
  4069fe:	bf14      	ite	ne
  406a00:	2402      	movne	r4, #2
  406a02:	2401      	moveq	r4, #1
  406a04:	f8c8 3018 	str.w	r3, [r8, #24]
  406a08:	f8c8 4010 	str.w	r4, [r8, #16]
  406a0c:	b9df      	cbnz	r7, 406a46 <__d2b+0x86>
  406a0e:	eb08 0384 	add.w	r3, r8, r4, lsl #2
  406a12:	f2a0 4032 	subw	r0, r0, #1074	; 0x432
  406a16:	6030      	str	r0, [r6, #0]
  406a18:	6918      	ldr	r0, [r3, #16]
  406a1a:	f7ff fdab 	bl	406574 <__hi0bits>
  406a1e:	9b09      	ldr	r3, [sp, #36]	; 0x24
  406a20:	ebc0 1044 	rsb	r0, r0, r4, lsl #5
  406a24:	6018      	str	r0, [r3, #0]
  406a26:	4640      	mov	r0, r8
  406a28:	b002      	add	sp, #8
  406a2a:	e8bd 81f0 	ldmia.w	sp!, {r4, r5, r6, r7, r8, pc}
  406a2e:	a801      	add	r0, sp, #4
  406a30:	f7ff fdc0 	bl	4065b4 <__lo0bits>
  406a34:	2401      	movs	r4, #1
  406a36:	9b01      	ldr	r3, [sp, #4]
  406a38:	f8c8 3014 	str.w	r3, [r8, #20]
  406a3c:	3020      	adds	r0, #32
  406a3e:	f8c8 4010 	str.w	r4, [r8, #16]
  406a42:	2f00      	cmp	r7, #0
  406a44:	d0e3      	beq.n	406a0e <__d2b+0x4e>
  406a46:	9b09      	ldr	r3, [sp, #36]	; 0x24
  406a48:	f2a7 4733 	subw	r7, r7, #1075	; 0x433
  406a4c:	4407      	add	r7, r0
  406a4e:	f1c0 0035 	rsb	r0, r0, #53	; 0x35
  406a52:	6037      	str	r7, [r6, #0]
  406a54:	6018      	str	r0, [r3, #0]
  406a56:	4640      	mov	r0, r8
  406a58:	b002      	add	sp, #8
  406a5a:	e8bd 81f0 	ldmia.w	sp!, {r4, r5, r6, r7, r8, pc}
  406a5e:	e89d 000c 	ldmia.w	sp, {r2, r3}
  406a62:	f1c0 0120 	rsb	r1, r0, #32
  406a66:	fa03 f101 	lsl.w	r1, r3, r1
  406a6a:	430a      	orrs	r2, r1
  406a6c:	40c3      	lsrs	r3, r0
  406a6e:	9301      	str	r3, [sp, #4]
  406a70:	f8c8 2014 	str.w	r2, [r8, #20]
  406a74:	e7c2      	b.n	4069fc <__d2b+0x3c>
  406a76:	bf00      	nop

00406a78 <_realloc_r>:
  406a78:	e92d 4ff0 	stmdb	sp!, {r4, r5, r6, r7, r8, r9, sl, fp, lr}
  406a7c:	4617      	mov	r7, r2
  406a7e:	b083      	sub	sp, #12
  406a80:	460e      	mov	r6, r1
  406a82:	2900      	cmp	r1, #0
  406a84:	f000 80e7 	beq.w	406c56 <_realloc_r+0x1de>
  406a88:	4681      	mov	r9, r0
  406a8a:	f107 050b 	add.w	r5, r7, #11
  406a8e:	f7ff fcfb 	bl	406488 <__malloc_lock>
  406a92:	f856 3c04 	ldr.w	r3, [r6, #-4]
  406a96:	2d16      	cmp	r5, #22
  406a98:	f023 0403 	bic.w	r4, r3, #3
  406a9c:	f1a6 0808 	sub.w	r8, r6, #8
  406aa0:	d84c      	bhi.n	406b3c <_realloc_r+0xc4>
  406aa2:	2210      	movs	r2, #16
  406aa4:	4615      	mov	r5, r2
  406aa6:	42af      	cmp	r7, r5
  406aa8:	d84d      	bhi.n	406b46 <_realloc_r+0xce>
  406aaa:	4294      	cmp	r4, r2
  406aac:	f280 8084 	bge.w	406bb8 <_realloc_r+0x140>
  406ab0:	f8df b3ac 	ldr.w	fp, [pc, #940]	; 406e60 <_realloc_r+0x3e8>
  406ab4:	f8db 0008 	ldr.w	r0, [fp, #8]
  406ab8:	eb08 0104 	add.w	r1, r8, r4
  406abc:	4288      	cmp	r0, r1
  406abe:	f000 80d6 	beq.w	406c6e <_realloc_r+0x1f6>
  406ac2:	6848      	ldr	r0, [r1, #4]
  406ac4:	f020 0e01 	bic.w	lr, r0, #1
  406ac8:	448e      	add	lr, r1
  406aca:	f8de e004 	ldr.w	lr, [lr, #4]
  406ace:	f01e 0f01 	tst.w	lr, #1
  406ad2:	d13f      	bne.n	406b54 <_realloc_r+0xdc>
  406ad4:	f020 0003 	bic.w	r0, r0, #3
  406ad8:	4420      	add	r0, r4
  406ada:	4290      	cmp	r0, r2
  406adc:	f280 80c1 	bge.w	406c62 <_realloc_r+0x1ea>
  406ae0:	07db      	lsls	r3, r3, #31
  406ae2:	f100 808f 	bmi.w	406c04 <_realloc_r+0x18c>
  406ae6:	f856 3c08 	ldr.w	r3, [r6, #-8]
  406aea:	ebc3 0a08 	rsb	sl, r3, r8
  406aee:	f8da 3004 	ldr.w	r3, [sl, #4]
  406af2:	f023 0303 	bic.w	r3, r3, #3
  406af6:	eb00 0e03 	add.w	lr, r0, r3
  406afa:	4596      	cmp	lr, r2
  406afc:	db34      	blt.n	406b68 <_realloc_r+0xf0>
  406afe:	68cb      	ldr	r3, [r1, #12]
  406b00:	688a      	ldr	r2, [r1, #8]
  406b02:	4657      	mov	r7, sl
  406b04:	60d3      	str	r3, [r2, #12]
  406b06:	609a      	str	r2, [r3, #8]
  406b08:	f857 1f08 	ldr.w	r1, [r7, #8]!
  406b0c:	f8da 300c 	ldr.w	r3, [sl, #12]
  406b10:	60cb      	str	r3, [r1, #12]
  406b12:	1f22      	subs	r2, r4, #4
  406b14:	2a24      	cmp	r2, #36	; 0x24
  406b16:	6099      	str	r1, [r3, #8]
  406b18:	f200 8136 	bhi.w	406d88 <_realloc_r+0x310>
  406b1c:	2a13      	cmp	r2, #19
  406b1e:	f240 80fd 	bls.w	406d1c <_realloc_r+0x2a4>
  406b22:	6833      	ldr	r3, [r6, #0]
  406b24:	f8ca 3008 	str.w	r3, [sl, #8]
  406b28:	6873      	ldr	r3, [r6, #4]
  406b2a:	f8ca 300c 	str.w	r3, [sl, #12]
  406b2e:	2a1b      	cmp	r2, #27
  406b30:	f200 8140 	bhi.w	406db4 <_realloc_r+0x33c>
  406b34:	3608      	adds	r6, #8
  406b36:	f10a 0310 	add.w	r3, sl, #16
  406b3a:	e0f0      	b.n	406d1e <_realloc_r+0x2a6>
  406b3c:	f025 0507 	bic.w	r5, r5, #7
  406b40:	2d00      	cmp	r5, #0
  406b42:	462a      	mov	r2, r5
  406b44:	daaf      	bge.n	406aa6 <_realloc_r+0x2e>
  406b46:	230c      	movs	r3, #12
  406b48:	2000      	movs	r0, #0
  406b4a:	f8c9 3000 	str.w	r3, [r9]
  406b4e:	b003      	add	sp, #12
  406b50:	e8bd 8ff0 	ldmia.w	sp!, {r4, r5, r6, r7, r8, r9, sl, fp, pc}
  406b54:	07d9      	lsls	r1, r3, #31
  406b56:	d455      	bmi.n	406c04 <_realloc_r+0x18c>
  406b58:	f856 3c08 	ldr.w	r3, [r6, #-8]
  406b5c:	ebc3 0a08 	rsb	sl, r3, r8
  406b60:	f8da 3004 	ldr.w	r3, [sl, #4]
  406b64:	f023 0303 	bic.w	r3, r3, #3
  406b68:	4423      	add	r3, r4
  406b6a:	4293      	cmp	r3, r2
  406b6c:	db4a      	blt.n	406c04 <_realloc_r+0x18c>
  406b6e:	4657      	mov	r7, sl
  406b70:	f8da 100c 	ldr.w	r1, [sl, #12]
  406b74:	f857 0f08 	ldr.w	r0, [r7, #8]!
  406b78:	1f22      	subs	r2, r4, #4
  406b7a:	2a24      	cmp	r2, #36	; 0x24
  406b7c:	60c1      	str	r1, [r0, #12]
  406b7e:	6088      	str	r0, [r1, #8]
  406b80:	f200 810e 	bhi.w	406da0 <_realloc_r+0x328>
  406b84:	2a13      	cmp	r2, #19
  406b86:	f240 8109 	bls.w	406d9c <_realloc_r+0x324>
  406b8a:	6831      	ldr	r1, [r6, #0]
  406b8c:	f8ca 1008 	str.w	r1, [sl, #8]
  406b90:	6871      	ldr	r1, [r6, #4]
  406b92:	f8ca 100c 	str.w	r1, [sl, #12]
  406b96:	2a1b      	cmp	r2, #27
  406b98:	f200 8121 	bhi.w	406dde <_realloc_r+0x366>
  406b9c:	3608      	adds	r6, #8
  406b9e:	f10a 0210 	add.w	r2, sl, #16
  406ba2:	6831      	ldr	r1, [r6, #0]
  406ba4:	6011      	str	r1, [r2, #0]
  406ba6:	6871      	ldr	r1, [r6, #4]
  406ba8:	6051      	str	r1, [r2, #4]
  406baa:	68b1      	ldr	r1, [r6, #8]
  406bac:	6091      	str	r1, [r2, #8]
  406bae:	461c      	mov	r4, r3
  406bb0:	f8da 3004 	ldr.w	r3, [sl, #4]
  406bb4:	463e      	mov	r6, r7
  406bb6:	46d0      	mov	r8, sl
  406bb8:	1b62      	subs	r2, r4, r5
  406bba:	2a0f      	cmp	r2, #15
  406bbc:	f003 0301 	and.w	r3, r3, #1
  406bc0:	d80e      	bhi.n	406be0 <_realloc_r+0x168>
  406bc2:	4323      	orrs	r3, r4
  406bc4:	4444      	add	r4, r8
  406bc6:	f8c8 3004 	str.w	r3, [r8, #4]
  406bca:	6863      	ldr	r3, [r4, #4]
  406bcc:	f043 0301 	orr.w	r3, r3, #1
  406bd0:	6063      	str	r3, [r4, #4]
  406bd2:	4648      	mov	r0, r9
  406bd4:	f7ff fc5a 	bl	40648c <__malloc_unlock>
  406bd8:	4630      	mov	r0, r6
  406bda:	b003      	add	sp, #12
  406bdc:	e8bd 8ff0 	ldmia.w	sp!, {r4, r5, r6, r7, r8, r9, sl, fp, pc}
  406be0:	eb08 0105 	add.w	r1, r8, r5
  406be4:	431d      	orrs	r5, r3
  406be6:	f042 0301 	orr.w	r3, r2, #1
  406bea:	440a      	add	r2, r1
  406bec:	f8c8 5004 	str.w	r5, [r8, #4]
  406bf0:	604b      	str	r3, [r1, #4]
  406bf2:	6853      	ldr	r3, [r2, #4]
  406bf4:	f043 0301 	orr.w	r3, r3, #1
  406bf8:	3108      	adds	r1, #8
  406bfa:	6053      	str	r3, [r2, #4]
  406bfc:	4648      	mov	r0, r9
  406bfe:	f7fe ff8d 	bl	405b1c <_free_r>
  406c02:	e7e6      	b.n	406bd2 <_realloc_r+0x15a>
  406c04:	4639      	mov	r1, r7
  406c06:	4648      	mov	r0, r9
  406c08:	f7ff f864 	bl	405cd4 <_malloc_r>
  406c0c:	4607      	mov	r7, r0
  406c0e:	b1d8      	cbz	r0, 406c48 <_realloc_r+0x1d0>
  406c10:	f856 3c04 	ldr.w	r3, [r6, #-4]
  406c14:	f023 0201 	bic.w	r2, r3, #1
  406c18:	4442      	add	r2, r8
  406c1a:	f1a0 0108 	sub.w	r1, r0, #8
  406c1e:	4291      	cmp	r1, r2
  406c20:	f000 80ac 	beq.w	406d7c <_realloc_r+0x304>
  406c24:	1f22      	subs	r2, r4, #4
  406c26:	2a24      	cmp	r2, #36	; 0x24
  406c28:	f200 8099 	bhi.w	406d5e <_realloc_r+0x2e6>
  406c2c:	2a13      	cmp	r2, #19
  406c2e:	d86a      	bhi.n	406d06 <_realloc_r+0x28e>
  406c30:	4603      	mov	r3, r0
  406c32:	4632      	mov	r2, r6
  406c34:	6811      	ldr	r1, [r2, #0]
  406c36:	6019      	str	r1, [r3, #0]
  406c38:	6851      	ldr	r1, [r2, #4]
  406c3a:	6059      	str	r1, [r3, #4]
  406c3c:	6892      	ldr	r2, [r2, #8]
  406c3e:	609a      	str	r2, [r3, #8]
  406c40:	4631      	mov	r1, r6
  406c42:	4648      	mov	r0, r9
  406c44:	f7fe ff6a 	bl	405b1c <_free_r>
  406c48:	4648      	mov	r0, r9
  406c4a:	f7ff fc1f 	bl	40648c <__malloc_unlock>
  406c4e:	4638      	mov	r0, r7
  406c50:	b003      	add	sp, #12
  406c52:	e8bd 8ff0 	ldmia.w	sp!, {r4, r5, r6, r7, r8, r9, sl, fp, pc}
  406c56:	4611      	mov	r1, r2
  406c58:	b003      	add	sp, #12
  406c5a:	e8bd 4ff0 	ldmia.w	sp!, {r4, r5, r6, r7, r8, r9, sl, fp, lr}
  406c5e:	f7ff b839 	b.w	405cd4 <_malloc_r>
  406c62:	68ca      	ldr	r2, [r1, #12]
  406c64:	6889      	ldr	r1, [r1, #8]
  406c66:	4604      	mov	r4, r0
  406c68:	60ca      	str	r2, [r1, #12]
  406c6a:	6091      	str	r1, [r2, #8]
  406c6c:	e7a4      	b.n	406bb8 <_realloc_r+0x140>
  406c6e:	6841      	ldr	r1, [r0, #4]
  406c70:	f021 0103 	bic.w	r1, r1, #3
  406c74:	4421      	add	r1, r4
  406c76:	f105 0010 	add.w	r0, r5, #16
  406c7a:	4281      	cmp	r1, r0
  406c7c:	da5b      	bge.n	406d36 <_realloc_r+0x2be>
  406c7e:	07db      	lsls	r3, r3, #31
  406c80:	d4c0      	bmi.n	406c04 <_realloc_r+0x18c>
  406c82:	f856 3c08 	ldr.w	r3, [r6, #-8]
  406c86:	ebc3 0a08 	rsb	sl, r3, r8
  406c8a:	f8da 3004 	ldr.w	r3, [sl, #4]
  406c8e:	f023 0303 	bic.w	r3, r3, #3
  406c92:	eb01 0c03 	add.w	ip, r1, r3
  406c96:	4560      	cmp	r0, ip
  406c98:	f73f af66 	bgt.w	406b68 <_realloc_r+0xf0>
  406c9c:	4657      	mov	r7, sl
  406c9e:	f8da 300c 	ldr.w	r3, [sl, #12]
  406ca2:	f857 1f08 	ldr.w	r1, [r7, #8]!
  406ca6:	1f22      	subs	r2, r4, #4
  406ca8:	2a24      	cmp	r2, #36	; 0x24
  406caa:	60cb      	str	r3, [r1, #12]
  406cac:	6099      	str	r1, [r3, #8]
  406cae:	f200 80b8 	bhi.w	406e22 <_realloc_r+0x3aa>
  406cb2:	2a13      	cmp	r2, #19
  406cb4:	f240 80a9 	bls.w	406e0a <_realloc_r+0x392>
  406cb8:	6833      	ldr	r3, [r6, #0]
  406cba:	f8ca 3008 	str.w	r3, [sl, #8]
  406cbe:	6873      	ldr	r3, [r6, #4]
  406cc0:	f8ca 300c 	str.w	r3, [sl, #12]
  406cc4:	2a1b      	cmp	r2, #27
  406cc6:	f200 80b5 	bhi.w	406e34 <_realloc_r+0x3bc>
  406cca:	3608      	adds	r6, #8
  406ccc:	f10a 0310 	add.w	r3, sl, #16
  406cd0:	6832      	ldr	r2, [r6, #0]
  406cd2:	601a      	str	r2, [r3, #0]
  406cd4:	6872      	ldr	r2, [r6, #4]
  406cd6:	605a      	str	r2, [r3, #4]
  406cd8:	68b2      	ldr	r2, [r6, #8]
  406cda:	609a      	str	r2, [r3, #8]
  406cdc:	eb0a 0205 	add.w	r2, sl, r5
  406ce0:	ebc5 030c 	rsb	r3, r5, ip
  406ce4:	f043 0301 	orr.w	r3, r3, #1
  406ce8:	f8cb 2008 	str.w	r2, [fp, #8]
  406cec:	6053      	str	r3, [r2, #4]
  406cee:	f8da 3004 	ldr.w	r3, [sl, #4]
  406cf2:	f003 0301 	and.w	r3, r3, #1
  406cf6:	431d      	orrs	r5, r3
  406cf8:	4648      	mov	r0, r9
  406cfa:	f8ca 5004 	str.w	r5, [sl, #4]
  406cfe:	f7ff fbc5 	bl	40648c <__malloc_unlock>
  406d02:	4638      	mov	r0, r7
  406d04:	e769      	b.n	406bda <_realloc_r+0x162>
  406d06:	6833      	ldr	r3, [r6, #0]
  406d08:	6003      	str	r3, [r0, #0]
  406d0a:	6873      	ldr	r3, [r6, #4]
  406d0c:	6043      	str	r3, [r0, #4]
  406d0e:	2a1b      	cmp	r2, #27
  406d10:	d829      	bhi.n	406d66 <_realloc_r+0x2ee>
  406d12:	f100 0308 	add.w	r3, r0, #8
  406d16:	f106 0208 	add.w	r2, r6, #8
  406d1a:	e78b      	b.n	406c34 <_realloc_r+0x1bc>
  406d1c:	463b      	mov	r3, r7
  406d1e:	6832      	ldr	r2, [r6, #0]
  406d20:	601a      	str	r2, [r3, #0]
  406d22:	6872      	ldr	r2, [r6, #4]
  406d24:	605a      	str	r2, [r3, #4]
  406d26:	68b2      	ldr	r2, [r6, #8]
  406d28:	609a      	str	r2, [r3, #8]
  406d2a:	463e      	mov	r6, r7
  406d2c:	4674      	mov	r4, lr
  406d2e:	f8da 3004 	ldr.w	r3, [sl, #4]
  406d32:	46d0      	mov	r8, sl
  406d34:	e740      	b.n	406bb8 <_realloc_r+0x140>
  406d36:	eb08 0205 	add.w	r2, r8, r5
  406d3a:	1b4b      	subs	r3, r1, r5
  406d3c:	f043 0301 	orr.w	r3, r3, #1
  406d40:	f8cb 2008 	str.w	r2, [fp, #8]
  406d44:	6053      	str	r3, [r2, #4]
  406d46:	f856 3c04 	ldr.w	r3, [r6, #-4]
  406d4a:	f003 0301 	and.w	r3, r3, #1
  406d4e:	431d      	orrs	r5, r3
  406d50:	4648      	mov	r0, r9
  406d52:	f846 5c04 	str.w	r5, [r6, #-4]
  406d56:	f7ff fb99 	bl	40648c <__malloc_unlock>
  406d5a:	4630      	mov	r0, r6
  406d5c:	e73d      	b.n	406bda <_realloc_r+0x162>
  406d5e:	4631      	mov	r1, r6
  406d60:	f7ff fb2e 	bl	4063c0 <memmove>
  406d64:	e76c      	b.n	406c40 <_realloc_r+0x1c8>
  406d66:	68b3      	ldr	r3, [r6, #8]
  406d68:	6083      	str	r3, [r0, #8]
  406d6a:	68f3      	ldr	r3, [r6, #12]
  406d6c:	60c3      	str	r3, [r0, #12]
  406d6e:	2a24      	cmp	r2, #36	; 0x24
  406d70:	d02c      	beq.n	406dcc <_realloc_r+0x354>
  406d72:	f100 0310 	add.w	r3, r0, #16
  406d76:	f106 0210 	add.w	r2, r6, #16
  406d7a:	e75b      	b.n	406c34 <_realloc_r+0x1bc>
  406d7c:	f850 2c04 	ldr.w	r2, [r0, #-4]
  406d80:	f022 0203 	bic.w	r2, r2, #3
  406d84:	4414      	add	r4, r2
  406d86:	e717      	b.n	406bb8 <_realloc_r+0x140>
  406d88:	4631      	mov	r1, r6
  406d8a:	4638      	mov	r0, r7
  406d8c:	4674      	mov	r4, lr
  406d8e:	463e      	mov	r6, r7
  406d90:	f7ff fb16 	bl	4063c0 <memmove>
  406d94:	46d0      	mov	r8, sl
  406d96:	f8da 3004 	ldr.w	r3, [sl, #4]
  406d9a:	e70d      	b.n	406bb8 <_realloc_r+0x140>
  406d9c:	463a      	mov	r2, r7
  406d9e:	e700      	b.n	406ba2 <_realloc_r+0x12a>
  406da0:	4631      	mov	r1, r6
  406da2:	4638      	mov	r0, r7
  406da4:	461c      	mov	r4, r3
  406da6:	463e      	mov	r6, r7
  406da8:	f7ff fb0a 	bl	4063c0 <memmove>
  406dac:	46d0      	mov	r8, sl
  406dae:	f8da 3004 	ldr.w	r3, [sl, #4]
  406db2:	e701      	b.n	406bb8 <_realloc_r+0x140>
  406db4:	68b3      	ldr	r3, [r6, #8]
  406db6:	f8ca 3010 	str.w	r3, [sl, #16]
  406dba:	68f3      	ldr	r3, [r6, #12]
  406dbc:	f8ca 3014 	str.w	r3, [sl, #20]
  406dc0:	2a24      	cmp	r2, #36	; 0x24
  406dc2:	d018      	beq.n	406df6 <_realloc_r+0x37e>
  406dc4:	3610      	adds	r6, #16
  406dc6:	f10a 0318 	add.w	r3, sl, #24
  406dca:	e7a8      	b.n	406d1e <_realloc_r+0x2a6>
  406dcc:	6933      	ldr	r3, [r6, #16]
  406dce:	6103      	str	r3, [r0, #16]
  406dd0:	6973      	ldr	r3, [r6, #20]
  406dd2:	6143      	str	r3, [r0, #20]
  406dd4:	f106 0218 	add.w	r2, r6, #24
  406dd8:	f100 0318 	add.w	r3, r0, #24
  406ddc:	e72a      	b.n	406c34 <_realloc_r+0x1bc>
  406dde:	68b1      	ldr	r1, [r6, #8]
  406de0:	f8ca 1010 	str.w	r1, [sl, #16]
  406de4:	68f1      	ldr	r1, [r6, #12]
  406de6:	f8ca 1014 	str.w	r1, [sl, #20]
  406dea:	2a24      	cmp	r2, #36	; 0x24
  406dec:	d00f      	beq.n	406e0e <_realloc_r+0x396>
  406dee:	3610      	adds	r6, #16
  406df0:	f10a 0218 	add.w	r2, sl, #24
  406df4:	e6d5      	b.n	406ba2 <_realloc_r+0x12a>
  406df6:	6933      	ldr	r3, [r6, #16]
  406df8:	f8ca 3018 	str.w	r3, [sl, #24]
  406dfc:	6973      	ldr	r3, [r6, #20]
  406dfe:	f8ca 301c 	str.w	r3, [sl, #28]
  406e02:	3618      	adds	r6, #24
  406e04:	f10a 0320 	add.w	r3, sl, #32
  406e08:	e789      	b.n	406d1e <_realloc_r+0x2a6>
  406e0a:	463b      	mov	r3, r7
  406e0c:	e760      	b.n	406cd0 <_realloc_r+0x258>
  406e0e:	6932      	ldr	r2, [r6, #16]
  406e10:	f8ca 2018 	str.w	r2, [sl, #24]
  406e14:	6972      	ldr	r2, [r6, #20]
  406e16:	f8ca 201c 	str.w	r2, [sl, #28]
  406e1a:	3618      	adds	r6, #24
  406e1c:	f10a 0220 	add.w	r2, sl, #32
  406e20:	e6bf      	b.n	406ba2 <_realloc_r+0x12a>
  406e22:	4631      	mov	r1, r6
  406e24:	4638      	mov	r0, r7
  406e26:	f8cd c004 	str.w	ip, [sp, #4]
  406e2a:	f7ff fac9 	bl	4063c0 <memmove>
  406e2e:	f8dd c004 	ldr.w	ip, [sp, #4]
  406e32:	e753      	b.n	406cdc <_realloc_r+0x264>
  406e34:	68b3      	ldr	r3, [r6, #8]
  406e36:	f8ca 3010 	str.w	r3, [sl, #16]
  406e3a:	68f3      	ldr	r3, [r6, #12]
  406e3c:	f8ca 3014 	str.w	r3, [sl, #20]
  406e40:	2a24      	cmp	r2, #36	; 0x24
  406e42:	d003      	beq.n	406e4c <_realloc_r+0x3d4>
  406e44:	3610      	adds	r6, #16
  406e46:	f10a 0318 	add.w	r3, sl, #24
  406e4a:	e741      	b.n	406cd0 <_realloc_r+0x258>
  406e4c:	6933      	ldr	r3, [r6, #16]
  406e4e:	f8ca 3018 	str.w	r3, [sl, #24]
  406e52:	6973      	ldr	r3, [r6, #20]
  406e54:	f8ca 301c 	str.w	r3, [sl, #28]
  406e58:	3618      	adds	r6, #24
  406e5a:	f10a 0320 	add.w	r3, sl, #32
  406e5e:	e737      	b.n	406cd0 <_realloc_r+0x258>
  406e60:	20000474 	.word	0x20000474

00406e64 <__fpclassifyd>:
  406e64:	b410      	push	{r4}
  406e66:	f031 4400 	bics.w	r4, r1, #2147483648	; 0x80000000
  406e6a:	d008      	beq.n	406e7e <__fpclassifyd+0x1a>
  406e6c:	4b11      	ldr	r3, [pc, #68]	; (406eb4 <__fpclassifyd+0x50>)
  406e6e:	f5a1 1280 	sub.w	r2, r1, #1048576	; 0x100000
  406e72:	429a      	cmp	r2, r3
  406e74:	d808      	bhi.n	406e88 <__fpclassifyd+0x24>
  406e76:	2004      	movs	r0, #4
  406e78:	f85d 4b04 	ldr.w	r4, [sp], #4
  406e7c:	4770      	bx	lr
  406e7e:	b918      	cbnz	r0, 406e88 <__fpclassifyd+0x24>
  406e80:	2002      	movs	r0, #2
  406e82:	f85d 4b04 	ldr.w	r4, [sp], #4
  406e86:	4770      	bx	lr
  406e88:	f101 41ff 	add.w	r1, r1, #2139095040	; 0x7f800000
  406e8c:	4b09      	ldr	r3, [pc, #36]	; (406eb4 <__fpclassifyd+0x50>)
  406e8e:	f501 01e0 	add.w	r1, r1, #7340032	; 0x700000
  406e92:	4299      	cmp	r1, r3
  406e94:	d9ef      	bls.n	406e76 <__fpclassifyd+0x12>
  406e96:	f5b4 1f80 	cmp.w	r4, #1048576	; 0x100000
  406e9a:	d201      	bcs.n	406ea0 <__fpclassifyd+0x3c>
  406e9c:	2003      	movs	r0, #3
  406e9e:	e7eb      	b.n	406e78 <__fpclassifyd+0x14>
  406ea0:	4b05      	ldr	r3, [pc, #20]	; (406eb8 <__fpclassifyd+0x54>)
  406ea2:	429c      	cmp	r4, r3
  406ea4:	d001      	beq.n	406eaa <__fpclassifyd+0x46>
  406ea6:	2000      	movs	r0, #0
  406ea8:	e7e6      	b.n	406e78 <__fpclassifyd+0x14>
  406eaa:	fab0 f080 	clz	r0, r0
  406eae:	0940      	lsrs	r0, r0, #5
  406eb0:	e7e2      	b.n	406e78 <__fpclassifyd+0x14>
  406eb2:	bf00      	nop
  406eb4:	7fdfffff 	.word	0x7fdfffff
  406eb8:	7ff00000 	.word	0x7ff00000

00406ebc <_sbrk_r>:
  406ebc:	b538      	push	{r3, r4, r5, lr}
  406ebe:	4c07      	ldr	r4, [pc, #28]	; (406edc <_sbrk_r+0x20>)
  406ec0:	2300      	movs	r3, #0
  406ec2:	4605      	mov	r5, r0
  406ec4:	4608      	mov	r0, r1
  406ec6:	6023      	str	r3, [r4, #0]
  406ec8:	f7fa faba 	bl	401440 <_sbrk>
  406ecc:	1c43      	adds	r3, r0, #1
  406ece:	d000      	beq.n	406ed2 <_sbrk_r+0x16>
  406ed0:	bd38      	pop	{r3, r4, r5, pc}
  406ed2:	6823      	ldr	r3, [r4, #0]
  406ed4:	2b00      	cmp	r3, #0
  406ed6:	d0fb      	beq.n	406ed0 <_sbrk_r+0x14>
  406ed8:	602b      	str	r3, [r5, #0]
  406eda:	bd38      	pop	{r3, r4, r5, pc}
  406edc:	20000d58 	.word	0x20000d58

00406ee0 <__ssprint_r>:
  406ee0:	e92d 4ff0 	stmdb	sp!, {r4, r5, r6, r7, r8, r9, sl, fp, lr}
  406ee4:	6893      	ldr	r3, [r2, #8]
  406ee6:	f8d2 8000 	ldr.w	r8, [r2]
  406eea:	b083      	sub	sp, #12
  406eec:	4691      	mov	r9, r2
  406eee:	2b00      	cmp	r3, #0
  406ef0:	d072      	beq.n	406fd8 <__ssprint_r+0xf8>
  406ef2:	4607      	mov	r7, r0
  406ef4:	f04f 0b00 	mov.w	fp, #0
  406ef8:	6808      	ldr	r0, [r1, #0]
  406efa:	688b      	ldr	r3, [r1, #8]
  406efc:	460d      	mov	r5, r1
  406efe:	465c      	mov	r4, fp
  406f00:	2c00      	cmp	r4, #0
  406f02:	d045      	beq.n	406f90 <__ssprint_r+0xb0>
  406f04:	429c      	cmp	r4, r3
  406f06:	461e      	mov	r6, r3
  406f08:	469a      	mov	sl, r3
  406f0a:	d348      	bcc.n	406f9e <__ssprint_r+0xbe>
  406f0c:	89ab      	ldrh	r3, [r5, #12]
  406f0e:	f413 6f90 	tst.w	r3, #1152	; 0x480
  406f12:	d02d      	beq.n	406f70 <__ssprint_r+0x90>
  406f14:	696e      	ldr	r6, [r5, #20]
  406f16:	6929      	ldr	r1, [r5, #16]
  406f18:	eb06 0646 	add.w	r6, r6, r6, lsl #1
  406f1c:	ebc1 0a00 	rsb	sl, r1, r0
  406f20:	eb06 76d6 	add.w	r6, r6, r6, lsr #31
  406f24:	1c60      	adds	r0, r4, #1
  406f26:	1076      	asrs	r6, r6, #1
  406f28:	4450      	add	r0, sl
  406f2a:	4286      	cmp	r6, r0
  406f2c:	4632      	mov	r2, r6
  406f2e:	bf3c      	itt	cc
  406f30:	4606      	movcc	r6, r0
  406f32:	4632      	movcc	r2, r6
  406f34:	055b      	lsls	r3, r3, #21
  406f36:	d535      	bpl.n	406fa4 <__ssprint_r+0xc4>
  406f38:	4611      	mov	r1, r2
  406f3a:	4638      	mov	r0, r7
  406f3c:	f7fe feca 	bl	405cd4 <_malloc_r>
  406f40:	2800      	cmp	r0, #0
  406f42:	d039      	beq.n	406fb8 <__ssprint_r+0xd8>
  406f44:	4652      	mov	r2, sl
  406f46:	6929      	ldr	r1, [r5, #16]
  406f48:	9001      	str	r0, [sp, #4]
  406f4a:	f7ff f99f 	bl	40628c <memcpy>
  406f4e:	89aa      	ldrh	r2, [r5, #12]
  406f50:	9b01      	ldr	r3, [sp, #4]
  406f52:	f422 6290 	bic.w	r2, r2, #1152	; 0x480
  406f56:	f042 0280 	orr.w	r2, r2, #128	; 0x80
  406f5a:	81aa      	strh	r2, [r5, #12]
  406f5c:	ebca 0206 	rsb	r2, sl, r6
  406f60:	eb03 000a 	add.w	r0, r3, sl
  406f64:	616e      	str	r6, [r5, #20]
  406f66:	612b      	str	r3, [r5, #16]
  406f68:	6028      	str	r0, [r5, #0]
  406f6a:	60aa      	str	r2, [r5, #8]
  406f6c:	4626      	mov	r6, r4
  406f6e:	46a2      	mov	sl, r4
  406f70:	4652      	mov	r2, sl
  406f72:	4659      	mov	r1, fp
  406f74:	f7ff fa24 	bl	4063c0 <memmove>
  406f78:	f8d9 2008 	ldr.w	r2, [r9, #8]
  406f7c:	68ab      	ldr	r3, [r5, #8]
  406f7e:	6828      	ldr	r0, [r5, #0]
  406f80:	1b9b      	subs	r3, r3, r6
  406f82:	4450      	add	r0, sl
  406f84:	1b14      	subs	r4, r2, r4
  406f86:	60ab      	str	r3, [r5, #8]
  406f88:	6028      	str	r0, [r5, #0]
  406f8a:	f8c9 4008 	str.w	r4, [r9, #8]
  406f8e:	b31c      	cbz	r4, 406fd8 <__ssprint_r+0xf8>
  406f90:	f8d8 b000 	ldr.w	fp, [r8]
  406f94:	f8d8 4004 	ldr.w	r4, [r8, #4]
  406f98:	f108 0808 	add.w	r8, r8, #8
  406f9c:	e7b0      	b.n	406f00 <__ssprint_r+0x20>
  406f9e:	4626      	mov	r6, r4
  406fa0:	46a2      	mov	sl, r4
  406fa2:	e7e5      	b.n	406f70 <__ssprint_r+0x90>
  406fa4:	4638      	mov	r0, r7
  406fa6:	f7ff fd67 	bl	406a78 <_realloc_r>
  406faa:	4603      	mov	r3, r0
  406fac:	2800      	cmp	r0, #0
  406fae:	d1d5      	bne.n	406f5c <__ssprint_r+0x7c>
  406fb0:	4638      	mov	r0, r7
  406fb2:	6929      	ldr	r1, [r5, #16]
  406fb4:	f7fe fdb2 	bl	405b1c <_free_r>
  406fb8:	230c      	movs	r3, #12
  406fba:	603b      	str	r3, [r7, #0]
  406fbc:	89ab      	ldrh	r3, [r5, #12]
  406fbe:	2200      	movs	r2, #0
  406fc0:	f043 0340 	orr.w	r3, r3, #64	; 0x40
  406fc4:	f04f 30ff 	mov.w	r0, #4294967295
  406fc8:	81ab      	strh	r3, [r5, #12]
  406fca:	f8c9 2008 	str.w	r2, [r9, #8]
  406fce:	f8c9 2004 	str.w	r2, [r9, #4]
  406fd2:	b003      	add	sp, #12
  406fd4:	e8bd 8ff0 	ldmia.w	sp!, {r4, r5, r6, r7, r8, r9, sl, fp, pc}
  406fd8:	2000      	movs	r0, #0
  406fda:	f8c9 0004 	str.w	r0, [r9, #4]
  406fde:	b003      	add	sp, #12
  406fe0:	e8bd 8ff0 	ldmia.w	sp!, {r4, r5, r6, r7, r8, r9, sl, fp, pc}

00406fe4 <__register_exitproc>:
  406fe4:	e92d 47f0 	stmdb	sp!, {r4, r5, r6, r7, r8, r9, sl, lr}
  406fe8:	4c25      	ldr	r4, [pc, #148]	; (407080 <__register_exitproc+0x9c>)
  406fea:	6825      	ldr	r5, [r4, #0]
  406fec:	f8d5 4148 	ldr.w	r4, [r5, #328]	; 0x148
  406ff0:	4606      	mov	r6, r0
  406ff2:	4688      	mov	r8, r1
  406ff4:	4692      	mov	sl, r2
  406ff6:	4699      	mov	r9, r3
  406ff8:	b3cc      	cbz	r4, 40706e <__register_exitproc+0x8a>
  406ffa:	6860      	ldr	r0, [r4, #4]
  406ffc:	281f      	cmp	r0, #31
  406ffe:	dc18      	bgt.n	407032 <__register_exitproc+0x4e>
  407000:	1c43      	adds	r3, r0, #1
  407002:	b17e      	cbz	r6, 407024 <__register_exitproc+0x40>
  407004:	eb04 0580 	add.w	r5, r4, r0, lsl #2
  407008:	2101      	movs	r1, #1
  40700a:	f8c5 a088 	str.w	sl, [r5, #136]	; 0x88
  40700e:	f8d4 7188 	ldr.w	r7, [r4, #392]	; 0x188
  407012:	fa01 f200 	lsl.w	r2, r1, r0
  407016:	4317      	orrs	r7, r2
  407018:	2e02      	cmp	r6, #2
  40701a:	f8c4 7188 	str.w	r7, [r4, #392]	; 0x188
  40701e:	f8c5 9108 	str.w	r9, [r5, #264]	; 0x108
  407022:	d01e      	beq.n	407062 <__register_exitproc+0x7e>
  407024:	3002      	adds	r0, #2
  407026:	6063      	str	r3, [r4, #4]
  407028:	f844 8020 	str.w	r8, [r4, r0, lsl #2]
  40702c:	2000      	movs	r0, #0
  40702e:	e8bd 87f0 	ldmia.w	sp!, {r4, r5, r6, r7, r8, r9, sl, pc}
  407032:	4b14      	ldr	r3, [pc, #80]	; (407084 <__register_exitproc+0xa0>)
  407034:	b303      	cbz	r3, 407078 <__register_exitproc+0x94>
  407036:	f44f 70c8 	mov.w	r0, #400	; 0x190
  40703a:	f3af 8000 	nop.w
  40703e:	4604      	mov	r4, r0
  407040:	b1d0      	cbz	r0, 407078 <__register_exitproc+0x94>
  407042:	f8d5 3148 	ldr.w	r3, [r5, #328]	; 0x148
  407046:	2700      	movs	r7, #0
  407048:	e880 0088 	stmia.w	r0, {r3, r7}
  40704c:	f8c5 4148 	str.w	r4, [r5, #328]	; 0x148
  407050:	4638      	mov	r0, r7
  407052:	2301      	movs	r3, #1
  407054:	f8c4 7188 	str.w	r7, [r4, #392]	; 0x188
  407058:	f8c4 718c 	str.w	r7, [r4, #396]	; 0x18c
  40705c:	2e00      	cmp	r6, #0
  40705e:	d0e1      	beq.n	407024 <__register_exitproc+0x40>
  407060:	e7d0      	b.n	407004 <__register_exitproc+0x20>
  407062:	f8d4 118c 	ldr.w	r1, [r4, #396]	; 0x18c
  407066:	430a      	orrs	r2, r1
  407068:	f8c4 218c 	str.w	r2, [r4, #396]	; 0x18c
  40706c:	e7da      	b.n	407024 <__register_exitproc+0x40>
  40706e:	f505 74a6 	add.w	r4, r5, #332	; 0x14c
  407072:	f8c5 4148 	str.w	r4, [r5, #328]	; 0x148
  407076:	e7c0      	b.n	406ffa <__register_exitproc+0x16>
  407078:	f04f 30ff 	mov.w	r0, #4294967295
  40707c:	e8bd 87f0 	ldmia.w	sp!, {r4, r5, r6, r7, r8, r9, sl, pc}
  407080:	00407ffc 	.word	0x00407ffc
  407084:	00000000 	.word	0x00000000

00407088 <_calloc_r>:
  407088:	b510      	push	{r4, lr}
  40708a:	fb02 f101 	mul.w	r1, r2, r1
  40708e:	f7fe fe21 	bl	405cd4 <_malloc_r>
  407092:	4604      	mov	r4, r0
  407094:	b168      	cbz	r0, 4070b2 <_calloc_r+0x2a>
  407096:	f850 2c04 	ldr.w	r2, [r0, #-4]
  40709a:	f022 0203 	bic.w	r2, r2, #3
  40709e:	3a04      	subs	r2, #4
  4070a0:	2a24      	cmp	r2, #36	; 0x24
  4070a2:	d818      	bhi.n	4070d6 <_calloc_r+0x4e>
  4070a4:	2a13      	cmp	r2, #19
  4070a6:	d806      	bhi.n	4070b6 <_calloc_r+0x2e>
  4070a8:	4603      	mov	r3, r0
  4070aa:	2200      	movs	r2, #0
  4070ac:	601a      	str	r2, [r3, #0]
  4070ae:	605a      	str	r2, [r3, #4]
  4070b0:	609a      	str	r2, [r3, #8]
  4070b2:	4620      	mov	r0, r4
  4070b4:	bd10      	pop	{r4, pc}
  4070b6:	2300      	movs	r3, #0
  4070b8:	2a1b      	cmp	r2, #27
  4070ba:	6003      	str	r3, [r0, #0]
  4070bc:	6043      	str	r3, [r0, #4]
  4070be:	d90f      	bls.n	4070e0 <_calloc_r+0x58>
  4070c0:	2a24      	cmp	r2, #36	; 0x24
  4070c2:	6083      	str	r3, [r0, #8]
  4070c4:	60c3      	str	r3, [r0, #12]
  4070c6:	bf05      	ittet	eq
  4070c8:	6103      	streq	r3, [r0, #16]
  4070ca:	6143      	streq	r3, [r0, #20]
  4070cc:	f100 0310 	addne.w	r3, r0, #16
  4070d0:	f100 0318 	addeq.w	r3, r0, #24
  4070d4:	e7e9      	b.n	4070aa <_calloc_r+0x22>
  4070d6:	2100      	movs	r1, #0
  4070d8:	f7fc f9de 	bl	403498 <memset>
  4070dc:	4620      	mov	r0, r4
  4070de:	bd10      	pop	{r4, pc}
  4070e0:	f100 0308 	add.w	r3, r0, #8
  4070e4:	e7e1      	b.n	4070aa <_calloc_r+0x22>
  4070e6:	bf00      	nop

004070e8 <__aeabi_uldivmod>:
  4070e8:	b953      	cbnz	r3, 407100 <__aeabi_uldivmod+0x18>
  4070ea:	b94a      	cbnz	r2, 407100 <__aeabi_uldivmod+0x18>
  4070ec:	2900      	cmp	r1, #0
  4070ee:	bf08      	it	eq
  4070f0:	2800      	cmpeq	r0, #0
  4070f2:	bf1c      	itt	ne
  4070f4:	f04f 31ff 	movne.w	r1, #4294967295
  4070f8:	f04f 30ff 	movne.w	r0, #4294967295
  4070fc:	f000 b83c 	b.w	407178 <__aeabi_idiv0>
  407100:	b082      	sub	sp, #8
  407102:	46ec      	mov	ip, sp
  407104:	e92d 5000 	stmdb	sp!, {ip, lr}
  407108:	f000 f81e 	bl	407148 <__gnu_uldivmod_helper>
  40710c:	f8dd e004 	ldr.w	lr, [sp, #4]
  407110:	b002      	add	sp, #8
  407112:	bc0c      	pop	{r2, r3}
  407114:	4770      	bx	lr
  407116:	bf00      	nop

00407118 <__gnu_ldivmod_helper>:
  407118:	e92d 41f0 	stmdb	sp!, {r4, r5, r6, r7, r8, lr}
  40711c:	9c06      	ldr	r4, [sp, #24]
  40711e:	4615      	mov	r5, r2
  407120:	4606      	mov	r6, r0
  407122:	460f      	mov	r7, r1
  407124:	4698      	mov	r8, r3
  407126:	f000 f829 	bl	40717c <__divdi3>
  40712a:	fb05 f301 	mul.w	r3, r5, r1
  40712e:	fb00 3808 	mla	r8, r0, r8, r3
  407132:	fba5 2300 	umull	r2, r3, r5, r0
  407136:	1ab2      	subs	r2, r6, r2
  407138:	4443      	add	r3, r8
  40713a:	eb67 0303 	sbc.w	r3, r7, r3
  40713e:	e9c4 2300 	strd	r2, r3, [r4]
  407142:	e8bd 81f0 	ldmia.w	sp!, {r4, r5, r6, r7, r8, pc}
  407146:	bf00      	nop

00407148 <__gnu_uldivmod_helper>:
  407148:	e92d 41f0 	stmdb	sp!, {r4, r5, r6, r7, r8, lr}
  40714c:	9c06      	ldr	r4, [sp, #24]
  40714e:	4690      	mov	r8, r2
  407150:	4606      	mov	r6, r0
  407152:	460f      	mov	r7, r1
  407154:	461d      	mov	r5, r3
  407156:	f000 f95f 	bl	407418 <__udivdi3>
  40715a:	fb00 f505 	mul.w	r5, r0, r5
  40715e:	fba0 2308 	umull	r2, r3, r0, r8
  407162:	fb08 5501 	mla	r5, r8, r1, r5
  407166:	1ab2      	subs	r2, r6, r2
  407168:	442b      	add	r3, r5
  40716a:	eb67 0303 	sbc.w	r3, r7, r3
  40716e:	e9c4 2300 	strd	r2, r3, [r4]
  407172:	e8bd 81f0 	ldmia.w	sp!, {r4, r5, r6, r7, r8, pc}
  407176:	bf00      	nop

00407178 <__aeabi_idiv0>:
  407178:	4770      	bx	lr
  40717a:	bf00      	nop

0040717c <__divdi3>:
  40717c:	2900      	cmp	r1, #0
  40717e:	e92d 43f0 	stmdb	sp!, {r4, r5, r6, r7, r8, r9, lr}
  407182:	f2c0 80a6 	blt.w	4072d2 <__divdi3+0x156>
  407186:	2600      	movs	r6, #0
  407188:	2b00      	cmp	r3, #0
  40718a:	f2c0 809c 	blt.w	4072c6 <__divdi3+0x14a>
  40718e:	4688      	mov	r8, r1
  407190:	4694      	mov	ip, r2
  407192:	469e      	mov	lr, r3
  407194:	4615      	mov	r5, r2
  407196:	4604      	mov	r4, r0
  407198:	460f      	mov	r7, r1
  40719a:	2b00      	cmp	r3, #0
  40719c:	d13d      	bne.n	40721a <__divdi3+0x9e>
  40719e:	428a      	cmp	r2, r1
  4071a0:	d959      	bls.n	407256 <__divdi3+0xda>
  4071a2:	fab2 f382 	clz	r3, r2
  4071a6:	b13b      	cbz	r3, 4071b8 <__divdi3+0x3c>
  4071a8:	f1c3 0220 	rsb	r2, r3, #32
  4071ac:	409f      	lsls	r7, r3
  4071ae:	fa20 f202 	lsr.w	r2, r0, r2
  4071b2:	409d      	lsls	r5, r3
  4071b4:	4317      	orrs	r7, r2
  4071b6:	409c      	lsls	r4, r3
  4071b8:	0c29      	lsrs	r1, r5, #16
  4071ba:	0c22      	lsrs	r2, r4, #16
  4071bc:	fbb7 fef1 	udiv	lr, r7, r1
  4071c0:	b2a8      	uxth	r0, r5
  4071c2:	fb01 771e 	mls	r7, r1, lr, r7
  4071c6:	ea42 4707 	orr.w	r7, r2, r7, lsl #16
  4071ca:	fb00 f30e 	mul.w	r3, r0, lr
  4071ce:	42bb      	cmp	r3, r7
  4071d0:	d90a      	bls.n	4071e8 <__divdi3+0x6c>
  4071d2:	197f      	adds	r7, r7, r5
  4071d4:	f10e 32ff 	add.w	r2, lr, #4294967295
  4071d8:	f080 8105 	bcs.w	4073e6 <__divdi3+0x26a>
  4071dc:	42bb      	cmp	r3, r7
  4071de:	f240 8102 	bls.w	4073e6 <__divdi3+0x26a>
  4071e2:	f1ae 0e02 	sub.w	lr, lr, #2
  4071e6:	442f      	add	r7, r5
  4071e8:	1aff      	subs	r7, r7, r3
  4071ea:	b2a4      	uxth	r4, r4
  4071ec:	fbb7 f3f1 	udiv	r3, r7, r1
  4071f0:	fb01 7713 	mls	r7, r1, r3, r7
  4071f4:	ea44 4707 	orr.w	r7, r4, r7, lsl #16
  4071f8:	fb00 f003 	mul.w	r0, r0, r3
  4071fc:	42b8      	cmp	r0, r7
  4071fe:	d908      	bls.n	407212 <__divdi3+0x96>
  407200:	197f      	adds	r7, r7, r5
  407202:	f103 32ff 	add.w	r2, r3, #4294967295
  407206:	f080 80f0 	bcs.w	4073ea <__divdi3+0x26e>
  40720a:	42b8      	cmp	r0, r7
  40720c:	f240 80ed 	bls.w	4073ea <__divdi3+0x26e>
  407210:	3b02      	subs	r3, #2
  407212:	ea43 430e 	orr.w	r3, r3, lr, lsl #16
  407216:	2200      	movs	r2, #0
  407218:	e003      	b.n	407222 <__divdi3+0xa6>
  40721a:	428b      	cmp	r3, r1
  40721c:	d90f      	bls.n	40723e <__divdi3+0xc2>
  40721e:	2200      	movs	r2, #0
  407220:	4613      	mov	r3, r2
  407222:	1c34      	adds	r4, r6, #0
  407224:	bf18      	it	ne
  407226:	2401      	movne	r4, #1
  407228:	4260      	negs	r0, r4
  40722a:	f04f 0500 	mov.w	r5, #0
  40722e:	eb65 0145 	sbc.w	r1, r5, r5, lsl #1
  407232:	4058      	eors	r0, r3
  407234:	4051      	eors	r1, r2
  407236:	1900      	adds	r0, r0, r4
  407238:	4169      	adcs	r1, r5
  40723a:	e8bd 83f0 	ldmia.w	sp!, {r4, r5, r6, r7, r8, r9, pc}
  40723e:	fab3 f283 	clz	r2, r3
  407242:	2a00      	cmp	r2, #0
  407244:	f040 8086 	bne.w	407354 <__divdi3+0x1d8>
  407248:	428b      	cmp	r3, r1
  40724a:	d302      	bcc.n	407252 <__divdi3+0xd6>
  40724c:	4584      	cmp	ip, r0
  40724e:	f200 80db 	bhi.w	407408 <__divdi3+0x28c>
  407252:	2301      	movs	r3, #1
  407254:	e7e5      	b.n	407222 <__divdi3+0xa6>
  407256:	b912      	cbnz	r2, 40725e <__divdi3+0xe2>
  407258:	2301      	movs	r3, #1
  40725a:	fbb3 f5f2 	udiv	r5, r3, r2
  40725e:	fab5 f085 	clz	r0, r5
  407262:	2800      	cmp	r0, #0
  407264:	d13b      	bne.n	4072de <__divdi3+0x162>
  407266:	1b78      	subs	r0, r7, r5
  407268:	ea4f 4e15 	mov.w	lr, r5, lsr #16
  40726c:	fa1f fc85 	uxth.w	ip, r5
  407270:	2201      	movs	r2, #1
  407272:	fbb0 f8fe 	udiv	r8, r0, lr
  407276:	0c21      	lsrs	r1, r4, #16
  407278:	fb0e 0718 	mls	r7, lr, r8, r0
  40727c:	ea41 4707 	orr.w	r7, r1, r7, lsl #16
  407280:	fb0c f308 	mul.w	r3, ip, r8
  407284:	42bb      	cmp	r3, r7
  407286:	d907      	bls.n	407298 <__divdi3+0x11c>
  407288:	197f      	adds	r7, r7, r5
  40728a:	f108 31ff 	add.w	r1, r8, #4294967295
  40728e:	d202      	bcs.n	407296 <__divdi3+0x11a>
  407290:	42bb      	cmp	r3, r7
  407292:	f200 80bd 	bhi.w	407410 <__divdi3+0x294>
  407296:	4688      	mov	r8, r1
  407298:	1aff      	subs	r7, r7, r3
  40729a:	b2a4      	uxth	r4, r4
  40729c:	fbb7 f3fe 	udiv	r3, r7, lr
  4072a0:	fb0e 7713 	mls	r7, lr, r3, r7
  4072a4:	ea44 4707 	orr.w	r7, r4, r7, lsl #16
  4072a8:	fb0c fc03 	mul.w	ip, ip, r3
  4072ac:	45bc      	cmp	ip, r7
  4072ae:	d907      	bls.n	4072c0 <__divdi3+0x144>
  4072b0:	197f      	adds	r7, r7, r5
  4072b2:	f103 31ff 	add.w	r1, r3, #4294967295
  4072b6:	d202      	bcs.n	4072be <__divdi3+0x142>
  4072b8:	45bc      	cmp	ip, r7
  4072ba:	f200 80a7 	bhi.w	40740c <__divdi3+0x290>
  4072be:	460b      	mov	r3, r1
  4072c0:	ea43 4308 	orr.w	r3, r3, r8, lsl #16
  4072c4:	e7ad      	b.n	407222 <__divdi3+0xa6>
  4072c6:	4252      	negs	r2, r2
  4072c8:	ea6f 0606 	mvn.w	r6, r6
  4072cc:	eb63 0343 	sbc.w	r3, r3, r3, lsl #1
  4072d0:	e75d      	b.n	40718e <__divdi3+0x12>
  4072d2:	4240      	negs	r0, r0
  4072d4:	eb61 0141 	sbc.w	r1, r1, r1, lsl #1
  4072d8:	f04f 36ff 	mov.w	r6, #4294967295
  4072dc:	e754      	b.n	407188 <__divdi3+0xc>
  4072de:	f1c0 0220 	rsb	r2, r0, #32
  4072e2:	fa24 f102 	lsr.w	r1, r4, r2
  4072e6:	fa07 f300 	lsl.w	r3, r7, r0
  4072ea:	4085      	lsls	r5, r0
  4072ec:	ea4f 4e15 	mov.w	lr, r5, lsr #16
  4072f0:	40d7      	lsrs	r7, r2
  4072f2:	4319      	orrs	r1, r3
  4072f4:	fbb7 f2fe 	udiv	r2, r7, lr
  4072f8:	0c0b      	lsrs	r3, r1, #16
  4072fa:	fb0e 7712 	mls	r7, lr, r2, r7
  4072fe:	fa1f fc85 	uxth.w	ip, r5
  407302:	ea43 4307 	orr.w	r3, r3, r7, lsl #16
  407306:	fb0c f702 	mul.w	r7, ip, r2
  40730a:	429f      	cmp	r7, r3
  40730c:	fa04 f400 	lsl.w	r4, r4, r0
  407310:	d907      	bls.n	407322 <__divdi3+0x1a6>
  407312:	195b      	adds	r3, r3, r5
  407314:	f102 30ff 	add.w	r0, r2, #4294967295
  407318:	d274      	bcs.n	407404 <__divdi3+0x288>
  40731a:	429f      	cmp	r7, r3
  40731c:	d972      	bls.n	407404 <__divdi3+0x288>
  40731e:	3a02      	subs	r2, #2
  407320:	442b      	add	r3, r5
  407322:	1bdf      	subs	r7, r3, r7
  407324:	b289      	uxth	r1, r1
  407326:	fbb7 f8fe 	udiv	r8, r7, lr
  40732a:	fb0e 7318 	mls	r3, lr, r8, r7
  40732e:	ea41 4303 	orr.w	r3, r1, r3, lsl #16
  407332:	fb0c f708 	mul.w	r7, ip, r8
  407336:	429f      	cmp	r7, r3
  407338:	d908      	bls.n	40734c <__divdi3+0x1d0>
  40733a:	195b      	adds	r3, r3, r5
  40733c:	f108 31ff 	add.w	r1, r8, #4294967295
  407340:	d25c      	bcs.n	4073fc <__divdi3+0x280>
  407342:	429f      	cmp	r7, r3
  407344:	d95a      	bls.n	4073fc <__divdi3+0x280>
  407346:	f1a8 0802 	sub.w	r8, r8, #2
  40734a:	442b      	add	r3, r5
  40734c:	1bd8      	subs	r0, r3, r7
  40734e:	ea48 4202 	orr.w	r2, r8, r2, lsl #16
  407352:	e78e      	b.n	407272 <__divdi3+0xf6>
  407354:	f1c2 0320 	rsb	r3, r2, #32
  407358:	fa2c f103 	lsr.w	r1, ip, r3
  40735c:	fa0e fe02 	lsl.w	lr, lr, r2
  407360:	fa20 f703 	lsr.w	r7, r0, r3
  407364:	ea41 0e0e 	orr.w	lr, r1, lr
  407368:	fa08 f002 	lsl.w	r0, r8, r2
  40736c:	fa28 f103 	lsr.w	r1, r8, r3
  407370:	ea4f 451e 	mov.w	r5, lr, lsr #16
  407374:	4338      	orrs	r0, r7
  407376:	fbb1 f8f5 	udiv	r8, r1, r5
  40737a:	0c03      	lsrs	r3, r0, #16
  40737c:	fb05 1118 	mls	r1, r5, r8, r1
  407380:	fa1f f78e 	uxth.w	r7, lr
  407384:	ea43 4101 	orr.w	r1, r3, r1, lsl #16
  407388:	fb07 f308 	mul.w	r3, r7, r8
  40738c:	428b      	cmp	r3, r1
  40738e:	fa0c fc02 	lsl.w	ip, ip, r2
  407392:	d909      	bls.n	4073a8 <__divdi3+0x22c>
  407394:	eb11 010e 	adds.w	r1, r1, lr
  407398:	f108 39ff 	add.w	r9, r8, #4294967295
  40739c:	d230      	bcs.n	407400 <__divdi3+0x284>
  40739e:	428b      	cmp	r3, r1
  4073a0:	d92e      	bls.n	407400 <__divdi3+0x284>
  4073a2:	f1a8 0802 	sub.w	r8, r8, #2
  4073a6:	4471      	add	r1, lr
  4073a8:	1ac9      	subs	r1, r1, r3
  4073aa:	b280      	uxth	r0, r0
  4073ac:	fbb1 f3f5 	udiv	r3, r1, r5
  4073b0:	fb05 1113 	mls	r1, r5, r3, r1
  4073b4:	ea40 4101 	orr.w	r1, r0, r1, lsl #16
  4073b8:	fb07 f703 	mul.w	r7, r7, r3
  4073bc:	428f      	cmp	r7, r1
  4073be:	d908      	bls.n	4073d2 <__divdi3+0x256>
  4073c0:	eb11 010e 	adds.w	r1, r1, lr
  4073c4:	f103 30ff 	add.w	r0, r3, #4294967295
  4073c8:	d216      	bcs.n	4073f8 <__divdi3+0x27c>
  4073ca:	428f      	cmp	r7, r1
  4073cc:	d914      	bls.n	4073f8 <__divdi3+0x27c>
  4073ce:	3b02      	subs	r3, #2
  4073d0:	4471      	add	r1, lr
  4073d2:	ea43 4308 	orr.w	r3, r3, r8, lsl #16
  4073d6:	1bc9      	subs	r1, r1, r7
  4073d8:	fba3 890c 	umull	r8, r9, r3, ip
  4073dc:	4549      	cmp	r1, r9
  4073de:	d309      	bcc.n	4073f4 <__divdi3+0x278>
  4073e0:	d005      	beq.n	4073ee <__divdi3+0x272>
  4073e2:	2200      	movs	r2, #0
  4073e4:	e71d      	b.n	407222 <__divdi3+0xa6>
  4073e6:	4696      	mov	lr, r2
  4073e8:	e6fe      	b.n	4071e8 <__divdi3+0x6c>
  4073ea:	4613      	mov	r3, r2
  4073ec:	e711      	b.n	407212 <__divdi3+0x96>
  4073ee:	4094      	lsls	r4, r2
  4073f0:	4544      	cmp	r4, r8
  4073f2:	d2f6      	bcs.n	4073e2 <__divdi3+0x266>
  4073f4:	3b01      	subs	r3, #1
  4073f6:	e7f4      	b.n	4073e2 <__divdi3+0x266>
  4073f8:	4603      	mov	r3, r0
  4073fa:	e7ea      	b.n	4073d2 <__divdi3+0x256>
  4073fc:	4688      	mov	r8, r1
  4073fe:	e7a5      	b.n	40734c <__divdi3+0x1d0>
  407400:	46c8      	mov	r8, r9
  407402:	e7d1      	b.n	4073a8 <__divdi3+0x22c>
  407404:	4602      	mov	r2, r0
  407406:	e78c      	b.n	407322 <__divdi3+0x1a6>
  407408:	4613      	mov	r3, r2
  40740a:	e70a      	b.n	407222 <__divdi3+0xa6>
  40740c:	3b02      	subs	r3, #2
  40740e:	e757      	b.n	4072c0 <__divdi3+0x144>
  407410:	f1a8 0802 	sub.w	r8, r8, #2
  407414:	442f      	add	r7, r5
  407416:	e73f      	b.n	407298 <__divdi3+0x11c>

00407418 <__udivdi3>:
  407418:	e92d 41f0 	stmdb	sp!, {r4, r5, r6, r7, r8, lr}
  40741c:	2b00      	cmp	r3, #0
  40741e:	d144      	bne.n	4074aa <__udivdi3+0x92>
  407420:	428a      	cmp	r2, r1
  407422:	4615      	mov	r5, r2
  407424:	4604      	mov	r4, r0
  407426:	d94f      	bls.n	4074c8 <__udivdi3+0xb0>
  407428:	fab2 f782 	clz	r7, r2
  40742c:	460e      	mov	r6, r1
  40742e:	b14f      	cbz	r7, 407444 <__udivdi3+0x2c>
  407430:	f1c7 0320 	rsb	r3, r7, #32
  407434:	40b9      	lsls	r1, r7
  407436:	fa20 f603 	lsr.w	r6, r0, r3
  40743a:	fa02 f507 	lsl.w	r5, r2, r7
  40743e:	430e      	orrs	r6, r1
  407440:	fa00 f407 	lsl.w	r4, r0, r7
  407444:	ea4f 4e15 	mov.w	lr, r5, lsr #16
  407448:	0c23      	lsrs	r3, r4, #16
  40744a:	fbb6 f0fe 	udiv	r0, r6, lr
  40744e:	b2af      	uxth	r7, r5
  407450:	fb0e 6110 	mls	r1, lr, r0, r6
  407454:	ea43 4301 	orr.w	r3, r3, r1, lsl #16
  407458:	fb07 f100 	mul.w	r1, r7, r0
  40745c:	4299      	cmp	r1, r3
  40745e:	d909      	bls.n	407474 <__udivdi3+0x5c>
  407460:	195b      	adds	r3, r3, r5
  407462:	f100 32ff 	add.w	r2, r0, #4294967295
  407466:	f080 80ec 	bcs.w	407642 <__udivdi3+0x22a>
  40746a:	4299      	cmp	r1, r3
  40746c:	f240 80e9 	bls.w	407642 <__udivdi3+0x22a>
  407470:	3802      	subs	r0, #2
  407472:	442b      	add	r3, r5
  407474:	1a5a      	subs	r2, r3, r1
  407476:	b2a4      	uxth	r4, r4
  407478:	fbb2 f3fe 	udiv	r3, r2, lr
  40747c:	fb0e 2213 	mls	r2, lr, r3, r2
  407480:	ea44 4202 	orr.w	r2, r4, r2, lsl #16
  407484:	fb07 f703 	mul.w	r7, r7, r3
  407488:	4297      	cmp	r7, r2
  40748a:	d908      	bls.n	40749e <__udivdi3+0x86>
  40748c:	1952      	adds	r2, r2, r5
  40748e:	f103 31ff 	add.w	r1, r3, #4294967295
  407492:	f080 80d8 	bcs.w	407646 <__udivdi3+0x22e>
  407496:	4297      	cmp	r7, r2
  407498:	f240 80d5 	bls.w	407646 <__udivdi3+0x22e>
  40749c:	3b02      	subs	r3, #2
  40749e:	ea43 4000 	orr.w	r0, r3, r0, lsl #16
  4074a2:	2600      	movs	r6, #0
  4074a4:	4631      	mov	r1, r6
  4074a6:	e8bd 81f0 	ldmia.w	sp!, {r4, r5, r6, r7, r8, pc}
  4074aa:	428b      	cmp	r3, r1
  4074ac:	d847      	bhi.n	40753e <__udivdi3+0x126>
  4074ae:	fab3 f683 	clz	r6, r3
  4074b2:	2e00      	cmp	r6, #0
  4074b4:	d148      	bne.n	407548 <__udivdi3+0x130>
  4074b6:	428b      	cmp	r3, r1
  4074b8:	d302      	bcc.n	4074c0 <__udivdi3+0xa8>
  4074ba:	4282      	cmp	r2, r0
  4074bc:	f200 80cd 	bhi.w	40765a <__udivdi3+0x242>
  4074c0:	2001      	movs	r0, #1
  4074c2:	4631      	mov	r1, r6
  4074c4:	e8bd 81f0 	ldmia.w	sp!, {r4, r5, r6, r7, r8, pc}
  4074c8:	b912      	cbnz	r2, 4074d0 <__udivdi3+0xb8>
  4074ca:	2501      	movs	r5, #1
  4074cc:	fbb5 f5f2 	udiv	r5, r5, r2
  4074d0:	fab5 f885 	clz	r8, r5
  4074d4:	f1b8 0f00 	cmp.w	r8, #0
  4074d8:	d177      	bne.n	4075ca <__udivdi3+0x1b2>
  4074da:	1b4a      	subs	r2, r1, r5
  4074dc:	ea4f 4e15 	mov.w	lr, r5, lsr #16
  4074e0:	b2af      	uxth	r7, r5
  4074e2:	2601      	movs	r6, #1
  4074e4:	fbb2 f0fe 	udiv	r0, r2, lr
  4074e8:	0c23      	lsrs	r3, r4, #16
  4074ea:	fb0e 2110 	mls	r1, lr, r0, r2
  4074ee:	ea43 4101 	orr.w	r1, r3, r1, lsl #16
  4074f2:	fb07 f300 	mul.w	r3, r7, r0
  4074f6:	428b      	cmp	r3, r1
  4074f8:	d907      	bls.n	40750a <__udivdi3+0xf2>
  4074fa:	1949      	adds	r1, r1, r5
  4074fc:	f100 32ff 	add.w	r2, r0, #4294967295
  407500:	d202      	bcs.n	407508 <__udivdi3+0xf0>
  407502:	428b      	cmp	r3, r1
  407504:	f200 80ba 	bhi.w	40767c <__udivdi3+0x264>
  407508:	4610      	mov	r0, r2
  40750a:	1ac9      	subs	r1, r1, r3
  40750c:	b2a4      	uxth	r4, r4
  40750e:	fbb1 f3fe 	udiv	r3, r1, lr
  407512:	fb0e 1113 	mls	r1, lr, r3, r1
  407516:	ea44 4401 	orr.w	r4, r4, r1, lsl #16
  40751a:	fb07 f703 	mul.w	r7, r7, r3
  40751e:	42a7      	cmp	r7, r4
  407520:	d908      	bls.n	407534 <__udivdi3+0x11c>
  407522:	1964      	adds	r4, r4, r5
  407524:	f103 32ff 	add.w	r2, r3, #4294967295
  407528:	f080 808f 	bcs.w	40764a <__udivdi3+0x232>
  40752c:	42a7      	cmp	r7, r4
  40752e:	f240 808c 	bls.w	40764a <__udivdi3+0x232>
  407532:	3b02      	subs	r3, #2
  407534:	ea43 4000 	orr.w	r0, r3, r0, lsl #16
  407538:	4631      	mov	r1, r6
  40753a:	e8bd 81f0 	ldmia.w	sp!, {r4, r5, r6, r7, r8, pc}
  40753e:	2600      	movs	r6, #0
  407540:	4630      	mov	r0, r6
  407542:	4631      	mov	r1, r6
  407544:	e8bd 81f0 	ldmia.w	sp!, {r4, r5, r6, r7, r8, pc}
  407548:	f1c6 0420 	rsb	r4, r6, #32
  40754c:	fa22 f504 	lsr.w	r5, r2, r4
  407550:	40b3      	lsls	r3, r6
  407552:	432b      	orrs	r3, r5
  407554:	fa20 fc04 	lsr.w	ip, r0, r4
  407558:	fa01 f706 	lsl.w	r7, r1, r6
  40755c:	fa21 f504 	lsr.w	r5, r1, r4
  407560:	ea4f 4e13 	mov.w	lr, r3, lsr #16
  407564:	ea4c 0707 	orr.w	r7, ip, r7
  407568:	fbb5 f8fe 	udiv	r8, r5, lr
  40756c:	0c39      	lsrs	r1, r7, #16
  40756e:	fb0e 5518 	mls	r5, lr, r8, r5
  407572:	fa1f fc83 	uxth.w	ip, r3
  407576:	ea41 4505 	orr.w	r5, r1, r5, lsl #16
  40757a:	fb0c f108 	mul.w	r1, ip, r8
  40757e:	42a9      	cmp	r1, r5
  407580:	fa02 f206 	lsl.w	r2, r2, r6
  407584:	d904      	bls.n	407590 <__udivdi3+0x178>
  407586:	18ed      	adds	r5, r5, r3
  407588:	f108 34ff 	add.w	r4, r8, #4294967295
  40758c:	d367      	bcc.n	40765e <__udivdi3+0x246>
  40758e:	46a0      	mov	r8, r4
  407590:	1a6d      	subs	r5, r5, r1
  407592:	b2bf      	uxth	r7, r7
  407594:	fbb5 f4fe 	udiv	r4, r5, lr
  407598:	fb0e 5514 	mls	r5, lr, r4, r5
  40759c:	ea47 4105 	orr.w	r1, r7, r5, lsl #16
  4075a0:	fb0c fc04 	mul.w	ip, ip, r4
  4075a4:	458c      	cmp	ip, r1
  4075a6:	d904      	bls.n	4075b2 <__udivdi3+0x19a>
  4075a8:	18c9      	adds	r1, r1, r3
  4075aa:	f104 35ff 	add.w	r5, r4, #4294967295
  4075ae:	d35c      	bcc.n	40766a <__udivdi3+0x252>
  4075b0:	462c      	mov	r4, r5
  4075b2:	ea44 4408 	orr.w	r4, r4, r8, lsl #16
  4075b6:	ebcc 0101 	rsb	r1, ip, r1
  4075ba:	fba4 2302 	umull	r2, r3, r4, r2
  4075be:	4299      	cmp	r1, r3
  4075c0:	d348      	bcc.n	407654 <__udivdi3+0x23c>
  4075c2:	d044      	beq.n	40764e <__udivdi3+0x236>
  4075c4:	4620      	mov	r0, r4
  4075c6:	2600      	movs	r6, #0
  4075c8:	e76c      	b.n	4074a4 <__udivdi3+0x8c>
  4075ca:	f1c8 0420 	rsb	r4, r8, #32
  4075ce:	fa01 f308 	lsl.w	r3, r1, r8
  4075d2:	fa05 f508 	lsl.w	r5, r5, r8
  4075d6:	fa20 f704 	lsr.w	r7, r0, r4
  4075da:	40e1      	lsrs	r1, r4
  4075dc:	ea4f 4e15 	mov.w	lr, r5, lsr #16
  4075e0:	431f      	orrs	r7, r3
  4075e2:	fbb1 f6fe 	udiv	r6, r1, lr
  4075e6:	0c3a      	lsrs	r2, r7, #16
  4075e8:	fb0e 1116 	mls	r1, lr, r6, r1
  4075ec:	fa1f fc85 	uxth.w	ip, r5
  4075f0:	ea42 4301 	orr.w	r3, r2, r1, lsl #16
  4075f4:	fb0c f206 	mul.w	r2, ip, r6
  4075f8:	429a      	cmp	r2, r3
  4075fa:	fa00 f408 	lsl.w	r4, r0, r8
  4075fe:	d907      	bls.n	407610 <__udivdi3+0x1f8>
  407600:	195b      	adds	r3, r3, r5
  407602:	f106 31ff 	add.w	r1, r6, #4294967295
  407606:	d237      	bcs.n	407678 <__udivdi3+0x260>
  407608:	429a      	cmp	r2, r3
  40760a:	d935      	bls.n	407678 <__udivdi3+0x260>
  40760c:	3e02      	subs	r6, #2
  40760e:	442b      	add	r3, r5
  407610:	1a9b      	subs	r3, r3, r2
  407612:	b2bf      	uxth	r7, r7
  407614:	fbb3 f0fe 	udiv	r0, r3, lr
  407618:	fb0e 3310 	mls	r3, lr, r0, r3
  40761c:	ea47 4303 	orr.w	r3, r7, r3, lsl #16
  407620:	fb0c f100 	mul.w	r1, ip, r0
  407624:	4299      	cmp	r1, r3
  407626:	d907      	bls.n	407638 <__udivdi3+0x220>
  407628:	195b      	adds	r3, r3, r5
  40762a:	f100 32ff 	add.w	r2, r0, #4294967295
  40762e:	d221      	bcs.n	407674 <__udivdi3+0x25c>
  407630:	4299      	cmp	r1, r3
  407632:	d91f      	bls.n	407674 <__udivdi3+0x25c>
  407634:	3802      	subs	r0, #2
  407636:	442b      	add	r3, r5
  407638:	1a5a      	subs	r2, r3, r1
  40763a:	ea40 4606 	orr.w	r6, r0, r6, lsl #16
  40763e:	4667      	mov	r7, ip
  407640:	e750      	b.n	4074e4 <__udivdi3+0xcc>
  407642:	4610      	mov	r0, r2
  407644:	e716      	b.n	407474 <__udivdi3+0x5c>
  407646:	460b      	mov	r3, r1
  407648:	e729      	b.n	40749e <__udivdi3+0x86>
  40764a:	4613      	mov	r3, r2
  40764c:	e772      	b.n	407534 <__udivdi3+0x11c>
  40764e:	40b0      	lsls	r0, r6
  407650:	4290      	cmp	r0, r2
  407652:	d2b7      	bcs.n	4075c4 <__udivdi3+0x1ac>
  407654:	1e60      	subs	r0, r4, #1
  407656:	2600      	movs	r6, #0
  407658:	e724      	b.n	4074a4 <__udivdi3+0x8c>
  40765a:	4630      	mov	r0, r6
  40765c:	e722      	b.n	4074a4 <__udivdi3+0x8c>
  40765e:	42a9      	cmp	r1, r5
  407660:	d995      	bls.n	40758e <__udivdi3+0x176>
  407662:	f1a8 0802 	sub.w	r8, r8, #2
  407666:	441d      	add	r5, r3
  407668:	e792      	b.n	407590 <__udivdi3+0x178>
  40766a:	458c      	cmp	ip, r1
  40766c:	d9a0      	bls.n	4075b0 <__udivdi3+0x198>
  40766e:	3c02      	subs	r4, #2
  407670:	4419      	add	r1, r3
  407672:	e79e      	b.n	4075b2 <__udivdi3+0x19a>
  407674:	4610      	mov	r0, r2
  407676:	e7df      	b.n	407638 <__udivdi3+0x220>
  407678:	460e      	mov	r6, r1
  40767a:	e7c9      	b.n	407610 <__udivdi3+0x1f8>
  40767c:	3802      	subs	r0, #2
  40767e:	4429      	add	r1, r5
  407680:	e743      	b.n	40750a <__udivdi3+0xf2>
  407682:	bf00      	nop

00407684 <p_uc_charset10x14>:
	...
  4076a0:	ccff ccff 0000 0000 0000 0000 0000 0000     ................
  4076b0:	00f0 00f0 0000 0000 00f0 00f0 0000 0000     ................
  4076c0:	c00c c00c fcff fcff c00c c00c fcff fcff     ................
  4076d0:	c00c c00c 600c 701e 303f 3033 fcff fcff     .....`.p?030....
  4076e0:	3033 f033 e039 c018 0060 0cf0 3cf0 f060     303.9...`....<`.
  4076f0:	c003 000f 183c 3cf0 3cc0 1800 f03c f87f     ....<..<.<..<...
  407700:	1cc3 8cc7 cccf ecdc 7878 3030 fc00 cc00     ........xx00....
  407710:	0000 0000 0000 0044 00ec 00f8 0070 0000     ......D.....p...
	...
  407728:	c00f f03f 7878 1860 0cc0 0cc0 0000 0000     ..?.xx`.........
  407738:	0000 0000 0cc0 0cc0 1860 7878 f03f c00f     ........`.xx?...
  407748:	0000 0000 600c e00e c007 8003 f83f f83f     .....`......?.?.
  407758:	8003 c007 e00e 600c 0003 0003 0003 0003     .......`........
  407768:	f03f f03f 0003 0003 0003 0003 4400 ec00     ?.?..........D..
  407778:	f800 7000 0000 0000 0000 0000 0000 0000     ...p............
  407788:	0003 0003 0003 0003 0003 0003 0003 0003     ................
  407798:	0003 0003 1800 3c00 3c00 1800 0000 0000     .......<.<......
	...
  4077b0:	0000 0c00 3c00 f000 c003 000f 003c 00f0     .....<......<...
  4077c0:	00c0 0000 f03f f87f fce0 ccc1 8cc3 0cc7     ....?...........
  4077d0:	0cce 1cfc f87f f03f 0000 0000 0c30 0c70     ......?.....0.p.
  4077e0:	fcff fcff 0c00 0c00 0000 0000 0c30 1c70     ............0.p.
  4077f0:	3ce0 7cc0 ecc0 ccc1 8cc3 0ce7 0c7e 0c3c     .<.|........~.<.
  407800:	3030 3870 1ce0 0cc0 0cc0 0cc3 0cc3 1ce3     00p8............
  407810:	f87f f03c c003 c007 c00e c01c c038 c070     ..<.........8.p.
  407820:	fcff fcff c000 c000 30fc 38fc 1ccc 0ccc     .........0.8....
  407830:	0ccc 0ccc 0ccc 1cce f8c7 f0c3 f03f f87f     ............?...
  407840:	1ce3 0cc3 0cc3 0cc3 0cc3 9ce3 f871 f030     ............q.0.
  407850:	00c0 00c0 00c0 00c0 fcc3 fcc7 00ce 00dc     ................
  407860:	00f8 00f0 f03c f87f 9ce7 0cc3 0cc3 0cc3     ....<...........
  407870:	0cc3 9ce7 f87f f03c 003c 007e 0ce7 0cc3     ......<.<.~.....
  407880:	1cc3 38c3 70c3 e0e7 c07f 803f 0000 0000     ...8.p....?.....
  407890:	0000 6018 f03c f03c 6018 0000 0000 0000     ...`<.<..`......
  4078a0:	0000 0000 0000 4418 ec3c f83c 7018 0000     .......D<.<..p..
  4078b0:	0000 0000 0000 0003 8007 c00f e01c 7038     ..............8p
  4078c0:	3870 1ce0 0cc0 0000 c00c c00c c00c c00c     p8..............
  4078d0:	c00c c00c c00c c00c c00c c00c 0000 0cc0     ................
  4078e0:	1ce0 3870 7038 e01c c00f 8007 0003 0000     ..p88p..........
  4078f0:	0030 0070 00e0 00c0 ecc1 ecc3 00c3 00e6     0.p.............
  407900:	007e 003c f030 f871 9ce3 0cc3 fcc3 fcc3     ~.<.0.q.........
  407910:	0cc0 1ce0 f87f f03f fc3f fc7f c0e0 c0c0     ......?.?.......
  407920:	c0c0 c0c0 c0c0 c0e0 fc7f fc3f fcff fcff     ..........?.....
  407930:	0cc3 0cc3 0cc3 0cc3 0cc3 9ce7 f87f f03c     ..............<.
  407940:	f03f f87f 1ce0 0cc0 0cc0 0cc0 0cc0 1ce0     ?...............
  407950:	3870 3030 fcff fcff 0cc0 0cc0 0cc0 0cc0     p800............
  407960:	0cc0 1ce0 f87f f03f fcff fcff 0cc3 0cc3     ......?.........
  407970:	0cc3 0cc3 0cc3 0cc3 0cc0 0cc0 fcff fcff     ................
  407980:	00c3 00c3 00c3 00c3 00c3 00c3 00c0 00c0     ................
  407990:	f03f f87f 1ce0 0cc0 0cc0 0cc3 0cc3 1ce3     ?...............
  4079a0:	f873 f033 fcff fcff 0003 0003 0003 0003     s.3.............
  4079b0:	0003 0003 fcff fcff 0000 0000 0cc0 0cc0     ................
  4079c0:	fcff fcff 0cc0 0cc0 0000 0000 3000 3800     .............0.8
  4079d0:	1cc0 0cc0 0cc0 1cc0 f8ff f0ff 00c0 00c0     ................
  4079e0:	fcff fcff 8007 8007 c00f e01c 7038 3870     ............8pp8
  4079f0:	1ce0 0cc0 fcff fcff 0c00 0c00 0c00 0c00     ................
  407a00:	0c00 0c00 0c00 0c00 fcff fcff 0070 0038     ............p.8.
  407a10:	001f 001f 0038 0070 fcff fcff fcff fcff     ....8.p.........
  407a20:	001c 000e 0007 8003 c001 e000 fcff fcff     ................
  407a30:	f03f f87f 1ce0 0cc0 0cc0 0cc0 0cc0 1ce0     ?...............
  407a40:	f87f f03f fcff fcff 00c3 00c3 00c3 00c3     ..?.............
  407a50:	00c3 00e7 007e 003c f03f f87f 1ce0 0cc0     ....~.<.?.......
  407a60:	ccc0 ecc0 7cc0 38e0 fc7f ec3f fcff fcff     .....|.8..?.....
  407a70:	00c3 80c3 80c3 c0c3 c0c3 70e7 3c7e 1c3c     ...........p~<<.
  407a80:	183c 1c7e 0ce7 0cc3 0cc3 0cc3 0cc3 9cc3     <.~.............
  407a90:	f8e1 f060 00c0 00c0 00c0 00c0 fcff fcff     ..`.............
  407aa0:	00c0 00c0 00c0 00c0 f0ff f8ff 1c00 0c00     ................
  407ab0:	0c00 0c00 0c00 1c00 f8ff f0ff c0ff e0ff     ................
  407ac0:	7000 3800 1c00 1c00 3800 7000 e0ff c0ff     .p.8.....8.p....
  407ad0:	f0ff f8ff 1c00 3c00 f800 f800 3c00 1c00     .......<.....<..
  407ae0:	f8ff f0ff 3cf0 7cf8 e01c c00f 8007 8007     .....<.|........
  407af0:	c00f e01c 7cf8 3cf0 00fc 00fe 0007 8003     .....|.<........
  407b00:	fc01 fc01 8003 0007 00fe 00fc 3cc0 7cc0     .............<.|
  407b10:	ecc0 ccc1 8cc3 0cc7 0cce 0cdc 0cf8 0cf0     ................
  407b20:	0000 0000 fcff fcff 0cc0 0cc0 0cc0 0000     ................
  407b30:	0000 0000 0030 0030 000c 000c 0003 0003     ....0.0.........
  407b40:	c000 c000 3000 3000 0000 0000 0cc0 0cc0     .....0.0........
  407b50:	0cc0 fcff fcff 0000 0000 0000 000c 001c     ................
  407b60:	0038 0070 00e0 00e0 0070 0038 001c 000c     8.p.....p.8.....
  407b70:	0c00 0c00 0c00 0c00 0c00 0c00 0c00 0c00     ................
  407b80:	0c00 0c00 0000 0000 00c0 00e0 0070 0038     ............p.8.
  407b90:	0018 0000 0000 0000 3000 7806 fc0e cc0c     .........0.x....
  407ba0:	cc0c cc0c cc0c cc0e fc07 f803 fcff fcff     ................
  407bb0:	0c03 0c03 0c03 0c03 0c03 9c03 f801 f000     ................
  407bc0:	f003 f807 1c0e 0c0c 0c0c 0c0c 0c0c 1c0e     ................
  407bd0:	3807 3003 f000 f801 9c03 0c03 0c03 0c03     .8.0............
  407be0:	0c03 0c03 fcff fcff f003 f807 dc0e cc0c     ................
  407bf0:	cc0c cc0c cc0c dc0e d807 9003 0000 0003     ................
  407c00:	fc3f fc7f 00e3 00e3 0070 0030 0000 0000     ?.......p.0.....
  407c10:	1803 9c07 cc0f cc0c cc0c cc0c cc0c dc0c     ................
  407c20:	f80f f007 fcff fcff 0003 0003 0003 0003     ................
  407c30:	8003 fc01 fc00 0000 0000 0000 0000 0000     ................
  407c40:	fc1b fc1b 0000 0000 0000 0000 0000 3000     ...............0
  407c50:	3800 1c00 0c00 0c00 1c00 f8cf f0cf 0000     .8..............
  407c60:	0000 fcff fcff e000 e001 f003 3807 1c0e     .............8..
  407c70:	0c0c 0000 0000 0000 0cc0 0cc0 fcff fcff     ................
  407c80:	0c00 0c00 0000 0000 fc0f fc0f 000e 0007     ................
  407c90:	c003 c003 0007 000e fc0f fc0f fc0f fc0f     ................
  407ca0:	0003 0007 000e 000c 000c 000e fc07 fc03     ................
  407cb0:	f003 f807 1c0e 0c0c 0c0c 0c0c 0c0c 1c0e     ................
  407cc0:	f807 f003 fc0f fc0f c00c c00c c00c c00c     ................
  407cd0:	c00c c00f 8007 0003 0003 8007 c00f c00c     ................
  407ce0:	c00c c00c c00c c00c fc0f fc0f fc0f fc0f     ................
  407cf0:	8003 0007 000e 000c 000c 000e 0007 0003     ................
  407d00:	1803 9c07 cc0f cc0c cc0c cc0c cc0c fc0c     ................
  407d10:	780e 3006 0000 000c 000c f0ff f8ff 1c0c     .x.0............
  407d20:	1c0c 380c 300c 0000 f00f f80f 1c00 0c00     ...8.0..........
  407d30:	0c00 0c00 0c00 1c00 f80f f00f c00f e00f     ................
  407d40:	7000 3800 1c00 1c00 3800 7000 e00f c00f     .p.8.....8.p....
  407d50:	f00f f80f 1c00 1c00 f800 f800 1c00 1c00     ................
  407d60:	f80f f00f 0c0c 1c0e 3807 f003 e001 e001     .........8......
  407d70:	f003 3807 1c0e 0c0c 000c 000e 0c07 9c03     ...8............
  407d80:	f801 f001 8003 0007 000e 000c 0c0c 1c0c     ................
  407d90:	3c0c 7c0c ec0c cc0d 8c0f 0c0f 0c0e 0c0c     .<.|............
  407da0:	0000 0003 8007 f03f f87c 1ce0 0cc0 0cc0     ......?.|.......
  407db0:	0cc0 0000 0c03 0c03 fc3f fc7f 0ce3 0cc3     ........?.......
  407dc0:	0cc0 0ce0 0c70 0c30 0000 0cc0 0cc0 0cc0     ....p.0.........
  407dd0:	1ce0 f87c f03f 8007 0003 0000 00c0 00c0     ..|.?...........
  407de0:	00c0 00c0 00c0 00c0 00c0 00c0 00c0 00c0     ................
  407df0:	fcff fcff fcff fcff fcff fcff fcff fcff     ................
  407e00:	fcff fcff 6552 6973 7473 6e65 6963 3a61     ....Resistencia:
  407e10:	2520 0064 3431 2d20 4120 4344 0000 0000      %d.14 - ADC....

00407e20 <npio2_hw>:
  407e20:	21fb 3ff9 21fb 4009 d97c 4012 21fb 4019     .!.?.!.@|..@.!.@
  407e30:	6a7a 401f d97c 4022 fdbb 4025 21fb 4029     zj.@|."@..%@.!)@
  407e40:	463a 402c 6a7a 402f 475c 4031 d97c 4032     :F,@zj/@\G1@|.2@
  407e50:	6b9c 4034 fdbb 4035 8fdb 4037 21fb 4039     .k4@..5@..7@.!9@
  407e60:	b41b 403a 463a 403c d85a 403d 6a7a 403f     ..:@:F<@Z.=@zj?@
  407e70:	7e4c 4040 475c 4041 106c 4042 d97c 4042     L~@@\GA@l.B@|.B@
  407e80:	a28c 4043 6b9c 4044 34ac 4045 fdbb 4045     ..C@.kD@.4E@..E@
  407e90:	c6cb 4046 8fdb 4047 58eb 4048 21fb 4049     ..F@..G@.XH@.!I@

00407ea0 <two_over_pi>:
  407ea0:	f983 00a2 4e44 006e 29fc 0015 57d1 0027     ....DNn..)...W'.
  407eb0:	34dd 00f5 db62 00c0 993c 0095 9041 0043     .4..b...<...A.C.
  407ec0:	5163 00fe debb 00ab 61b7 00c5 6e3a 0024     cQ.......a..:n$.
  407ed0:	4dd2 0042 0649 00e0 ea09 002e 921c 00d1     .MB.I...........
  407ee0:	1deb 00fe b129 001c 3ee8 00a7 35f5 0082     ....)....>...5..
  407ef0:	bb44 002e e99c 0084 26b4 0070 7e41 005f     D........&p.A~_.
  407f00:	91d6 0039 8353 0039 f49c 0039 5f8b 0084     ..9.S.9...9.._..
  407f10:	f928 00bd 1ff8 003b ffde 0097 980f 0005     (.....;.........
  407f20:	2f11 00ef 5a0a 008b 1f6d 006d 7ecf 0036     ./...Z..m.m..~6.
  407f30:	cb09 0027 4f46 00b7 669e 003f ea2d 005f     ..'.FO...f?.-._.
  407f40:	27ba 0075 ebe5 00c7 7b3d 00f1 39f7 0007     .'u.....={...9..
  407f50:	5292 008a 6bfb 00ea b11f 005f 5d08 008d     .R...k...._..]..
  407f60:	0330 0056 fc7b 0046 abf0 006b bc20 00cf     0.V.{.F...k. ...
  407f70:	f436 009a a9e3 001d 615e 0091 1b08 00e6     6.......^a......
  407f80:	9985 0065 14a0 005f 408d 0068 d880 00ff     ..e..._..@h.....
  407f90:	7327 004d 0606 0031 56ca 0015 a8c9 0073     'sM...1..V....s.
  407fa0:	e27b 0060 8c6b 00c0                         {.`.k...

00407fa8 <init_jk>:
  407fa8:	0002 0000 0003 0000 0004 0000 0006 0000     ................

00407fb8 <PIo2>:
  407fb8:	0000 4000 21fb 3ff9 0000 0000 442d 3e74     ...@.!.?....-Dt>
  407fc8:	0000 8000 4698 3cf8 0000 6000 cc51 3b78     .....F.<...`Q.x;
  407fd8:	0000 8000 1b83 39f0 0000 4000 2520 387a     .......9...@ %z8
  407fe8:	0000 8000 8222 36e3 0000 0000 f31d 3569     ...."..6......i5
  407ff8:	0043 0000                                   C...

00407ffc <_global_impure_ptr>:
  407ffc:	0010 2000                                   ... 

00408000 <zeroes.6911>:
  408000:	3030 3030 3030 3030 3030 3030 3030 3030     0000000000000000

00408010 <blanks.6910>:
  408010:	2020 2020 2020 2020 2020 2020 2020 2020                     
  408020:	4e49 0046 6e69 0066 414e 004e 616e 006e     INF.inf.NAN.nan.
  408030:	3130 3332 3534 3736 3938 4241 4443 4645     0123456789ABCDEF
  408040:	0000 0000 3130 3332 3534 3736 3938 6261     ....0123456789ab
  408050:	6463 6665 0000 0000 6e28 6c75 296c 0000     cdef....(null)..
  408060:	0030 0000 6e49 6966 696e 7974 0000 0000     0...Infinity....
  408070:	614e 004e 4f50 4953 0058 0000 002e 0000     NaN.POSIX.......

00408080 <__mprec_tens>:
  408080:	0000 0000 0000 3ff0 0000 0000 0000 4024     .......?......$@
  408090:	0000 0000 0000 4059 0000 0000 4000 408f     ......Y@.....@.@
  4080a0:	0000 0000 8800 40c3 0000 0000 6a00 40f8     .......@.....j.@
  4080b0:	0000 0000 8480 412e 0000 0000 12d0 4163     .......A......cA
  4080c0:	0000 0000 d784 4197 0000 0000 cd65 41cd     .......A....e..A
  4080d0:	0000 2000 a05f 4202 0000 e800 4876 4237     ... _..B....vH7B
  4080e0:	0000 a200 1a94 426d 0000 e540 309c 42a2     ......mB..@..0.B
  4080f0:	0000 1e90 bcc4 42d6 0000 2634 6bf5 430c     .......B..4&.k.C
  408100:	8000 37e0 c379 4341 a000 85d8 3457 4376     ...7y.AC....W4vC
  408110:	c800 674e c16d 43ab 3d00 6091 58e4 43e1     ..Ngm..C.=.`.X.C
  408120:	8c40 78b5 af1d 4415 ef50 d6e2 1ae4 444b     @..x...DP.....KD
  408130:	d592 064d f0cf 4480 4af6 c7e1 2d02 44b5     ..M....D.J...-.D
  408140:	9db4 79d9 7843 44ea                         ...yCx.D

00408148 <p05.5302>:
  408148:	0005 0000 0019 0000 007d 0000 0000 0000     ........}.......

00408158 <__mprec_bigtens>:
  408158:	8000 37e0 c379 4341 6e17 b505 b8b5 4693     ...7y.AC.n.....F
  408168:	f9f5 e93f 4f03 4d38 1d32 f930 7748 5a82     ..?..O8M2.0.Hw.Z
  408178:	bf3c 7f73 4fdd 7515                         <.s..O.u

00408180 <_init>:
  408180:	b5f8      	push	{r3, r4, r5, r6, r7, lr}
  408182:	bf00      	nop
  408184:	bcf8      	pop	{r3, r4, r5, r6, r7}
  408186:	bc08      	pop	{r3}
  408188:	469e      	mov	lr, r3
  40818a:	4770      	bx	lr

0040818c <__init_array_start>:
  40818c:	00404a71 	.word	0x00404a71

00408190 <__frame_dummy_init_array_entry>:
  408190:	004000f1                                ..@.

00408194 <_fini>:
  408194:	b5f8      	push	{r3, r4, r5, r6, r7, lr}
  408196:	bf00      	nop
  408198:	bcf8      	pop	{r3, r4, r5, r6, r7}
  40819a:	bc08      	pop	{r3}
  40819c:	469e      	mov	lr, r3
  40819e:	4770      	bx	lr

004081a0 <__fini_array_start>:
  4081a0:	004000cd 	.word	0x004000cd
